(dp1
S'output'
p2
S"<type 'exceptions.TypeError'> unhashable type: 'list'"
p3
sS'layer'
p4
S'/home/smmau/Downloads/Programador/web2py/applications/MeioAmbienteRP/controllers/default.py'
p5
sS'code'
p6
S'<code object <module> at 0x7fee540cb230, file "/home/smmau/Downloads/Programador/web2py/applications/MeioAmbienteRP/controllers/default.py", line 8>'
p7
sS'snapshot'
p8
(dp9
S'exception'
p10
(dp11
S'__getslice__'
p12
S"<method-wrapper '__getslice__' of exceptions.TypeError object>"
p13
sS'__str__'
p14
S"<method-wrapper '__str__' of exceptions.TypeError object>"
p15
sS'__reduce__'
p16
S'<built-in method __reduce__ of exceptions.TypeError object>'
p17
sS'__dict__'
p18
S'{}'
p19
sS'message'
p20
S'"unhashable type: \'list\'"'
p21
sS'__sizeof__'
p22
S'<built-in method __sizeof__ of exceptions.TypeError object>'
p23
sS'__init__'
p24
S"<method-wrapper '__init__' of exceptions.TypeError object>"
p25
sS'__setattr__'
p26
S"<method-wrapper '__setattr__' of exceptions.TypeError object>"
p27
sS'__reduce_ex__'
p28
S'<built-in method __reduce_ex__ of exceptions.TypeError object>'
p29
sS'__new__'
p30
S'<built-in method __new__ of type object>'
p31
sS'__format__'
p32
S'<built-in method __format__ of exceptions.TypeError object>'
p33
sS'__class__'
p34
S"<type 'exceptions.TypeError'>"
p35
sS'__doc__'
p36
S"'Inappropriate argument type.'"
p37
sS'__getitem__'
p38
S"<method-wrapper '__getitem__' of exceptions.TypeError object>"
p39
sS'__setstate__'
p40
S'<built-in method __setstate__ of exceptions.TypeError object>'
p41
sS'__getattribute__'
p42
S"<method-wrapper '__getattribute__' of exceptions.TypeError object>"
p43
sS'args'
p44
S'("unhashable type: \'list\'",)'
p45
sS'__subclasshook__'
p46
S'<built-in method __subclasshook__ of type object>'
p47
sS'__unicode__'
p48
S'<built-in method __unicode__ of exceptions.TypeError object>'
p49
sS'__delattr__'
p50
S"<method-wrapper '__delattr__' of exceptions.TypeError object>"
p51
sS'__repr__'
p52
S"<method-wrapper '__repr__' of exceptions.TypeError object>"
p53
sS'__hash__'
p54
S"<method-wrapper '__hash__' of exceptions.TypeError object>"
p55
ssS'evalue'
p56
S"unhashable type: 'list'"
p57
sS'request'
p58
cgluon.html
XML_unpickle
p59
(S's\xcbg\x00\x00<div><table><tr><td style="font-weight:bold;vertical-align:top;">ajax</td><td style="vertical-align:top;">:</td><td><div>False</div></td></tr><tr><td style="font-weight:bold;vertical-align:top;">application</td><td style="vertical-align:top;">:</td><td><div>MeioAmbienteRP</div></td></tr><tr><td style="font-weight:bold;vertical-align:top;">args</td><td style="vertical-align:top;">:</td><td><div><table></table></div></td></tr><tr><td style="font-weight:bold;vertical-align:top;">cid</td><td style="vertical-align:top;">:</td><td><div>None</div></td></tr><tr><td style="font-weight:bold;vertical-align:top;">client</td><td style="vertical-align:top;">:</td><td><div>127.0.0.1</div></td></tr><tr><td style="font-weight:bold;vertical-align:top;">controller</td><td style="vertical-align:top;">:</td><td><div>default</div></td></tr><tr><td style="font-weight:bold;vertical-align:top;">cookies</td><td style="vertical-align:top;">:</td><td><div><table><tr><td style="font-weight:bold;vertical-align:top;">session_id_admin</td><td style="vertical-align:top;">:</td><td><div>127.0.0.1-cd79f4bf-43c4-4675-90de-3482d900f35c<table><tr><td style="font-weight:bold;vertical-align:top;">comment</td><td style="vertical-align:top;">:</td><td><div></div></td></tr><tr><td style="font-weight:bold;vertical-align:top;">domain</td><td style="vertical-align:top;">:</td><td><div></div></td></tr><tr><td style="font-weight:bold;vertical-align:top;">expires</td><td style="vertical-align:top;">:</td><td><div></div></td></tr><tr><td style="font-weight:bold;vertical-align:top;">httponly</td><td style="vertical-align:top;">:</td><td><div></div></td></tr><tr><td style="font-weight:bold;vertical-align:top;">max-age</td><td style="vertical-align:top;">:</td><td><div></div></td></tr><tr><td style="font-weight:bold;vertical-align:top;">path</td><td style="vertical-align:top;">:</td><td><div></div></td></tr><tr><td style="font-weight:bold;vertical-align:top;">samesite</td><td style="vertical-align:top;">:</td><td><div></div></td></tr><tr><td style="font-weight:bold;vertical-align:top;">secure</td><td style="vertical-align:top;">:</td><td><div></div></td></tr><tr><td style="font-weight:bold;vertical-align:top;">version</td><td style="vertical-align:top;">:</td><td><div></div></td></tr></table></div></td></tr><tr><td style="font-weight:bold;vertical-align:top;">session_id_meioambienterp</td><td style="vertical-align:top;">:</td><td><div>127.0.0.1-693c7aa4-8118-485f-b94b-7b223474860a<table><tr><td style="font-weight:bold;vertical-align:top;">comment</td><td style="vertical-align:top;">:</td><td><div></div></td></tr><tr><td style="font-weight:bold;vertical-align:top;">domain</td><td style="vertical-align:top;">:</td><td><div></div></td></tr><tr><td style="font-weight:bold;vertical-align:top;">expires</td><td style="vertical-align:top;">:</td><td><div></div></td></tr><tr><td style="font-weight:bold;vertical-align:top;">httponly</td><td style="vertical-align:top;">:</td><td><div></div></td></tr><tr><td style="font-weight:bold;vertical-align:top;">max-age</td><td style="vertical-align:top;">:</td><td><div></div></td></tr><tr><td style="font-weight:bold;vertical-align:top;">path</td><td style="vertical-align:top;">:</td><td><div></div></td></tr><tr><td style="font-weight:bold;vertical-align:top;">samesite</td><td style="vertical-align:top;">:</td><td><div></div></td></tr><tr><td style="font-weight:bold;vertical-align:top;">secure</td><td style="vertical-align:top;">:</td><td><div></div></td></tr><tr><td style="font-weight:bold;vertical-align:top;">version</td><td style="vertical-align:top;">:</td><td><div></div></td></tr></table></div></td></tr><tr><td style="font-weight:bold;vertical-align:top;">session_id_pm_sjrp</td><td style="vertical-align:top;">:</td><td><div>127.0.0.1-b5d8d59d-2fc2-4638-b664-b236727d82b2<table><tr><td style="font-weight:bold;vertical-align:top;">comment</td><td style="vertical-align:top;">:</td><td><div></div></td></tr><tr><td style="font-weight:bold;vertical-align:top;">domain</td><td style="vertical-align:top;">:</td><td><div></div></td></tr><tr><td style="font-weight:bold;vertical-align:top;">expires</td><td style="vertical-align:top;">:</td><td><div></div></td></tr><tr><td style="font-weight:bold;vertical-align:top;">httponly</td><td style="vertical-align:top;">:</td><td><div></div></td></tr><tr><td style="font-weight:bold;vertical-align:top;">max-age</td><td style="vertical-align:top;">:</td><td><div></div></td></tr><tr><td style="font-weight:bold;vertical-align:top;">path</td><td style="vertical-align:top;">:</td><td><div></div></td></tr><tr><td style="font-weight:bold;vertical-align:top;">samesite</td><td style="vertical-align:top;">:</td><td><div></div></td></tr><tr><td style="font-weight:bold;vertical-align:top;">secure</td><td style="vertical-align:top;">:</td><td><div></div></td></tr><tr><td style="font-weight:bold;vertical-align:top;">version</td><td style="vertical-align:top;">:</td><td><div></div></td></tr></table></div></td></tr><tr><td style="font-weight:bold;vertical-align:top;">session_id_welcome</td><td style="vertical-align:top;">:</td><td><div>127.0.0.1-d7a4cf42-a874-44f1-8799-3ceb7b3f3aaf<table><tr><td style="font-weight:bold;vertical-align:top;">comment</td><td style="vertical-align:top;">:</td><td><div></div></td></tr><tr><td style="font-weight:bold;vertical-align:top;">domain</td><td style="vertical-align:top;">:</td><td><div></div></td></tr><tr><td style="font-weight:bold;vertical-align:top;">expires</td><td style="vertical-align:top;">:</td><td><div></div></td></tr><tr><td style="font-weight:bold;vertical-align:top;">httponly</td><td style="vertical-align:top;">:</td><td><div></div></td></tr><tr><td style="font-weight:bold;vertical-align:top;">max-age</td><td style="vertical-align:top;">:</td><td><div></div></td></tr><tr><td style="font-weight:bold;vertical-align:top;">path</td><td style="vertical-align:top;">:</td><td><div></div></td></tr><tr><td style="font-weight:bold;vertical-align:top;">samesite</td><td style="vertical-align:top;">:</td><td><div></div></td></tr><tr><td style="font-weight:bold;vertical-align:top;">secure</td><td style="vertical-align:top;">:</td><td><div></div></td></tr><tr><td style="font-weight:bold;vertical-align:top;">version</td><td style="vertical-align:top;">:</td><td><div></div></td></tr></table></div></td></tr></table></div></td></tr><tr><td style="font-weight:bold;vertical-align:top;">env</td><td style="vertical-align:top;">:</td><td><div><table><tr><td style="font-weight:bold;vertical-align:top;">HTTP_ACCEPT</td><td style="vertical-align:top;">:</td><td><div>text/html,application/xhtml+xml,application/xml;q=0.9,*/*;q=0.8</div></td></tr><tr><td style="font-weight:bold;vertical-align:top;">HTTP_ACCEPT_ENCODING</td><td style="vertical-align:top;">:</td><td><div>gzip, deflate</div></td></tr><tr><td style="font-weight:bold;vertical-align:top;">HTTP_ACCEPT_LANGUAGE</td><td style="vertical-align:top;">:</td><td><div>pt-BR,pt;q=0.8,en-US;q=0.5,en;q=0.3</div></td></tr><tr><td style="font-weight:bold;vertical-align:top;">HTTP_CACHE_CONTROL</td><td style="vertical-align:top;">:</td><td><div>max-age=0</div></td></tr><tr><td style="font-weight:bold;vertical-align:top;">HTTP_CONNECTION</td><td style="vertical-align:top;">:</td><td><div>keep-alive</div></td></tr><tr><td style="font-weight:bold;vertical-align:top;">HTTP_COOKIE</td><td style="vertical-align:top;">:</td><td><div>session_id_meioambienterp=127.0.0.1-693c7aa4-8118-485f-b94b-7b223474860a; session_id_admin=127.0.0.1-cd79f4bf-43c4-4675-90de-3482d900f35c; session_id_pm_sjrp=127.0.0.1-b5d8d59d-2fc2-4638-b664-b236727d82b2; session_id_welcome=127.0.0.1-d7a4cf42-a874-44f1-8799-3ceb7b3f3aaf</div></td></tr><tr><td style="font-weight:bold;vertical-align:top;">HTTP_DNT</td><td style="vertical-align:top;">:</td><td><div>1</div></td></tr><tr><td style="font-weight:bold;vertical-align:top;">HTTP_HOST</td><td style="vertical-align:top;">:</td><td><div>127.0.0.1:8000</div></td></tr><tr><td style="font-weight:bold;vertical-align:top;">HTTP_REFERER</td><td style="vertical-align:top;">:</td><td><div>http://127.0.0.1:8000/MeioAmbienteRP/default/index</div></td></tr><tr><td style="font-weight:bold;vertical-align:top;">HTTP_UPGRADE_INSECURE_REQUESTS</td><td style="vertical-align:top;">:</td><td><div>1</div></td></tr><tr><td style="font-weight:bold;vertical-align:top;">HTTP_USER_AGENT</td><td style="vertical-align:top;">:</td><td><div>Mozilla/5.0 (X11; Ubuntu; Linux x86_64; rv:64.0) Gecko/20100101 Firefox/64.0</div></td></tr><tr><td style="font-weight:bold;vertical-align:top;">PATH_INFO</td><td style="vertical-align:top;">:</td><td><div>/MeioAmbienteRP/default/FConsultA3P</div></td></tr><tr><td style="font-weight:bold;vertical-align:top;">QUERY_STRING</td><td style="vertical-align:top;">:</td><td><div></div></td></tr><tr><td style="font-weight:bold;vertical-align:top;">REMOTE_ADDR</td><td style="vertical-align:top;">:</td><td><div>127.0.0.1</div></td></tr><tr><td style="font-weight:bold;vertical-align:top;">REMOTE_PORT</td><td style="vertical-align:top;">:</td><td><div>33840</div></td></tr><tr><td style="font-weight:bold;vertical-align:top;">REQUEST_METHOD</td><td style="vertical-align:top;">:</td><td><div>GET</div></td></tr><tr><td style="font-weight:bold;vertical-align:top;">SCRIPT_NAME</td><td style="vertical-align:top;">:</td><td><div></div></td></tr><tr><td style="font-weight:bold;vertical-align:top;">SERVER_NAME</td><td style="vertical-align:top;">:</td><td><div>smmau-004-pc004</div></td></tr><tr><td style="font-weight:bold;vertical-align:top;">SERVER_PORT</td><td style="vertical-align:top;">:</td><td><div>8000</div></td></tr><tr><td style="font-weight:bold;vertical-align:top;">SERVER_PROTOCOL</td><td style="vertical-align:top;">:</td><td><div>HTTP/1.1</div></td></tr><tr><td style="font-weight:bold;vertical-align:top;">SERVER_SOFTWARE</td><td style="vertical-align:top;">:</td><td><div>Rocket 1.2.6</div></td></tr><tr><td style="font-weight:bold;vertical-align:top;">app_folders</td><td style="vertical-align:top;">:</td><td><div>set([&#x27;/home/smmau/Downloads/Programador/web2py/applications/admin/&#x27;, &#x27;/home/smmau/Downloads/Programador/web2py/applications/MeioAmbienteRP/&#x27;, &#x27;/home/smmau/Downloads/Programador/web2py/applications/welcome/&#x27;])</div></td></tr><tr><td style="font-weight:bold;vertical-align:top;">applications_parent</td><td style="vertical-align:top;">:</td><td><div>/home/smmau/Downloads/Programador/web2py</div></td></tr><tr><td style="font-weight:bold;vertical-align:top;">cmd_args</td><td style="vertical-align:top;">:</td><td><div><table></table></div></td></tr><tr><td style="font-weight:bold;vertical-align:top;">cmd_options</td><td style="vertical-align:top;">:</td><td><div>&lt;Values at 0x7fee80565c68: {&#x27;verbose&#x27;: False, &#x27;ip&#x27;: &#x27;127.0.0.1&#x27;, &#x27;debuglevel&#x27;: 30, &#x27;with_scheduler&#x27;: False, &#x27;shutdown_timeout&#x27;: 5, &#x27;taskbar&#x27;: False, &#x27;with_coverage&#x27;: False, &#x27;pid_filename&#x27;: &#x27;httpserver.pid&#x27;, &#x27;maxthreads&#x27;: None, &#x27;softcron&#x27;: False, &#x27;server_name&#x27;: &#x27;smmau-004-pc004&#x27;, &#x27;bpython&#x27;: False, &#x27;nogui&#x27;: False, &#x27;port&#x27;: 8000, &#x27;print_errors&#x27;: False, &#x27;extcron&#x27;: False, &#x27;runcron&#x27;: False, &#x27;run_system_tests&#x27;: False, &#x27;test&#x27;: None, &#x27;folder&#x27;: &#x27;/home/smmau/Downloads/Programador/web2py&#x27;, &#x27;config&#x27;: &#x27;&#x27;, &#x27;minthreads&#x27;: None, &#x27;shell&#x27;: None, &#x27;run&#x27;: &#x27;&#x27;, &#x27;log_filename&#x27;: &#x27;httpserver.log&#x27;, &#x27;profiler_dir&#x27;: None, &#x27;args&#x27;: [&#x27;&#x27;], &#x27;socket_timeout&#x27;: 5, &#x27;ssl_ca_certificate&#x27;: None, &#x27;scheduler&#x27;: None, &#x27;interfaces&#x27;: None, &#x27;ssl_private_key&#x27;: &#x27;&#x27;, &#x27;gae&#x27;: None, &#x27;password&#x27;: &#x27;******&#x27;, &#x27;request_queue_size&#x27;: 5, &#x27;ssl_certificate&#x27;: &#x27;&#x27;, &#x27;cronjob&#x27;: False, &#x27;numthreads&#x27;: None, &#x27;quiet&#x27;: False, &#x27;import_models&#x27;: False, &#x27;timeout&#x27;: 10, &#x27;plain&#x27;: False, &#x27;nobanner&#x27;: False}&gt;</div></td></tr><tr><td style="font-weight:bold;vertical-align:top;">db_sessions</td><td style="vertical-align:top;">:</td><td><div>set([])</div></td></tr><tr><td style="font-weight:bold;vertical-align:top;">debugging</td><td style="vertical-align:top;">:</td><td><div>False</div></td></tr><tr><td style="font-weight:bold;vertical-align:top;">gluon_parent</td><td style="vertical-align:top;">:</td><td><div>/home/smmau/Downloads/Programador/web2py</div></td></tr><tr><td style="font-weight:bold;vertical-align:top;">http_accept</td><td style="vertical-align:top;">:</td><td><div>text/html,application/xhtml+xml,application/xml;q=0.9,*/*;q=0.8</div></td></tr><tr><td style="font-weight:bold;vertical-align:top;">http_accept_encoding</td><td style="vertical-align:top;">:</td><td><div>gzip, deflate</div></td></tr><tr><td style="font-weight:bold;vertical-align:top;">http_accept_language</td><td style="vertical-align:top;">:</td><td><div>pt-BR,pt;q=0.8,en-US;q=0.5,en;q=0.3</div></td></tr><tr><td style="font-weight:bold;vertical-align:top;">http_cache_control</td><td style="vertical-align:top;">:</td><td><div>max-age=0</div></td></tr><tr><td style="font-weight:bold;vertical-align:top;">http_connection</td><td style="vertical-align:top;">:</td><td><div>keep-alive</div></td></tr><tr><td style="font-weight:bold;vertical-align:top;">http_cookie</td><td style="vertical-align:top;">:</td><td><div>session_id_meioambienterp=127.0.0.1-693c7aa4-8118-485f-b94b-7b223474860a; session_id_admin=127.0.0.1-cd79f4bf-43c4-4675-90de-3482d900f35c; session_id_pm_sjrp=127.0.0.1-b5d8d59d-2fc2-4638-b664-b236727d82b2; session_id_welcome=127.0.0.1-d7a4cf42-a874-44f1-8799-3ceb7b3f3aaf</div></td></tr><tr><td style="font-weight:bold;vertical-align:top;">http_dnt</td><td style="vertical-align:top;">:</td><td><div>1</div></td></tr><tr><td style="font-weight:bold;vertical-align:top;">http_host</td><td style="vertical-align:top;">:</td><td><div>127.0.0.1:8000</div></td></tr><tr><td style="font-weight:bold;vertical-align:top;">http_referer</td><td style="vertical-align:top;">:</td><td><div>http://127.0.0.1:8000/MeioAmbienteRP/default/index</div></td></tr><tr><td style="font-weight:bold;vertical-align:top;">http_upgrade_insecure_requests</td><td style="vertical-align:top;">:</td><td><div>1</div></td></tr><tr><td style="font-weight:bold;vertical-align:top;">http_user_agent</td><td style="vertical-align:top;">:</td><td><div>Mozilla/5.0 (X11; Ubuntu; Linux x86_64; rv:64.0) Gecko/20100101 Firefox/64.0</div></td></tr><tr><td style="font-weight:bold;vertical-align:top;">is_jython</td><td style="vertical-align:top;">:</td><td><div>False</div></td></tr><tr><td style="font-weight:bold;vertical-align:top;">is_py2</td><td style="vertical-align:top;">:</td><td><div>True</div></td></tr><tr><td style="font-weight:bold;vertical-align:top;">is_pypy</td><td style="vertical-align:top;">:</td><td><div>False</div></td></tr><tr><td style="font-weight:bold;vertical-align:top;">is_source</td><td style="vertical-align:top;">:</td><td><div>True</div></td></tr><tr><td style="font-weight:bold;vertical-align:top;">local_hosts</td><td style="vertical-align:top;">:</td><td><div><table><tr><td><div>smmau-004-pc004</div></td></tr><tr><td><div>::1</div></td></tr><tr><td><div>::ffff:127.0.0.1</div></td></tr><tr><td><div>127.0.0.1</div></td></tr><tr><td><div>smmau-004-pc004.REDE-EMPRO.empro.com.br</div></td></tr></table></div></td></tr><tr><td style="font-weight:bold;vertical-align:top;">path_info</td><td style="vertical-align:top;">:</td><td><div>/MeioAmbienteRP/default/FConsultA3P</div></td></tr><tr><td style="font-weight:bold;vertical-align:top;">query_string</td><td style="vertical-align:top;">:</td><td><div></div></td></tr><tr><td style="font-weight:bold;vertical-align:top;">remote_addr</td><td style="vertical-align:top;">:</td><td><div>127.0.0.1</div></td></tr><tr><td style="font-weight:bold;vertical-align:top;">remote_port</td><td style="vertical-align:top;">:</td><td><div>33840</div></td></tr><tr><td style="font-weight:bold;vertical-align:top;">request_method</td><td style="vertical-align:top;">:</td><td><div>GET</div></td></tr><tr><td style="font-weight:bold;vertical-align:top;">request_uri</td><td style="vertical-align:top;">:</td><td><div>/MeioAmbienteRP/default/FConsultA3P</div></td></tr><tr><td style="font-weight:bold;vertical-align:top;">script_name</td><td style="vertical-align:top;">:</td><td><div></div></td></tr><tr><td style="font-weight:bold;vertical-align:top;">server_name</td><td style="vertical-align:top;">:</td><td><div>smmau-004-pc004</div></td></tr><tr><td style="font-weight:bold;vertical-align:top;">server_port</td><td style="vertical-align:top;">:</td><td><div>8000</div></td></tr><tr><td style="font-weight:bold;vertical-align:top;">server_protocol</td><td style="vertical-align:top;">:</td><td><div>HTTP/1.1</div></td></tr><tr><td style="font-weight:bold;vertical-align:top;">server_software</td><td style="vertical-align:top;">:</td><td><div>Rocket 1.2.6</div></td></tr><tr><td style="font-weight:bold;vertical-align:top;">web2py_path</td><td style="vertical-align:top;">:</td><td><div>/home/smmau/Downloads/Programador/web2py</div></td></tr><tr><td style="font-weight:bold;vertical-align:top;">web2py_version</td><td style="vertical-align:top;">:</td><td><div>2.17.2-stable+timestamp.2018.10.06.18.54.02</div></td></tr><tr><td style="font-weight:bold;vertical-align:top;">wsgi.errors</td><td style="vertical-align:top;">:</td><td><div>&lt;open file &#x27;&lt;stderr&gt;&#x27;, mode &#x27;w&#x27; at 0x7fee82cea1e0&gt;</div></td></tr><tr><td style="font-weight:bold;vertical-align:top;">wsgi.file_wrapper</td><td style="vertical-align:top;">:</td><td><div>&lt;class wsgiref.util.FileWrapper at 0x7fee7c8bae20&gt;</div></td></tr><tr><td style="font-weight:bold;vertical-align:top;">wsgi.input</td><td style="vertical-align:top;">:</td><td><div>&lt;socket._fileobject object at 0x7fee5450e3d0&gt;</div></td></tr><tr><td style="font-weight:bold;vertical-align:top;">wsgi.multiprocess</td><td style="vertical-align:top;">:</td><td><div>False</div></td></tr><tr><td style="font-weight:bold;vertical-align:top;">wsgi.multithread</td><td style="vertical-align:top;">:</td><td><div>True</div></td></tr><tr><td style="font-weight:bold;vertical-align:top;">wsgi.run_once</td><td style="vertical-align:top;">:</td><td><div>False</div></td></tr><tr><td style="font-weight:bold;vertical-align:top;">wsgi.url_scheme</td><td style="vertical-align:top;">:</td><td><div>http</div></td></tr><tr><td style="font-weight:bold;vertical-align:top;">wsgi.version</td><td style="vertical-align:top;">:</td><td><div><table><tr><td><div>1</div></td></tr><tr><td><div>0</div></td></tr></table></div></td></tr><tr><td style="font-weight:bold;vertical-align:top;">wsgi_errors</td><td style="vertical-align:top;">:</td><td><div>&lt;open file &#x27;&lt;stderr&gt;&#x27;, mode &#x27;w&#x27; at 0x7fee82cea1e0&gt;</div></td></tr><tr><td style="font-weight:bold;vertical-align:top;">wsgi_file_wrapper</td><td style="vertical-align:top;">:</td><td><div>&lt;class wsgiref.util.FileWrapper at 0x7fee7c8bae20&gt;</div></td></tr><tr><td style="font-weight:bold;vertical-align:top;">wsgi_input</td><td style="vertical-align:top;">:</td><td><div>&lt;socket._fileobject object at 0x7fee5450e3d0&gt;</div></td></tr><tr><td style="font-weight:bold;vertical-align:top;">wsgi_multiprocess</td><td style="vertical-align:top;">:</td><td><div>False</div></td></tr><tr><td style="font-weight:bold;vertical-align:top;">wsgi_multithread</td><td style="vertical-align:top;">:</td><td><div>True</div></td></tr><tr><td style="font-weight:bold;vertical-align:top;">wsgi_run_once</td><td style="vertical-align:top;">:</td><td><div>False</div></td></tr><tr><td style="font-weight:bold;vertical-align:top;">wsgi_url_scheme</td><td style="vertical-align:top;">:</td><td><div>http</div></td></tr><tr><td style="font-weight:bold;vertical-align:top;">wsgi_version</td><td style="vertical-align:top;">:</td><td><div><table><tr><td><div>1</div></td></tr><tr><td><div>0</div></td></tr></table></div></td></tr></table></div></td></tr><tr><td style="font-weight:bold;vertical-align:top;">extension</td><td style="vertical-align:top;">:</td><td><div>html</div></td></tr><tr><td style="font-weight:bold;vertical-align:top;">folder</td><td style="vertical-align:top;">:</td><td><div>/home/smmau/Downloads/Programador/web2py/applications/MeioAmbienteRP/</div></td></tr><tr><td style="font-weight:bold;vertical-align:top;">function</td><td style="vertical-align:top;">:</td><td><div>FConsultA3P</div></td></tr><tr><td style="font-weight:bold;vertical-align:top;">global_settings</td><td style="vertical-align:top;">:</td><td><div><table><tr><td style="font-weight:bold;vertical-align:top;">app_folders</td><td style="vertical-align:top;">:</td><td><div>set([&#x27;/home/smmau/Downloads/Programador/web2py/applications/admin/&#x27;, &#x27;/home/smmau/Downloads/Programador/web2py/applications/MeioAmbienteRP/&#x27;, &#x27;/home/smmau/Downloads/Programador/web2py/applications/welcome/&#x27;])</div></td></tr><tr><td style="font-weight:bold;vertical-align:top;">applications_parent</td><td style="vertical-align:top;">:</td><td><div>/home/smmau/Downloads/Programador/web2py</div></td></tr><tr><td style="font-weight:bold;vertical-align:top;">cmd_args</td><td style="vertical-align:top;">:</td><td><div><table></table></div></td></tr><tr><td style="font-weight:bold;vertical-align:top;">cmd_options</td><td style="vertical-align:top;">:</td><td><div>&lt;Values at 0x7fee80565c68: {&#x27;verbose&#x27;: False, &#x27;ip&#x27;: &#x27;127.0.0.1&#x27;, &#x27;debuglevel&#x27;: 30, &#x27;with_scheduler&#x27;: False, &#x27;shutdown_timeout&#x27;: 5, &#x27;taskbar&#x27;: False, &#x27;with_coverage&#x27;: False, &#x27;pid_filename&#x27;: &#x27;httpserver.pid&#x27;, &#x27;maxthreads&#x27;: None, &#x27;softcron&#x27;: False, &#x27;server_name&#x27;: &#x27;smmau-004-pc004&#x27;, &#x27;bpython&#x27;: False, &#x27;nogui&#x27;: False, &#x27;port&#x27;: 8000, &#x27;print_errors&#x27;: False, &#x27;extcron&#x27;: False, &#x27;runcron&#x27;: False, &#x27;run_system_tests&#x27;: False, &#x27;test&#x27;: None, &#x27;folder&#x27;: &#x27;/home/smmau/Downloads/Programador/web2py&#x27;, &#x27;config&#x27;: &#x27;&#x27;, &#x27;minthreads&#x27;: None, &#x27;shell&#x27;: None, &#x27;run&#x27;: &#x27;&#x27;, &#x27;log_filename&#x27;: &#x27;httpserver.log&#x27;, &#x27;profiler_dir&#x27;: None, &#x27;args&#x27;: [&#x27;&#x27;], &#x27;socket_timeout&#x27;: 5, &#x27;ssl_ca_certificate&#x27;: None, &#x27;scheduler&#x27;: None, &#x27;interfaces&#x27;: None, &#x27;ssl_private_key&#x27;: &#x27;&#x27;, &#x27;gae&#x27;: None, &#x27;password&#x27;: &#x27;******&#x27;, &#x27;request_queue_size&#x27;: 5, &#x27;ssl_certificate&#x27;: &#x27;&#x27;, &#x27;cronjob&#x27;: False, &#x27;numthreads&#x27;: None, &#x27;quiet&#x27;: False, &#x27;import_models&#x27;: False, &#x27;timeout&#x27;: 10, &#x27;plain&#x27;: False, &#x27;nobanner&#x27;: False}&gt;</div></td></tr><tr><td style="font-weight:bold;vertical-align:top;">db_sessions</td><td style="vertical-align:top;">:</td><td><div>set([])</div></td></tr><tr><td style="font-weight:bold;vertical-align:top;">debugging</td><td style="vertical-align:top;">:</td><td><div>False</div></td></tr><tr><td style="font-weight:bold;vertical-align:top;">gluon_parent</td><td style="vertical-align:top;">:</td><td><div>/home/smmau/Downloads/Programador/web2py</div></td></tr><tr><td style="font-weight:bold;vertical-align:top;">is_jython</td><td style="vertical-align:top;">:</td><td><div>False</div></td></tr><tr><td style="font-weight:bold;vertical-align:top;">is_py2</td><td style="vertical-align:top;">:</td><td><div>True</div></td></tr><tr><td style="font-weight:bold;vertical-align:top;">is_pypy</td><td style="vertical-align:top;">:</td><td><div>False</div></td></tr><tr><td style="font-weight:bold;vertical-align:top;">is_source</td><td style="vertical-align:top;">:</td><td><div>True</div></td></tr><tr><td style="font-weight:bold;vertical-align:top;">local_hosts</td><td style="vertical-align:top;">:</td><td><div><table><tr><td><div>smmau-004-pc004</div></td></tr><tr><td><div>::1</div></td></tr><tr><td><div>::ffff:127.0.0.1</div></td></tr><tr><td><div>127.0.0.1</div></td></tr><tr><td><div>smmau-004-pc004.REDE-EMPRO.empro.com.br</div></td></tr></table></div></td></tr><tr><td style="font-weight:bold;vertical-align:top;">web2py_version</td><td style="vertical-align:top;">:</td><td><div>2.17.2-stable+timestamp.2018.10.06.18.54.02</div></td></tr></table></div></td></tr><tr><td style="font-weight:bold;vertical-align:top;">is_https</td><td style="vertical-align:top;">:</td><td><div>False</div></td></tr><tr><td style="font-weight:bold;vertical-align:top;">is_local</td><td style="vertical-align:top;">:</td><td><div>True</div></td></tr><tr><td style="font-weight:bold;vertical-align:top;">is_restful</td><td style="vertical-align:top;">:</td><td><div>False</div></td></tr><tr><td style="font-weight:bold;vertical-align:top;">is_scheduler</td><td style="vertical-align:top;">:</td><td><div>False</div></td></tr><tr><td style="font-weight:bold;vertical-align:top;">is_shell</td><td style="vertical-align:top;">:</td><td><div>False</div></td></tr><tr><td style="font-weight:bold;vertical-align:top;">method</td><td style="vertical-align:top;">:</td><td><div>GET</div></td></tr><tr><td style="font-weight:bold;vertical-align:top;">now</td><td style="vertical-align:top;">:</td><td><div>datetime.datetime(2019, 1, 30, 8, 38, 51, 152034)</div></td></tr><tr><td style="font-weight:bold;vertical-align:top;">raw_args</td><td style="vertical-align:top;">:</td><td><div></div></td></tr><tr><td style="font-weight:bold;vertical-align:top;">raw_extension</td><td style="vertical-align:top;">:</td><td><div>None</div></td></tr><tr><td style="font-weight:bold;vertical-align:top;">url</td><td style="vertical-align:top;">:</td><td><div>/MeioAmbienteRP/default/FConsultA3P</div></td></tr><tr><td style="font-weight:bold;vertical-align:top;">utcnow</td><td style="vertical-align:top;">:</td><td><div>datetime.datetime(2019, 1, 30, 10, 38, 51, 152060)</div></td></tr><tr><td style="font-weight:bold;vertical-align:top;">wsgi</td><td style="vertical-align:top;">:</td><td><div>&lt;gluon.main.LazyWSGI object at 0x7fee5458ac50&gt;</div></td></tr></table></div>'
tRp60
sS'frames'
p61
(lp62
(dp63
S'file'
p64
S'/home/smmau/Downloads/Programador/web2py/gluon/restricted.py'
p65
sS'dump'
p66
(dp67
S'environment'
p68
S"{'A': <class 'gluon.html.A'>, 'A3pLixos': <Table A3pLixos (Id, IdPredio, Data, Tipo, Qtd)>, 'ANY_OF': <class 'gluon.validators.ANY_OF'>, 'ASSIGNJS': <function ASSIGNJS>, 'AppConfig': <function AppConfig>, 'Auth': <class 'gluon.tools.Auth'>, 'B': <class 'gluon.html.B'>, 'BEAUTIFY': <class 'gluon.html.BEAUTIFY'>, 'BODY': <class 'gluon.html.BODY'>, 'BR': <class 'gluon.html.BR'>, ...}"
p69
sS'ccode'
p70
S'<code object <module> at 0x7fee540cb230, file "/...s/MeioAmbienteRP/controllers/default.py", line 8>'
p71
ssS'lnum'
p72
I219
sS'lines'
p73
(dp74
I214
S'    if environment is None:'
p75
sI215
S'        environment = {}'
p76
sI216
S"    environment['__file__'] = layer"
p77
sI217
S"    environment['__name__'] = '__restricted__'"
p78
sI218
S'    try:'
p79
sI219
S'        exec(ccode, environment)'
p80
sI220
S'    except HTTP:'
p81
sI221
S'        raise'
p82
sI222
S'    except RestrictedError:'
p83
sI223
S'        # do not encapsulate (obfuscate) the original RestrictedError'
p84
ssS'call'
p85
S'(ccode=<code object <module> at 0x7fee540cb230, file "/...s/MeioAmbienteRP/controllers/default.py", line 8>, environment={\'A\': <class \'gluon.html.A\'>, \'A3pLixos\': <Table A3pLixos (Id, IdPredio, Data, Tipo, Qtd)>, \'ANY_OF\': <class \'gluon.validators.ANY_OF\'>, \'ASSIGNJS\': <function ASSIGNJS>, \'AppConfig\': <function AppConfig>, \'Auth\': <class \'gluon.tools.Auth\'>, \'B\': <class \'gluon.html.B\'>, \'BEAUTIFY\': <class \'gluon.html.BEAUTIFY\'>, \'BODY\': <class \'gluon.html.BODY\'>, \'BR\': <class \'gluon.html.BR\'>, ...}, layer=\'/home/smmau/Downloads/Programador/web2py/applications/MeioAmbienteRP/controllers/default.py\', scode=<code object <module> at 0x7fee540cb230, file "/...s/MeioAmbienteRP/controllers/default.py", line 8>)'
p86
sS'func'
p87
S'restricted'
p88
sa(dp89
g64
S'/home/smmau/Downloads/Programador/web2py/applications/MeioAmbienteRP/controllers/default.py'
p90
sg66
(dp91
sg72
I106
sg73
(dp92
I96
S''
sI97
S'# ---- a\xc3\xa7\xc3\xa3o ao conte\xc3\xbado est\xc3\xa1tico enviado pelo servidor (required) ---'
p93
sI98
S'@cache.action()'
p94
sI99
S'def download():'
p95
sI100
S'    """'
p96
sI101
S'    permite o download de arquivos enviados'
p97
sI102
S'    http://..../[app]/default/download/[filename]'
p98
sI103
S'    """'
p99
sI104
S'    return response.download(request, db)'
p100
sI95
S'    return dict(form=auth())'
p101
ssg85
S'()'
p102
sg87
S'<module>'
p103
sa(dp104
g64
S'/home/smmau/Downloads/Programador/web2py/gluon/globals.py'
p105
sg66
(dp106
S'self'
p107
S'undefined'
p108
sS'f'
S'<function FConsultA3P>'
p109
ssg72
I421
sg73
(dp110
I416
S"        self.flash = ''            # used by the default view layout"
p111
sI417
S'        self.meta = Storage()      # used by web2py_ajax.html'
p112
sI418
S'        self.menu = []             # used by the default view layout'
p113
sI419
S'        self.files = []            # used by web2py_ajax.html'
p114
sI420
S'        self._vars = None'
p115
sI421
S'        self._caller = lambda f: f()'
p116
sI422
S'        self._view_environment = None'
p117
sI423
S'        self._custom_commit = None'
p118
sI424
S'        self._custom_rollback = None'
p119
sI425
S"        self.generic_patterns = ['*']"
p120
ssg85
S'(f=<function FConsultA3P>)'
p121
sg87
S'<lambda>'
p122
sa(dp123
g64
S'/home/smmau/Downloads/Programador/web2py/gluon/tools.py'
p124
sg66
(dp125
S'action'
p126
S'<function FConsultA3P>'
p127
sS'a'
S'()'
p128
sS'b'
g19
ssg72
I3867
sg73
(dp129
I3862
S'                    flag = condition'
p130
sI3863
S'                if not flag:'
p131
sI3864
S'                    current.session.flash = self.messages.access_denied'
p132
sI3865
S'                    return call_or_redirect('
p133
sI3866
S'                        self.settings.on_failed_authorization)'
p134
sI3867
S'                return action(*a, **b)'
p135
sI3868
S'            f.__doc__ = action.__doc__'
p136
sI3869
S'            f.__name__ = action.__name__'
p137
sI3870
S'            f.__dict__.update(action.__dict__)'
p138
sI3871
S'            return f'
p139
ssg85
S'(*a=(), **b={})'
p140
sg87
S'f'
sa(dp141
g64
S'/home/smmau/Downloads/Programador/web2py/applications/MeioAmbienteRP/controllers/default.py'
p142
sg66
(dp143
S'global URL'
p144
S'<function URL>'
p145
sS'_class'
p146
g108
sS'global A'
p147
S"<class 'gluon.html.A'>"
p148
sS'_href'
p149
g108
ssg72
I24
sg73
(dp150
I19
S"                            table_name='ConsultA3p',"
p151
sI20
S"                            formstyle='divs'"
p152
sI21
S'                            , submit_button = [INPUT(name=\'selectgraf\', _class=\'btn btn-primary btn-lg\',_type="submit", value=\'\xc3\x81gua\',  _value="\xc3\x81gua"),'
p153
sI22
S'                                        TAG.button(\'selectgraf\', _class=\'btn btn-primary btn-lg\',_type="submit", value=\'Energia\',  _value="Energia"),'
p154
sI23
S'                                        A("Res\xc3\xadduo", _class=\'btn btn-primary btn-lg\', _href=URL(\'graficos\',\'plotA3P\')),'
p155
sI24
S'                                         A("Recursos", _class=\'btn btn-primary btn-lg\', _href=URL(\'graficos\',\'plotA3P\'))]'
p156
sI25
S'                            )'
p157
sI26
S''
sI27
S'    if formConsultA3P.process().accepted:'
p158
sI28
S'        session.IdPredio = request.vars.IdPredio'
p159
ssg85
S'()'
p160
sg87
S'FConsultA3P'
p161
sa(dp162
g64
S'/home/smmau/Downloads/Programador/web2py/gluon/sqlhtml.py'
p163
sg66
(dp164
S'dummy_dal'
p165
S'<DAL uri="None">'
p166
sS'global SQLFORM'
p167
S"<class 'gluon.sqlhtml.SQLFORM'>"
p168
sS'table_name'
p169
S"'ConsultA3p'"
p170
sS'fields_with_clones'
p171
S'[<pydal.objects.Field object>, <pydal.objects.Field object>]'
p172
sS'attributes'
p173
S"{'formstyle': 'divs', 'submit_button': [<gluon.html.INPUT object>, <gluon.html.__tag_div__ object>, <gluon.html.A object>, <gluon.html.A object>]}"
p174
sS'dummy_dal.define_table'
p175
S'<bound method DAL.define_table of <DAL uri="None">>'
p176
ssg72
I2041
sg73
(dp177
I2036
S''
sI2037
S'        # Clone fields, while passing tables straight through'
p178
sI2038
S'        fields_with_clones = [f.clone() if isinstance(f, Field) else f for f in fields]'
p179
sI2039
S'        dummy_dal = DAL(None)'
p180
sI2040
S'        dummy_dal.validators_method = lambda f: _default_validators(dummy_dal, f) # See https://github.com/web2py/web2py/issues/2007'
p181
sI2041
S'        return SQLFORM(dummy_dal.define_table(table_name, *fields_with_clones), **attributes)'
p182
sI2042
S''
sI2043
S'    @staticmethod'
p183
sI2044
S'    def build_query(fields, keywords):'
p184
sI2045
S'        request = current.request'
p185
ssg85
S"(*fields=(<pydal.objects.Field object>, <pydal.objects.Field object>), **attributes={'formstyle': 'divs', 'submit_button': [<gluon.html.INPUT object>, <gluon.html.__tag_div__ object>, <gluon.html.A object>, <gluon.html.A object>]})"
p186
sg87
S'factory'
p187
sa(dp188
g64
S'/home/smmau/Downloads/Programador/web2py/gluon/sqlhtml.py'
p189
sg66
(dp190
S'_value'
p191
g108
sS'T'
S'<gluon.languages.translator object>'
p192
sS'submit_button'
p193
S'[<gluon.html.INPUT object>, <gluon.html.__tag_div__ object>, <gluon.html.A object>, <gluon.html.A object>]'
p194
ssg72
I1609
sg73
(dp195
I1604
S'        # when writable, add submit button'
p196
sI1605
S"        self.custom.submit = ''"
p197
sI1606
S'        if not readonly:'
p198
sI1607
S"            if 'submit' in buttons:"
p199
sI1608
S"                widget = self.custom.submit = INPUT(_type='submit',"
p200
sI1609
S'                                                    _value=T(submit_button))'
p201
sI1610
S'            elif buttons:'
p202
sI1611
S'                widget = self.custom.submit = DIV(*buttons)'
p203
sI1612
S'            if self.custom.submit:'
p204
sI1613
S"                xfields.append(('submit_record' + SQLFORM.ID_ROW_SUFFIX,"
p205
ssg85
S"(self=<gluon.sqlhtml.SQLFORM object>, table=<Table ConsultA3p (id, IdPredio, slcAno)>, record=None, deletable=False, linkto=None, upload=None, fields=['id', 'IdPredio', 'slcAno'], labels=None, col3={}, submit_button=[<gluon.html.INPUT object>, <gluon.html.__tag_div__ object>, <gluon.html.A object>, <gluon.html.A object>], delete_label='Check to delete', showid=True, readonly=False, comments=True, keepopts=[], ignore_rw=False, record_id=None, formstyle='divs', buttons=['submit'], separator=None, extra_fields=[], **attributes={})"
p206
sg87
g24
sa(dp207
g64
S'/home/smmau/Downloads/Programador/web2py/gluon/html.py'
p208
sg66
(dp209
S'self'
p210
S'<gluon.html.INPUT object>'
p211
sS'self._postprocessing'
p212
S'<bound method INPUT._postprocessing of <gluon.html.INPUT object>>'
p213
ssg72
I724
sg73
(dp214
I719
S'        self._fixup()'
p215
sI720
S'        # converts special attributes in components attributes'
p216
sI721
S'        self.parent = None'
p217
sI722
S'        for c in self.components:'
p218
sI723
S'            self._setnode(c)'
p219
sI724
S'        self._postprocessing()'
p220
sI725
S''
sI726
S'    def update(self, **kargs):'
p221
sI727
S'        """'
p222
sI728
S'        dictionary like updating of the tag attributes'
p223
ssg85
S"(self=<gluon.html.INPUT object>, *components=(), **attributes={'_type': 'submit', '_value': <lazyT '[<gluon.html.INPUT object at 0x7fee540c3...3dd0>, <gluon.html.A object at 0x7fee540c3e10>]'>})"
p224
sg87
g24
sa(dp225
g64
S'/home/smmau/Downloads/Programador/web2py/gluon/html.py'
p226
sg66
(dp227
S'_value'
p228
g108
sS'builtinstr'
p229
S"<type 'str'>"
p230
sS'self'
p231
S'<gluon.html.INPUT object>'
p232
ssg72
I1890
sg73
(dp233
I1888
S'            _value = None'
p234
sI1889
S'        else:'
p235
sI1890
S"            _value = str(self['_value'])"
p236
sI1891
S"        if '_checked' in self.attributes and 'value' not in self.attributes:"
p237
sI1892
S'            pass'
p238
sI1893
S"        elif t == 'checkbox':"
p239
sI1894
S'            if not _value:'
p240
sI1885
S'        t = t.lower()'
p241
sI1886
S"        value = self['value']"
p242
sI1887
S"        if self['_value'] is None or isinstance(self['_value'], cgi.FieldStorage):"
p243
ssg85
S'(self=<gluon.html.INPUT object>)'
p244
sg87
S'_postprocessing'
p245
sa(dp246
g64
S'/home/smmau/Downloads/Programador/web2py/gluon/languages.py'
p247
sg66
(dp248
S'self.T.translate'
p249
S'<bound method translator.translate of <gluon.languages.translator object>>'
p250
sS'self.s'
p251
g19
sS'self'
p252
S"<lazyT '[<gluon.html.INPUT object at 0x7fee540c3...3dd0>, <gluon.html.A object at 0x7fee540c3e10>]'>"
p253
sS'self.T'
p254
S'<gluon.languages.translator object>'
p255
sS'self.m'
p256
S'[<gluon.html.INPUT object>, <gluon.html.__tag_div__ object>, <gluon.html.A object>, <gluon.html.A object>]'
p257
ssg72
I391
sg73
(dp258
I386
S'    def __repr__(self):'
p259
sI387
S'        return "<lazyT %s>" % (repr(Utf8(self.m)), )'
p260
sI388
S''
sI389
S'    def __str__(self):'
p261
sI390
S'        return str(self.T.apply_filter(self.m, self.s, self.f, self.t) if self.M else'
p262
sI391
S'                   self.T.translate(self.m, self.s))'
p263
sI392
S''
sI393
S'    def __eq__(self, other):'
p264
sI394
S'        return str(self) == str(other)'
p265
sI395
S''
ssg85
S"(self=<lazyT '[<gluon.html.INPUT object at 0x7fee540c3...3dd0>, <gluon.html.A object at 0x7fee540c3e10>]'>)"
p266
sg87
g14
sa(dp267
g64
S'/home/smmau/Downloads/Programador/web2py/gluon/languages.py'
p268
sg66
(dp269
S'self'
p270
S'<gluon.languages.translator object>'
p271
sS'self.get_t'
p272
S'<bound method translator.get_t of <gluon.languages.translator object>>'
p273
sS'message'
p274
S'[<gluon.html.INPUT object>, <gluon.html.__tag_div__ object>, <gluon.html.A object>, <gluon.html.A object>]'
p275
ssg72
I995
sg73
(dp276
I992
S'        Gets cached translated message with inserted parameters(symbols)'
p277
sI993
S'        """'
p278
sI994
S'        message = get_from_cache(self.cache, message,'
p279
sI995
S'                                 lambda: self.get_t(message))'
p280
sI996
S'        if symbols or symbols == 0 or symbols == "":'
p281
sI997
S'            if isinstance(symbols, dict):'
p282
sI998
S'                symbols.update('
p283
sI999
S'                    (key, str(value).translate(ttab_in))'
p284
sI990
S'    def translate(self, message, symbols):'
p285
sI991
S'        """'
p286
ssg85
S'(self=<gluon.languages.translator object>, message=[<gluon.html.INPUT object>, <gluon.html.__tag_div__ object>, <gluon.html.A object>, <gluon.html.A object>], symbols={})'
p287
sg87
S'translate'
p288
sa(dp289
g64
S'/home/smmau/Downloads/Programador/web2py/gluon/languages.py'
p290
sg66
(dp291
S'val'
p292
S'[<gluon.html.INPUT object>, <gluon.html.__tag_div__ object>, <gluon.html.A object>, <gluon.html.A object>]'
p293
sS'lang_dict.get'
p294
S'<built-in method get of dict object>'
p295
sS'result'
p296
g108
sS'lang_dict'
p297
S'{\'"update" is an optional expression like "field1=...You cannot update or delete the results of a JOIN\': \'"update" \\xc3\\xa9 uma express\\xc3\\xa3o opcional como "campo1...pode atualizar ou apagar os resultados de um JOIN\', \'%Y-%m-%d\': \'%d-%m-%Y\', \'%Y-%m-%d %H:%M:%S\': \'%d-%m-%Y %H:%M:%S\', \'%s selected\': \'%s selecionado\', \'@markmin\\x01An error occured, please [[reload %s]] the page\': \'Ocorreu um erro, por favor <a href="%s">reload</a> a p\\xc3\\xa1gina\', \'About\': \'Sobre\', \'Access Control\': \'Controle de Acesso\', \'Ajax Recipes\': \'Receitas de Ajax\', \'Are you sure you want to delete this object?\': \'Voc\\xc3\\xaa tem certeza que quer apagar este objeto?\', "Buy web2py\'s book": \'Compre o livro do web2py\', ...}'
p298
ssg72
I144
sg73
(dp299
I139
S''
sI140
S'def get_from_cache(cache, val, fun):'
p300
sI141
S'    lang_dict, lock = cache'
p301
sI142
S'    lock.acquire()'
p302
sI143
S'    try:'
p303
sI144
S'        result = lang_dict.get(val)'
p304
sI145
S'    finally:'
p305
sI146
S'        lock.release()'
p306
sI147
S'    if result:'
p307
sI148
S'        return result'
p308
ssg85
S'(cache=({\'"update" is an optional expression like "field1=...You cannot update or delete the results of a JOIN\': \'"update" \\xc3\\xa9 uma express\\xc3\\xa3o opcional como "campo1...pode atualizar ou apagar os resultados de um JOIN\', \'%Y-%m-%d\': \'%d-%m-%Y\', \'%Y-%m-%d %H:%M:%S\': \'%d-%m-%Y %H:%M:%S\', \'%s selected\': \'%s selecionado\', \'@markmin\\x01An error occured, please [[reload %s]] the page\': \'Ocorreu um erro, por favor <a href="%s">reload</a> a p\\xc3\\xa1gina\', \'About\': \'Sobre\', \'Access Control\': \'Controle de Acesso\', \'Ajax Recipes\': \'Receitas de Ajax\', \'Are you sure you want to delete this object?\': \'Voc\\xc3\\xaa tem certeza que quer apagar este objeto?\', "Buy web2py\'s book": \'Compre o livro do web2py\', ...}, <_RLock owner=None count=0>), val=[<gluon.html.INPUT object>, <gluon.html.__tag_div__ object>, <gluon.html.A object>, <gluon.html.A object>], fun=<function <lambda>>)'
p309
sg87
S'get_from_cache'
p310
sasS'pyver'
p311
S'Python 2.7.15rc1: /usr/bin/python (prefix: /usr)'
p312
sS'session'
p313
g59
(S'su\x0c\x00\x00<div><table><tr><td style="font-weight:bold;vertical-align:top;">IdPredio</td><td style="vertical-align:top;">:</td><td><div>344</div></td></tr><tr><td style="font-weight:bold;vertical-align:top;">auth</td><td style="vertical-align:top;">:</td><td><div><table><tr><td style="font-weight:bold;vertical-align:top;">expiration</td><td style="vertical-align:top;">:</td><td><div>2592000</div></td></tr><tr><td style="font-weight:bold;vertical-align:top;">hmac_key</td><td style="vertical-align:top;">:</td><td><div>41280a53-bdcd-4a57-8423-387cdb608020</div></td></tr><tr><td style="font-weight:bold;vertical-align:top;">last_visit</td><td style="vertical-align:top;">:</td><td><div>datetime.datetime(2019, 1, 14, 15, 25, 25, 708883)</div></td></tr><tr><td style="font-weight:bold;vertical-align:top;">remember_me</td><td style="vertical-align:top;">:</td><td><div>True</div></td></tr><tr><td style="font-weight:bold;vertical-align:top;">user</td><td style="vertical-align:top;">:</td><td><div><table><tr><td style="font-weight:bold;vertical-align:top;">Idm</td><td style="vertical-align:top;">:</td><td><div>31298</div></td></tr><tr><td style="font-weight:bold;vertical-align:top;">email</td><td style="vertical-align:top;">:</td><td><div>call.jmail@gmail.com</div></td></tr><tr><td style="font-weight:bold;vertical-align:top;">first_name</td><td style="vertical-align:top;">:</td><td><div>Carlos</div></td></tr><tr><td style="font-weight:bold;vertical-align:top;">id</td><td style="vertical-align:top;">:</td><td><div>1L</div></td></tr><tr><td style="font-weight:bold;vertical-align:top;">last_name</td><td style="vertical-align:top;">:</td><td><div>A Locatelli J</div></td></tr><tr><td style="font-weight:bold;vertical-align:top;">registration_id</td><td style="vertical-align:top;">:</td><td><div></div></td></tr><tr><td style="font-weight:bold;vertical-align:top;">registration_key</td><td style="vertical-align:top;">:</td><td><div></div></td></tr><tr><td style="font-weight:bold;vertical-align:top;">reset_password_key</td><td style="vertical-align:top;">:</td><td><div>1545221277-fb37e2da-067c-4d28-9df5-845a7ba7366c</div></td></tr></table></div></td></tr><tr><td style="font-weight:bold;vertical-align:top;">user_groups</td><td style="vertical-align:top;">:</td><td><div><table></table></div></td></tr></table></div></td></tr><tr><td style="font-weight:bold;vertical-align:top;">counter</td><td style="vertical-align:top;">:</td><td><div>52</div></td></tr><tr><td style="font-weight:bold;vertical-align:top;">flash</td><td style="vertical-align:top;">:</td><td><div>None</div></td></tr><tr><td style="font-weight:bold;vertical-align:top;">last_orderby</td><td style="vertical-align:top;">:</td><td><div>None</div></td></tr><tr><td style="font-weight:bold;vertical-align:top;">last_query</td><td style="vertical-align:top;">:</td><td><div>dbentidades.ContasAgua.CodSemae==&#x27;115997&#x27;</div></td></tr><tr><td style="font-weight:bold;vertical-align:top;">selectgraf</td><td style="vertical-align:top;">:</td><td><div>None</div></td></tr><tr><td style="font-weight:bold;vertical-align:top;">slcAno</td><td style="vertical-align:top;">:</td><td><div>2018</div></td></tr></table></div>'
tRp314
sS'etype'
p315
S"<type 'exceptions.TypeError'>"
p316
sS'date'
p317
S'Wed Jan 30 08:38:51 2019'
p318
sS'response'
p319
g59
(S'sm?\x00\x00<div><table><tr><td style="font-weight:bold;vertical-align:top;">body</td><td style="vertical-align:top;">:</td><td><div>&lt;cStringIO.StringO object at 0x7fee743d2848&gt;</div></td></tr><tr><td style="font-weight:bold;vertical-align:top;">cookies</td><td style="vertical-align:top;">:</td><td><div><table><tr><td style="font-weight:bold;vertical-align:top;">session_id_meioambienterp</td><td style="vertical-align:top;">:</td><td><div>127.0.0.1-693c7aa4-8118-485f-b94b-7b223474860a<table><tr><td style="font-weight:bold;vertical-align:top;">comment</td><td style="vertical-align:top;">:</td><td><div></div></td></tr><tr><td style="font-weight:bold;vertical-align:top;">domain</td><td style="vertical-align:top;">:</td><td><div></div></td></tr><tr><td style="font-weight:bold;vertical-align:top;">expires</td><td style="vertical-align:top;">:</td><td><div></div></td></tr><tr><td style="font-weight:bold;vertical-align:top;">httponly</td><td style="vertical-align:top;">:</td><td><div></div></td></tr><tr><td style="font-weight:bold;vertical-align:top;">max-age</td><td style="vertical-align:top;">:</td><td><div></div></td></tr><tr><td style="font-weight:bold;vertical-align:top;">path</td><td style="vertical-align:top;">:</td><td><div>/</div></td></tr><tr><td style="font-weight:bold;vertical-align:top;">samesite</td><td style="vertical-align:top;">:</td><td><div></div></td></tr><tr><td style="font-weight:bold;vertical-align:top;">secure</td><td style="vertical-align:top;">:</td><td><div></div></td></tr><tr><td style="font-weight:bold;vertical-align:top;">version</td><td style="vertical-align:top;">:</td><td><div></div></td></tr></table></div></td></tr></table></div></td></tr><tr><td style="font-weight:bold;vertical-align:top;">delimiters</td><td style="vertical-align:top;">:</td><td><div><table><tr><td><div>{{</div></td></tr><tr><td><div>}}</div></td></tr></table></div></td></tr><tr><td style="font-weight:bold;vertical-align:top;">files</td><td style="vertical-align:top;">:</td><td><div><table></table></div></td></tr><tr><td style="font-weight:bold;vertical-align:top;">flash</td><td style="vertical-align:top;">:</td><td><div></div></td></tr><tr><td style="font-weight:bold;vertical-align:top;">form_label_separator</td><td style="vertical-align:top;">:</td><td><div></div></td></tr><tr><td style="font-weight:bold;vertical-align:top;">formstyle</td><td style="vertical-align:top;">:</td><td><div>bootstrap4_inline</div></td></tr><tr><td style="font-weight:bold;vertical-align:top;">generic_patterns</td><td style="vertical-align:top;">:</td><td><div><table><tr><td><div>*</div></td></tr></table></div></td></tr><tr><td style="font-weight:bold;vertical-align:top;">google_analytics_id</td><td style="vertical-align:top;">:</td><td><div>None</div></td></tr><tr><td style="font-weight:bold;vertical-align:top;">headers</td><td style="vertical-align:top;">:</td><td><div><table><tr><td style="font-weight:bold;vertical-align:top;">X-Powered-By</td><td style="vertical-align:top;">:</td><td><div>web2py</div></td></tr></table></div></td></tr><tr><td style="font-weight:bold;vertical-align:top;">menu</td><td style="vertical-align:top;">:</td><td><div><table><tr><td><div><table><tr><td><div>Principal</div></td></tr><tr><td><div>False</div></td></tr><tr><td><div>/MeioAmbienteRP/default/index</div></td></tr><tr><td><div><table></table></div></td></tr></table></div></td></tr><tr><td><div><table><tr><td><div>Meus sites</div></td></tr><tr><td><div>False</div></td></tr><tr><td><div>/admin/default/site</div></td></tr></table></div></td></tr><tr><td><div><table><tr><td><div>Esta aplica\xc3\xa7\xc3\xa3o</div></td></tr><tr><td><div>False</div></td></tr><tr><td><div>#</div></td></tr><tr><td><div><table><tr><td><div><table><tr><td><div>Design</div></td></tr><tr><td><div>False</div></td></tr><tr><td><div>/admin/default/design/MeioAmbienteRP</div></td></tr></table></div></td></tr><tr><td><div><table><tr><td><div>Controlador</div></td></tr><tr><td><div>False</div></td></tr><tr><td><div>/admin/default/edit/MeioAmbienteRP/controllers/default.py</div></td></tr></table></div></td></tr><tr><td><div><table><tr><td><div>Visualiza\xc3\xa7\xc3\xa3o</div></td></tr><tr><td><div>False</div></td></tr><tr><td><div>/admin/default/edit/MeioAmbienteRP/views/default/FConsultA3P.html</div></td></tr></table></div></td></tr><tr><td><div><table><tr><td><div>Modelo BD</div></td></tr><tr><td><div>False</div></td></tr><tr><td><div>/admin/default/edit/MeioAmbienteRP/models/db.py</div></td></tr></table></div></td></tr><tr><td><div><table><tr><td><div>Modelo de Menu</div></td></tr><tr><td><div>False</div></td></tr><tr><td><div>/admin/default/edit/MeioAmbienteRP/models/menu.py</div></td></tr></table></div></td></tr><tr><td><div><table><tr><td><div>Config.ini</div></td></tr><tr><td><div>False</div></td></tr><tr><td><div>/admin/default/edit/MeioAmbienteRP/private/appconfig.ini</div></td></tr></table></div></td></tr><tr><td><div><table><tr><td><div>Layout</div></td></tr><tr><td><div>False</div></td></tr><tr><td><div>/admin/default/edit/MeioAmbienteRP/views/layout.html</div></td></tr></table></div></td></tr><tr><td><div><table><tr><td><div>Folha de estilo</div></td></tr><tr><td><div>False</div></td></tr><tr><td><div>/admin/default/edit/MeioAmbienteRP/static/css/web2py-bootstrap3.css</div></td></tr></table></div></td></tr><tr><td><div><table><tr><td><div>banco de dados</div></td></tr><tr><td><div>False</div></td></tr><tr><td><div>/MeioAmbienteRP/appadmin/index</div></td></tr></table></div></td></tr><tr><td><div><table><tr><td><div>Erros</div></td></tr><tr><td><div>False</div></td></tr><tr><td><div>/admin/default/errors/MeioAmbienteRP</div></td></tr></table></div></td></tr><tr><td><div><table><tr><td><div>Sobre</div></td></tr><tr><td><div>False</div></td></tr><tr><td><div>/admin/default/about/MeioAmbienteRP</div></td></tr></table></div></td></tr></table></div></td></tr></table></div></td></tr><tr><td><div><table><tr><td><div>web2py.com</div></td></tr><tr><td><div>False</div></td></tr><tr><td><div>#</div></td></tr><tr><td><div><table><tr><td><div><table><tr><td><div>Download</div></td></tr><tr><td><div>False</div></td></tr><tr><td><div>http://www.web2py.com/examples/default/download</div></td></tr></table></div></td></tr><tr><td><div><table><tr><td><div>Suporte</div></td></tr><tr><td><div>False</div></td></tr><tr><td><div>http://www.web2py.com/examples/default/support</div></td></tr></table></div></td></tr><tr><td><div><table><tr><td><div>Demo</div></td></tr><tr><td><div>False</div></td></tr><tr><td><div>http://web2py.com/demo_admin</div></td></tr></table></div></td></tr><tr><td><div><table><tr><td><div>Exemplos r\xc3\xa1pidos</div></td></tr><tr><td><div>False</div></td></tr><tr><td><div>http://web2py.com/examples/default/examples</div></td></tr></table></div></td></tr><tr><td><div><table><tr><td><div>Perguntas frequentes</div></td></tr><tr><td><div>False</div></td></tr><tr><td><div>http://web2py.com/AlterEgo</div></td></tr></table></div></td></tr><tr><td><div><table><tr><td><div>V\xc3\xaddeos</div></td></tr><tr><td><div>False</div></td></tr><tr><td><div>http://www.web2py.com/examples/default/videos/</div></td></tr></table></div></td></tr><tr><td><div><table><tr><td><div>Aplica\xc3\xa7\xc3\xb5es gratuitas</div></td></tr><tr><td><div>False</div></td></tr><tr><td><div>http://web2py.com/appliances</div></td></tr></table></div></td></tr><tr><td><div><table><tr><td><div>Plugins</div></td></tr><tr><td><div>False</div></td></tr><tr><td><div>http://web2py.com/plugins</div></td></tr></table></div></td></tr><tr><td><div><table><tr><td><div>Receitas</div></td></tr><tr><td><div>False</div></td></tr><tr><td><div>http://web2pyslices.com/</div></td></tr></table></div></td></tr></table></div></td></tr></table></div></td></tr><tr><td><div><table><tr><td><div>Documenta\xc3\xa7\xc3\xa3o</div></td></tr><tr><td><div>False</div></td></tr><tr><td><div>#</div></td></tr><tr><td><div><table><tr><td><div><table><tr><td><div>Online book</div></td></tr><tr><td><div>False</div></td></tr><tr><td><div>http://www.web2py.com/book</div></td></tr></table></div></td></tr><tr><td><div><table><tr><td><div>Pref\xc3\xa1cio</div></td></tr><tr><td><div>False</div></td></tr><tr><td><div>http://www.web2py.com/book/default/chapter/00</div></td></tr></table></div></td></tr><tr><td><div><table><tr><td><div>Introdu\xc3\xa7\xc3\xa3o</div></td></tr><tr><td><div>False</div></td></tr><tr><td><div>http://www.web2py.com/book/default/chapter/01</div></td></tr></table></div></td></tr><tr><td><div><table><tr><td><div>Python</div></td></tr><tr><td><div>False</div></td></tr><tr><td><div>http://www.web2py.com/book/default/chapter/02</div></td></tr></table></div></td></tr><tr><td><div><table><tr><td><div>Vis\xc3\xa3o Geral</div></td></tr><tr><td><div>False</div></td></tr><tr><td><div>http://www.web2py.com/book/default/chapter/03</div></td></tr></table></div></td></tr><tr><td><div><table><tr><td><div>O Motor</div></td></tr><tr><td><div>False</div></td></tr><tr><td><div>http://www.web2py.com/book/default/chapter/04</div></td></tr></table></div></td></tr><tr><td><div><table><tr><td><div>As views</div></td></tr><tr><td><div>False</div></td></tr><tr><td><div>http://www.web2py.com/book/default/chapter/05</div></td></tr></table></div></td></tr><tr><td><div><table><tr><td><div>banco de dados</div></td></tr><tr><td><div>False</div></td></tr><tr><td><div>http://www.web2py.com/book/default/chapter/06</div></td></tr></table></div></td></tr><tr><td><div><table><tr><td><div>Formul\xc3\xa1rios e Validadores</div></td></tr><tr><td><div>False</div></td></tr><tr><td><div>http://www.web2py.com/book/default/chapter/07</div></td></tr></table></div></td></tr><tr><td><div><table><tr><td><div>Email e SMS</div></td></tr><tr><td><div>False</div></td></tr><tr><td><div>http://www.web2py.com/book/default/chapter/08</div></td></tr></table></div></td></tr><tr><td><div><table><tr><td><div>Controle de Acesso</div></td></tr><tr><td><div>False</div></td></tr><tr><td><div>http://www.web2py.com/book/default/chapter/09</div></td></tr></table></div></td></tr><tr><td><div><table><tr><td><div>Servi\xc3\xa7o</div></td></tr><tr><td><div>False</div></td></tr><tr><td><div>http://www.web2py.com/book/default/chapter/10</div></td></tr></table></div></td></tr><tr><td><div><table><tr><td><div>Receitas de Ajax</div></td></tr><tr><td><div>False</div></td></tr><tr><td><div>http://www.web2py.com/book/default/chapter/11</div></td></tr></table></div></td></tr><tr><td><div><table><tr><td><div>Componentes e Plugins</div></td></tr><tr><td><div>False</div></td></tr><tr><td><div>http://www.web2py.com/book/default/chapter/12</div></td></tr></table></div></td></tr><tr><td><div><table><tr><td><div>Receitas de deploy</div></td></tr><tr><td><div>False</div></td></tr><tr><td><div>http://www.web2py.com/book/default/chapter/13</div></td></tr></table></div></td></tr><tr><td><div><table><tr><td><div>Outras Receitas</div></td></tr><tr><td><div>False</div></td></tr><tr><td><div>http://www.web2py.com/book/default/chapter/14</div></td></tr></table></div></td></tr><tr><td><div><table><tr><td><div>Ajudar o web2py</div></td></tr><tr><td><div>False</div></td></tr><tr><td><div>http://www.web2py.com/book/default/chapter/15</div></td></tr></table></div></td></tr><tr><td><div><table><tr><td><div>Compre o livro do web2py</div></td></tr><tr><td><div>False</div></td></tr><tr><td><div>http://stores.lulu.com/web2py</div></td></tr></table></div></td></tr></table></div></td></tr></table></div></td></tr><tr><td><div><table><tr><td><div>Comunidade</div></td></tr><tr><td><div>False</div></td></tr><tr><td><div>None</div></td></tr><tr><td><div><table><tr><td><div><table><tr><td><div>Grupos</div></td></tr><tr><td><div>False</div></td></tr><tr><td><div>http://www.web2py.com/examples/default/usergroups</div></td></tr></table></div></td></tr><tr><td><div><table><tr><td><div>Twitter</div></td></tr><tr><td><div>False</div></td></tr><tr><td><div>http://twitter.com/web2py</div></td></tr></table></div></td></tr><tr><td><div><table><tr><td><div>Chat ao vivo</div></td></tr><tr><td><div>False</div></td></tr><tr><td><div>http://webchat.freenode.net/?channels=web2py</div></td></tr></table></div></td></tr></table></div></td></tr></table></div></td></tr></table></div></td></tr><tr><td style="font-weight:bold;vertical-align:top;">meta</td><td style="vertical-align:top;">:</td><td><div><table><tr><td style="font-weight:bold;vertical-align:top;">author</td><td style="vertical-align:top;">:</td><td><div>Carlos A Locatelli Jr &lt;call.jmail@gmail.com&gt;</div></td></tr><tr><td style="font-weight:bold;vertical-align:top;">description</td><td style="vertical-align:top;">:</td><td><div>Sistema Python Web2py e Banco Mysql Desenvolvido para gest\xc3\xa3o da SMAURB</div></td></tr><tr><td style="font-weight:bold;vertical-align:top;">generator</td><td style="vertical-align:top;">:</td><td><div>Web2py Web Framework</div></td></tr><tr><td style="font-weight:bold;vertical-align:top;">keywords</td><td style="vertical-align:top;">:</td><td><div><table><tr><td><div>web2py</div></td></tr><tr><td><div>python</div></td></tr><tr><td><div>framework</div></td></tr></table></div></td></tr></table></div></td></tr><tr><td style="font-weight:bold;vertical-align:top;">models_to_run</td><td style="vertical-align:top;">:</td><td><div><table><tr><td><div>^\\w+\\.py$</div></td></tr><tr><td><div>^default/\\w+\\.py$</div></td></tr><tr><td><div>^default/FConsultA3P/\\w+\\.py$</div></td></tr></table></div></td></tr><tr><td style="font-weight:bold;vertical-align:top;">postprocessing</td><td style="vertical-align:top;">:</td><td><div><table></table></div></td></tr><tr><td style="font-weight:bold;vertical-align:top;">session_client</td><td style="vertical-align:top;">:</td><td><div>127.0.0.1</div></td></tr><tr><td style="font-weight:bold;vertical-align:top;">session_cookie_compression_level</td><td style="vertical-align:top;">:</td><td><div>None</div></td></tr><tr><td style="font-weight:bold;vertical-align:top;">session_cookie_expires</td><td style="vertical-align:top;">:</td><td><div>2592000</div></td></tr><tr><td style="font-weight:bold;vertical-align:top;">session_data_name</td><td style="vertical-align:top;">:</td><td><div>session_data_meioambienterp</div></td></tr><tr><td style="font-weight:bold;vertical-align:top;">session_file</td><td style="vertical-align:top;">:</td><td><div>&lt;open file &#x27;/home/smmau/Downloads/Programador/web2py/applications/MeioAmbienteRP/sessions/1f2/1b3/127.0.0.1-693c7aa4-8118-485f-b94b-7b223474860a&#x27;, mode &#x27;rb+&#x27; at 0x7fee546f2a50&gt;</div></td></tr><tr><td style="font-weight:bold;vertical-align:top;">session_filename</td><td style="vertical-align:top;">:</td><td><div>/home/smmau/Downloads/Programador/web2py/applications/MeioAmbienteRP/sessions/127.0.0.1-693c7aa4-8118-485f-b94b-7b223474860a</div></td></tr><tr><td style="font-weight:bold;vertical-align:top;">session_hash</td><td style="vertical-align:top;">:</td><td><div>9d0336dcc899a783dc2b6f9c6f532ffd</div></td></tr><tr><td style="font-weight:bold;vertical-align:top;">session_id</td><td style="vertical-align:top;">:</td><td><div>127.0.0.1-693c7aa4-8118-485f-b94b-7b223474860a</div></td></tr><tr><td style="font-weight:bold;vertical-align:top;">session_id_name</td><td style="vertical-align:top;">:</td><td><div>session_id_meioambienterp</div></td></tr><tr><td style="font-weight:bold;vertical-align:top;">session_locked</td><td style="vertical-align:top;">:</td><td><div>True</div></td></tr><tr><td style="font-weight:bold;vertical-align:top;">session_masterapp</td><td style="vertical-align:top;">:</td><td><div>MeioAmbienteRP</div></td></tr><tr><td style="font-weight:bold;vertical-align:top;">session_new</td><td style="vertical-align:top;">:</td><td><div>False</div></td></tr><tr><td style="font-weight:bold;vertical-align:top;">session_storage_type</td><td style="vertical-align:top;">:</td><td><div>file</div></td></tr><tr><td style="font-weight:bold;vertical-align:top;">show_toolbar</td><td style="vertical-align:top;">:</td><td><div>False</div></td></tr><tr><td style="font-weight:bold;vertical-align:top;">status</td><td style="vertical-align:top;">:</td><td><div>200</div></td></tr><tr><td style="font-weight:bold;vertical-align:top;">view</td><td style="vertical-align:top;">:</td><td><div>default/FConsultA3P.html</div></td></tr></table></div>'
tRp320
sS'locals'
p321
(dp322
S'fun'
p323
S'<function <lambda>>'
p324
sS'lock'
p325
S'<_RLock owner=None count=0>'
p326
sS'cache'
p327
S'({\'"update" is an optional expression like "field1=...You cannot update or delete the results of a JOIN\': \'"update" \\xc3\\xa9 uma express\\xc3\\xa3o opcional como "campo1...pode atualizar ou apagar os resultados de um JOIN\', \'%Y-%m-%d\': \'%d-%m-%Y\', \'%Y-%m-%d %H:%M:%S\': \'%d-%m-%Y %H:%M:%S\', \'%s selected\': \'%s selecionado\', \'@markmin\\x01An error occured, please [[reload %s]] the page\': \'Ocorreu um erro, por favor <a href="%s">reload</a> a p\\xc3\\xa1gina\', \'About\': \'Sobre\', \'Access Control\': \'Controle de Acesso\', \'Ajax Recipes\': \'Receitas de Ajax\', \'Are you sure you want to delete this object?\': \'Voc\\xc3\\xaa tem certeza que quer apagar este objeto?\', "Buy web2py\'s book": \'Compre o livro do web2py\', ...}, <_RLock owner=None count=0>)'
p328
sS'lang_dict'
p329
S'{\'"update" is an optional expression like "field1=...You cannot update or delete the results of a JOIN\': \'"update" \\xc3\\xa9 uma express\\xc3\\xa3o opcional como "campo1...pode atualizar ou apagar os resultados de um JOIN\', \'%Y-%m-%d\': \'%d-%m-%Y\', \'%Y-%m-%d %H:%M:%S\': \'%d-%m-%Y %H:%M:%S\', \'%s selected\': \'%s selecionado\', \'@markmin\\x01An error occured, please [[reload %s]] the page\': \'Ocorreu um erro, por favor <a href="%s">reload</a> a p\\xc3\\xa1gina\', \'About\': \'Sobre\', \'Access Control\': \'Controle de Acesso\', \'Ajax Recipes\': \'Receitas de Ajax\', \'Are you sure you want to delete this object?\': \'Voc\\xc3\\xaa tem certeza que quer apagar este objeto?\', "Buy web2py\'s book": \'Compre o livro do web2py\', ...}'
p330
sS'val'
p331
S'[<gluon.html.INPUT object>, <gluon.html.__tag_div__ object>, <gluon.html.A object>, <gluon.html.A object>]'
p332
sssS'traceback'
p333
S'Traceback (most recent call last):\n  File "/home/smmau/Downloads/Programador/web2py/gluon/restricted.py", line 219, in restricted\n    exec(ccode, environment)\n  File "/home/smmau/Downloads/Programador/web2py/applications/MeioAmbienteRP/controllers/default.py", line 106, in <module>\n  File "/home/smmau/Downloads/Programador/web2py/gluon/globals.py", line 421, in <lambda>\n    self._caller = lambda f: f()\n  File "/home/smmau/Downloads/Programador/web2py/gluon/tools.py", line 3867, in f\n    return action(*a, **b)\n  File "/home/smmau/Downloads/Programador/web2py/applications/MeioAmbienteRP/controllers/default.py", line 24, in FConsultA3P\n    A("Recursos", _class=\'btn btn-primary btn-lg\', _href=URL(\'graficos\',\'plotA3P\'))]\n  File "/home/smmau/Downloads/Programador/web2py/gluon/sqlhtml.py", line 2041, in factory\n    return SQLFORM(dummy_dal.define_table(table_name, *fields_with_clones), **attributes)\n  File "/home/smmau/Downloads/Programador/web2py/gluon/sqlhtml.py", line 1609, in __init__\n    _value=T(submit_button))\n  File "/home/smmau/Downloads/Programador/web2py/gluon/html.py", line 724, in __init__\n    self._postprocessing()\n  File "/home/smmau/Downloads/Programador/web2py/gluon/html.py", line 1890, in _postprocessing\n    _value = str(self[\'_value\'])\n  File "/home/smmau/Downloads/Programador/web2py/gluon/languages.py", line 391, in __str__\n    self.T.translate(self.m, self.s))\n  File "/home/smmau/Downloads/Programador/web2py/gluon/languages.py", line 995, in translate\n    lambda: self.get_t(message))\n  File "/home/smmau/Downloads/Programador/web2py/gluon/languages.py", line 144, in get_from_cache\n    result = lang_dict.get(val)\nTypeError: unhashable type: \'list\'\n'
p334
s.