(dp1
S'output'
p2
S'<class \'_mysql_exceptions.OperationalError\'> (1054, "Unknown column \'auth_user.CPF\' in \'field list\'")'
p3
sS'layer'
p4
S'/home/smmau/Downloads/Programador/web2py/applications/MeioAmbienteRP/controllers/default.py'
p5
sS'code'
p6
S'<code object <module> at 0x7f4b600d5530, file "/home/smmau/Downloads/Programador/web2py/applications/MeioAmbienteRP/controllers/default.py", line 8>'
p7
sS'snapshot'
p8
(dp9
sS'traceback'
p10
S'Traceback (most recent call last):\n  File "/home/smmau/Downloads/Programador/web2py/gluon/restricted.py", line 219, in restricted\n    exec(ccode, environment)\n  File "/home/smmau/Downloads/Programador/web2py/applications/MeioAmbienteRP/controllers/default.py", line 111, in <module>\n  File "/home/smmau/Downloads/Programador/web2py/gluon/globals.py", line 421, in <lambda>\n    self._caller = lambda f: f()\n  File "/home/smmau/Downloads/Programador/web2py/applications/MeioAmbienteRP/controllers/default.py", line 100, in user\n    return dict(form=auth())\n  File "/home/smmau/Downloads/Programador/web2py/gluon/tools.py", line 1800, in __call__\n    return getattr(self, args[0])()\n  File "/home/smmau/Downloads/Programador/web2py/gluon/tools.py", line 2585, in login\n    user = table_user(**{username: entered_username})\n  File "/home/smmau/Downloads/Programador/web2py/gluon/packages/dal/pydal/objects.py", line 596, in __call__\n    orderby_on_limitby=False).first()\n  File "/home/smmau/Downloads/Programador/web2py/gluon/packages/dal/pydal/objects.py", line 2275, in select\n    return adapter.select(self.query, fields, attributes)\n  File "/home/smmau/Downloads/Programador/web2py/gluon/packages/dal/pydal/adapters/base.py", line 763, in select\n    return self._select_aux(sql, fields, attributes, colnames)\n  File "/home/smmau/Downloads/Programador/web2py/gluon/packages/dal/pydal/adapters/base.py", line 719, in _select_aux\n    rows = self._select_aux_execute(sql)\n  File "/home/smmau/Downloads/Programador/web2py/gluon/packages/dal/pydal/adapters/base.py", line 713, in _select_aux_execute\n    self.execute(sql)\n  File "/home/smmau/Downloads/Programador/web2py/gluon/packages/dal/pydal/adapters/__init__.py", line 67, in wrap\n    return f(*args, **kwargs)\n  File "/home/smmau/Downloads/Programador/web2py/gluon/packages/dal/pydal/adapters/base.py", line 413, in execute\n    rv = self.cursor.execute(command, *args[1:], **kwargs)\n  File "/usr/lib/python2.7/dist-packages/MySQLdb/cursors.py", line 250, in execute\n    self.errorhandler(self, exc, value)\n  File "/usr/lib/python2.7/dist-packages/MySQLdb/connections.py", line 50, in defaulterrorhandler\n    raise errorvalue\nOperationalError: (1054, "Unknown column \'auth_user.CPF\' in \'field list\'")\n'
p11
s.