(dp1
S'output'
p2
S"<type 'exceptions.SyntaxError'> Adapter not found for dbentidades"
p3
sS'layer'
p4
S'/home/smmau/Downloads/Programador/web2py/applications/MeioAmbienteRP/models/db.py'
p5
sS'code'
p6
S'<code object <module> at 0x7faf7d4e6730, file "/home/smmau/Downloads/Programador/web2py/applications/MeioAmbienteRP/models/db.py", line 7>'
p7
sS'snapshot'
p8
(dp9
sS'traceback'
p10
S'Traceback (most recent call last):\n  File "/home/smmau/Downloads/Programador/web2py/gluon/restricted.py", line 219, in restricted\n    exec(ccode, environment)\n  File "/home/smmau/Downloads/Programador/web2py/applications/MeioAmbienteRP/models/db.py", line 38, in <module>\n    check_reserved=[\'all\'])\n  File "/home/smmau/Downloads/Programador/web2py/gluon/packages/dal/pydal/base.py", line 170, in __call__\n    obj = super(MetaDAL, cls).__call__(*args, **kwargs)\n  File "/home/smmau/Downloads/Programador/web2py/gluon/packages/dal/pydal/base.py", line 454, in __init__\n    adapter = adapters.get_for(self._dbname)\n  File "/home/smmau/Downloads/Programador/web2py/gluon/packages/dal/pydal/adapters/__init__.py", line 20, in get_for\n    \'Adapter not found for %s\' % uri\nSyntaxError: Adapter not found for dbentidades\n'
p11
s.