(dp1
S'output'
p2
S'<class \'_mysql_exceptions.ProgrammingError\'> (1146, "Table \'Tconect.Tags\' doesn\'t exist")'
p3
sS'layer'
p4
S'/home/smmau/Downloads/Programador/web2py/applications/MeioAmbienteRP/controllers/appadmin.py'
p5
sS'code'
p6
S'<code object <module> at 0x7fbd26693330, file "/home/smmau/Downloads/Programador/web2py/applications/MeioAmbienteRP/controllers/appadmin.py", line 7>'
p7
sS'snapshot'
p8
(dp9
sS'traceback'
p10
S'Traceback (most recent call last):\n  File "/home/smmau/Downloads/Programador/web2py/gluon/restricted.py", line 219, in restricted\n    exec(ccode, environment)\n  File "/home/smmau/Downloads/Programador/web2py/applications/MeioAmbienteRP/controllers/appadmin.py", line 695, in <module>\n  File "/home/smmau/Downloads/Programador/web2py/gluon/globals.py", line 421, in <lambda>\n    self._caller = lambda f: f()\n  File "/home/smmau/Downloads/Programador/web2py/applications/MeioAmbienteRP/controllers/appadmin.py", line 146, in insert\n    form = SQLFORM(db[table], ignore_rw=ignore_rw)\n  File "/home/smmau/Downloads/Programador/web2py/gluon/sqlhtml.py", line 1525, in __init__\n    inp = self.widgets.multiple.widget(field, default)\n  File "/home/smmau/Downloads/Programador/web2py/gluon/sqlhtml.py", line 374, in widget\n    return OptionsWidget.widget(field, value, **attributes)\n  File "/home/smmau/Downloads/Programador/web2py/gluon/sqlhtml.py", line 325, in widget\n    options = requires[0].options()\n  File "/home/smmau/Downloads/Programador/web2py/gluon/validators.py", line 2795, in _options\n    options = self.other.options(*args, **kwargs)\n  File "/home/smmau/Downloads/Programador/web2py/gluon/validators.py", line 601, in options\n    self.build_set()\n  File "/home/smmau/Downloads/Programador/web2py/gluon/validators.py", line 587, in build_set\n    records = self.dbset(table).select(*fields, **dd)\n  File "/home/smmau/Downloads/Programador/web2py/gluon/packages/dal/pydal/objects.py", line 2275, in select\n    return adapter.select(self.query, fields, attributes)\n  File "/home/smmau/Downloads/Programador/web2py/gluon/packages/dal/pydal/adapters/base.py", line 763, in select\n    return self._select_aux(sql, fields, attributes, colnames)\n  File "/home/smmau/Downloads/Programador/web2py/gluon/packages/dal/pydal/adapters/base.py", line 719, in _select_aux\n    rows = self._select_aux_execute(sql)\n  File "/home/smmau/Downloads/Programador/web2py/gluon/packages/dal/pydal/adapters/base.py", line 713, in _select_aux_execute\n    self.execute(sql)\n  File "/home/smmau/Downloads/Programador/web2py/gluon/packages/dal/pydal/adapters/__init__.py", line 67, in wrap\n    return f(*args, **kwargs)\n  File "/home/smmau/Downloads/Programador/web2py/gluon/packages/dal/pydal/adapters/base.py", line 413, in execute\n    rv = self.cursor.execute(command, *args[1:], **kwargs)\n  File "/usr/lib/python2.7/dist-packages/MySQLdb/cursors.py", line 250, in execute\n    self.errorhandler(self, exc, value)\n  File "/usr/lib/python2.7/dist-packages/MySQLdb/connections.py", line 50, in defaulterrorhandler\n    raise errorvalue\nProgrammingError: (1146, "Table \'Tconect.Tags\' doesn\'t exist")\n'
p11
s.