(dp1
S'output'
p2
S"<type 'exceptions.AttributeError'> 'DAL' object has no attribute 'dbpessoas'"
p3
sS'layer'
p4
S'/home/smmau/Downloads/Programador/web2py/applications/MeioAmbienteRP/controllers/appadmin.py'
p5
sS'code'
p6
S'<code object <module> at 0x7f8c582677b0, file "/home/smmau/Downloads/Programador/web2py/applications/MeioAmbienteRP/controllers/appadmin.py", line 7>'
p7
sS'snapshot'
p8
(dp9
S'exception'
p10
(dp11
S'__getslice__'
p12
S"<method-wrapper '__getslice__' of exceptions.AttributeError object>"
p13
sS'__str__'
p14
S"<method-wrapper '__str__' of exceptions.AttributeError object>"
p15
sS'__reduce__'
p16
S'<built-in method __reduce__ of exceptions.AttributeError object>'
p17
sS'__dict__'
p18
S'{}'
p19
sS'message'
p20
S'"\'DAL\' object has no attribute \'dbpessoas\'"'
p21
sS'__sizeof__'
p22
S'<built-in method __sizeof__ of exceptions.AttributeError object>'
p23
sS'__init__'
p24
S"<method-wrapper '__init__' of exceptions.AttributeError object>"
p25
sS'__setattr__'
p26
S"<method-wrapper '__setattr__' of exceptions.AttributeError object>"
p27
sS'__reduce_ex__'
p28
S'<built-in method __reduce_ex__ of exceptions.AttributeError object>'
p29
sS'__new__'
p30
S'<built-in method __new__ of type object>'
p31
sS'__format__'
p32
S'<built-in method __format__ of exceptions.AttributeError object>'
p33
sS'__class__'
p34
S"<type 'exceptions.AttributeError'>"
p35
sS'__doc__'
p36
S"'Attribute not found.'"
p37
sS'__getitem__'
p38
S"<method-wrapper '__getitem__' of exceptions.AttributeError object>"
p39
sS'__setstate__'
p40
S'<built-in method __setstate__ of exceptions.AttributeError object>'
p41
sS'__getattribute__'
p42
S"<method-wrapper '__getattribute__' of exceptions.AttributeError object>"
p43
sS'args'
p44
S'("\'DAL\' object has no attribute \'dbpessoas\'",)'
p45
sS'__subclasshook__'
p46
S'<built-in method __subclasshook__ of type object>'
p47
sS'__unicode__'
p48
S'<built-in method __unicode__ of exceptions.AttributeError object>'
p49
sS'__delattr__'
p50
S"<method-wrapper '__delattr__' of exceptions.AttributeError object>"
p51
sS'__repr__'
p52
S"<method-wrapper '__repr__' of exceptions.AttributeError object>"
p53
sS'__hash__'
p54
S"<method-wrapper '__hash__' of exceptions.AttributeError object>"
p55
ssS'evalue'
p56
S"'DAL' object has no attribute 'dbpessoas'"
p57
sS'request'
p58
cgluon.html
XML_unpickle
p59
(S's`m\x00\x00<div><table><tr><td style="font-weight:bold;vertical-align:top;">ajax</td><td style="vertical-align:top;">:</td><td><div>False</div></td></tr><tr><td style="font-weight:bold;vertical-align:top;">application</td><td style="vertical-align:top;">:</td><td><div>MeioAmbienteRP</div></td></tr><tr><td style="font-weight:bold;vertical-align:top;">args</td><td style="vertical-align:top;">:</td><td><div><table><tr><td><div>dbdocumentos</div></td></tr><tr><td><div>ControleRetirada</div></td></tr></table></div></td></tr><tr><td style="font-weight:bold;vertical-align:top;">cid</td><td style="vertical-align:top;">:</td><td><div>None</div></td></tr><tr><td style="font-weight:bold;vertical-align:top;">client</td><td style="vertical-align:top;">:</td><td><div>127.0.0.1</div></td></tr><tr><td style="font-weight:bold;vertical-align:top;">controller</td><td style="vertical-align:top;">:</td><td><div>appadmin</div></td></tr><tr><td style="font-weight:bold;vertical-align:top;">cookies</td><td style="vertical-align:top;">:</td><td><div><table><tr><td style="font-weight:bold;vertical-align:top;">session_id_admin</td><td style="vertical-align:top;">:</td><td><div>127.0.0.1-cd79f4bf-43c4-4675-90de-3482d900f35c<table><tr><td style="font-weight:bold;vertical-align:top;">comment</td><td style="vertical-align:top;">:</td><td><div></div></td></tr><tr><td style="font-weight:bold;vertical-align:top;">domain</td><td style="vertical-align:top;">:</td><td><div></div></td></tr><tr><td style="font-weight:bold;vertical-align:top;">expires</td><td style="vertical-align:top;">:</td><td><div></div></td></tr><tr><td style="font-weight:bold;vertical-align:top;">httponly</td><td style="vertical-align:top;">:</td><td><div></div></td></tr><tr><td style="font-weight:bold;vertical-align:top;">max-age</td><td style="vertical-align:top;">:</td><td><div></div></td></tr><tr><td style="font-weight:bold;vertical-align:top;">path</td><td style="vertical-align:top;">:</td><td><div></div></td></tr><tr><td style="font-weight:bold;vertical-align:top;">samesite</td><td style="vertical-align:top;">:</td><td><div></div></td></tr><tr><td style="font-weight:bold;vertical-align:top;">secure</td><td style="vertical-align:top;">:</td><td><div></div></td></tr><tr><td style="font-weight:bold;vertical-align:top;">version</td><td style="vertical-align:top;">:</td><td><div></div></td></tr></table></div></td></tr><tr><td style="font-weight:bold;vertical-align:top;">session_id_meioambienterp</td><td style="vertical-align:top;">:</td><td><div>127.0.0.1-693c7aa4-8118-485f-b94b-7b223474860a<table><tr><td style="font-weight:bold;vertical-align:top;">comment</td><td style="vertical-align:top;">:</td><td><div></div></td></tr><tr><td style="font-weight:bold;vertical-align:top;">domain</td><td style="vertical-align:top;">:</td><td><div></div></td></tr><tr><td style="font-weight:bold;vertical-align:top;">expires</td><td style="vertical-align:top;">:</td><td><div></div></td></tr><tr><td style="font-weight:bold;vertical-align:top;">httponly</td><td style="vertical-align:top;">:</td><td><div></div></td></tr><tr><td style="font-weight:bold;vertical-align:top;">max-age</td><td style="vertical-align:top;">:</td><td><div></div></td></tr><tr><td style="font-weight:bold;vertical-align:top;">path</td><td style="vertical-align:top;">:</td><td><div></div></td></tr><tr><td style="font-weight:bold;vertical-align:top;">samesite</td><td style="vertical-align:top;">:</td><td><div></div></td></tr><tr><td style="font-weight:bold;vertical-align:top;">secure</td><td style="vertical-align:top;">:</td><td><div></div></td></tr><tr><td style="font-weight:bold;vertical-align:top;">version</td><td style="vertical-align:top;">:</td><td><div></div></td></tr></table></div></td></tr><tr><td style="font-weight:bold;vertical-align:top;">session_id_pm_sjrp</td><td style="vertical-align:top;">:</td><td><div>127.0.0.1-b5d8d59d-2fc2-4638-b664-b236727d82b2<table><tr><td style="font-weight:bold;vertical-align:top;">comment</td><td style="vertical-align:top;">:</td><td><div></div></td></tr><tr><td style="font-weight:bold;vertical-align:top;">domain</td><td style="vertical-align:top;">:</td><td><div></div></td></tr><tr><td style="font-weight:bold;vertical-align:top;">expires</td><td style="vertical-align:top;">:</td><td><div></div></td></tr><tr><td style="font-weight:bold;vertical-align:top;">httponly</td><td style="vertical-align:top;">:</td><td><div></div></td></tr><tr><td style="font-weight:bold;vertical-align:top;">max-age</td><td style="vertical-align:top;">:</td><td><div></div></td></tr><tr><td style="font-weight:bold;vertical-align:top;">path</td><td style="vertical-align:top;">:</td><td><div></div></td></tr><tr><td style="font-weight:bold;vertical-align:top;">samesite</td><td style="vertical-align:top;">:</td><td><div></div></td></tr><tr><td style="font-weight:bold;vertical-align:top;">secure</td><td style="vertical-align:top;">:</td><td><div></div></td></tr><tr><td style="font-weight:bold;vertical-align:top;">version</td><td style="vertical-align:top;">:</td><td><div></div></td></tr></table></div></td></tr><tr><td style="font-weight:bold;vertical-align:top;">session_id_welcome</td><td style="vertical-align:top;">:</td><td><div>127.0.0.1-ef404ac4-e5d9-48c6-b63d-efc3250f8311<table><tr><td style="font-weight:bold;vertical-align:top;">comment</td><td style="vertical-align:top;">:</td><td><div></div></td></tr><tr><td style="font-weight:bold;vertical-align:top;">domain</td><td style="vertical-align:top;">:</td><td><div></div></td></tr><tr><td style="font-weight:bold;vertical-align:top;">expires</td><td style="vertical-align:top;">:</td><td><div></div></td></tr><tr><td style="font-weight:bold;vertical-align:top;">httponly</td><td style="vertical-align:top;">:</td><td><div></div></td></tr><tr><td style="font-weight:bold;vertical-align:top;">max-age</td><td style="vertical-align:top;">:</td><td><div></div></td></tr><tr><td style="font-weight:bold;vertical-align:top;">path</td><td style="vertical-align:top;">:</td><td><div></div></td></tr><tr><td style="font-weight:bold;vertical-align:top;">samesite</td><td style="vertical-align:top;">:</td><td><div></div></td></tr><tr><td style="font-weight:bold;vertical-align:top;">secure</td><td style="vertical-align:top;">:</td><td><div></div></td></tr><tr><td style="font-weight:bold;vertical-align:top;">version</td><td style="vertical-align:top;">:</td><td><div></div></td></tr></table></div></td></tr></table></div></td></tr><tr><td style="font-weight:bold;vertical-align:top;">env</td><td style="vertical-align:top;">:</td><td><div><table><tr><td style="font-weight:bold;vertical-align:top;">CONTENT_LENGTH</td><td style="vertical-align:top;">:</td><td><div>1041</div></td></tr><tr><td style="font-weight:bold;vertical-align:top;">CONTENT_TYPE</td><td style="vertical-align:top;">:</td><td><div>multipart/form-data; boundary=---------------------------1014307751282752026830914386</div></td></tr><tr><td style="font-weight:bold;vertical-align:top;">HTTP_ACCEPT</td><td style="vertical-align:top;">:</td><td><div>text/html,application/xhtml+xml,application/xml;q=0.9,*/*;q=0.8</div></td></tr><tr><td style="font-weight:bold;vertical-align:top;">HTTP_ACCEPT_ENCODING</td><td style="vertical-align:top;">:</td><td><div>gzip, deflate</div></td></tr><tr><td style="font-weight:bold;vertical-align:top;">HTTP_ACCEPT_LANGUAGE</td><td style="vertical-align:top;">:</td><td><div>pt-BR,pt;q=0.8,en-US;q=0.5,en;q=0.3</div></td></tr><tr><td style="font-weight:bold;vertical-align:top;">HTTP_CONNECTION</td><td style="vertical-align:top;">:</td><td><div>keep-alive</div></td></tr><tr><td style="font-weight:bold;vertical-align:top;">HTTP_CONTENT_LENGTH</td><td style="vertical-align:top;">:</td><td><div>1041</div></td></tr><tr><td style="font-weight:bold;vertical-align:top;">HTTP_CONTENT_TYPE</td><td style="vertical-align:top;">:</td><td><div>multipart/form-data; boundary=---------------------------1014307751282752026830914386</div></td></tr><tr><td style="font-weight:bold;vertical-align:top;">HTTP_COOKIE</td><td style="vertical-align:top;">:</td><td><div>session_id_meioambienterp=127.0.0.1-693c7aa4-8118-485f-b94b-7b223474860a; session_id_admin=127.0.0.1-cd79f4bf-43c4-4675-90de-3482d900f35c; session_id_pm_sjrp=127.0.0.1-b5d8d59d-2fc2-4638-b664-b236727d82b2; session_id_welcome=127.0.0.1-ef404ac4-e5d9-48c6-b63d-efc3250f8311</div></td></tr><tr><td style="font-weight:bold;vertical-align:top;">HTTP_DNT</td><td style="vertical-align:top;">:</td><td><div>1</div></td></tr><tr><td style="font-weight:bold;vertical-align:top;">HTTP_HOST</td><td style="vertical-align:top;">:</td><td><div>127.0.0.1:8000</div></td></tr><tr><td style="font-weight:bold;vertical-align:top;">HTTP_REFERER</td><td style="vertical-align:top;">:</td><td><div>http://127.0.0.1:8000/MeioAmbienteRP/appadmin/insert/dbdocumentos/ControleRetirada</div></td></tr><tr><td style="font-weight:bold;vertical-align:top;">HTTP_UPGRADE_INSECURE_REQUESTS</td><td style="vertical-align:top;">:</td><td><div>1</div></td></tr><tr><td style="font-weight:bold;vertical-align:top;">HTTP_USER_AGENT</td><td style="vertical-align:top;">:</td><td><div>Mozilla/5.0 (X11; Ubuntu; Linux x86_64; rv:64.0) Gecko/20100101 Firefox/64.0</div></td></tr><tr><td style="font-weight:bold;vertical-align:top;">PATH_INFO</td><td style="vertical-align:top;">:</td><td><div>/MeioAmbienteRP/appadmin/insert/dbdocumentos/ControleRetirada</div></td></tr><tr><td style="font-weight:bold;vertical-align:top;">QUERY_STRING</td><td style="vertical-align:top;">:</td><td><div></div></td></tr><tr><td style="font-weight:bold;vertical-align:top;">REMOTE_ADDR</td><td style="vertical-align:top;">:</td><td><div>127.0.0.1</div></td></tr><tr><td style="font-weight:bold;vertical-align:top;">REMOTE_PORT</td><td style="vertical-align:top;">:</td><td><div>50912</div></td></tr><tr><td style="font-weight:bold;vertical-align:top;">REQUEST_METHOD</td><td style="vertical-align:top;">:</td><td><div>POST</div></td></tr><tr><td style="font-weight:bold;vertical-align:top;">SCRIPT_NAME</td><td style="vertical-align:top;">:</td><td><div></div></td></tr><tr><td style="font-weight:bold;vertical-align:top;">SERVER_NAME</td><td style="vertical-align:top;">:</td><td><div>smmau-004-pc004</div></td></tr><tr><td style="font-weight:bold;vertical-align:top;">SERVER_PORT</td><td style="vertical-align:top;">:</td><td><div>8000</div></td></tr><tr><td style="font-weight:bold;vertical-align:top;">SERVER_PROTOCOL</td><td style="vertical-align:top;">:</td><td><div>HTTP/1.1</div></td></tr><tr><td style="font-weight:bold;vertical-align:top;">SERVER_SOFTWARE</td><td style="vertical-align:top;">:</td><td><div>Rocket 1.2.6</div></td></tr><tr><td style="font-weight:bold;vertical-align:top;">app_folders</td><td style="vertical-align:top;">:</td><td><div>set([&#x27;/home/smmau/Downloads/Programador/web2py/applications/admin/&#x27;, &#x27;/home/smmau/Downloads/Programador/web2py/applications/MeioAmbienteRP/&#x27;, &#x27;/home/smmau/Downloads/Programador/web2py/applications/welcome/&#x27;])</div></td></tr><tr><td style="font-weight:bold;vertical-align:top;">applications_parent</td><td style="vertical-align:top;">:</td><td><div>/home/smmau/Downloads/Programador/web2py</div></td></tr><tr><td style="font-weight:bold;vertical-align:top;">cmd_args</td><td style="vertical-align:top;">:</td><td><div><table></table></div></td></tr><tr><td style="font-weight:bold;vertical-align:top;">cmd_options</td><td style="vertical-align:top;">:</td><td><div>&lt;Values at 0x7f8c7b702c68: {&#x27;verbose&#x27;: False, &#x27;ip&#x27;: &#x27;127.0.0.1&#x27;, &#x27;debuglevel&#x27;: 30, &#x27;with_scheduler&#x27;: False, &#x27;shutdown_timeout&#x27;: 5, &#x27;taskbar&#x27;: False, &#x27;with_coverage&#x27;: False, &#x27;pid_filename&#x27;: &#x27;httpserver.pid&#x27;, &#x27;maxthreads&#x27;: None, &#x27;softcron&#x27;: False, &#x27;server_name&#x27;: &#x27;smmau-004-pc004&#x27;, &#x27;bpython&#x27;: False, &#x27;nogui&#x27;: False, &#x27;port&#x27;: 8000, &#x27;print_errors&#x27;: False, &#x27;extcron&#x27;: False, &#x27;runcron&#x27;: False, &#x27;run_system_tests&#x27;: False, &#x27;test&#x27;: None, &#x27;folder&#x27;: &#x27;/home/smmau/Downloads/Programador/web2py&#x27;, &#x27;config&#x27;: &#x27;&#x27;, &#x27;minthreads&#x27;: None, &#x27;shell&#x27;: None, &#x27;run&#x27;: &#x27;&#x27;, &#x27;log_filename&#x27;: &#x27;httpserver.log&#x27;, &#x27;profiler_dir&#x27;: None, &#x27;args&#x27;: [&#x27;&#x27;], &#x27;socket_timeout&#x27;: 5, &#x27;ssl_ca_certificate&#x27;: None, &#x27;scheduler&#x27;: None, &#x27;interfaces&#x27;: None, &#x27;ssl_private_key&#x27;: &#x27;&#x27;, &#x27;gae&#x27;: None, &#x27;password&#x27;: &#x27;******&#x27;, &#x27;request_queue_size&#x27;: 5, &#x27;ssl_certificate&#x27;: &#x27;&#x27;, &#x27;cronjob&#x27;: False, &#x27;numthreads&#x27;: None, &#x27;quiet&#x27;: False, &#x27;import_models&#x27;: False, &#x27;timeout&#x27;: 10, &#x27;plain&#x27;: False, &#x27;nobanner&#x27;: False}&gt;</div></td></tr><tr><td style="font-weight:bold;vertical-align:top;">content_length</td><td style="vertical-align:top;">:</td><td><div>1041</div></td></tr><tr><td style="font-weight:bold;vertical-align:top;">content_type</td><td style="vertical-align:top;">:</td><td><div>multipart/form-data; boundary=---------------------------1014307751282752026830914386</div></td></tr><tr><td style="font-weight:bold;vertical-align:top;">db_sessions</td><td style="vertical-align:top;">:</td><td><div>set([])</div></td></tr><tr><td style="font-weight:bold;vertical-align:top;">debugging</td><td style="vertical-align:top;">:</td><td><div>False</div></td></tr><tr><td style="font-weight:bold;vertical-align:top;">gluon_parent</td><td style="vertical-align:top;">:</td><td><div>/home/smmau/Downloads/Programador/web2py</div></td></tr><tr><td style="font-weight:bold;vertical-align:top;">http_accept</td><td style="vertical-align:top;">:</td><td><div>text/html,application/xhtml+xml,application/xml;q=0.9,*/*;q=0.8</div></td></tr><tr><td style="font-weight:bold;vertical-align:top;">http_accept_encoding</td><td style="vertical-align:top;">:</td><td><div>gzip, deflate</div></td></tr><tr><td style="font-weight:bold;vertical-align:top;">http_accept_language</td><td style="vertical-align:top;">:</td><td><div>pt-BR,pt;q=0.8,en-US;q=0.5,en;q=0.3</div></td></tr><tr><td style="font-weight:bold;vertical-align:top;">http_connection</td><td style="vertical-align:top;">:</td><td><div>keep-alive</div></td></tr><tr><td style="font-weight:bold;vertical-align:top;">http_content_length</td><td style="vertical-align:top;">:</td><td><div>1041</div></td></tr><tr><td style="font-weight:bold;vertical-align:top;">http_content_type</td><td style="vertical-align:top;">:</td><td><div>multipart/form-data; boundary=---------------------------1014307751282752026830914386</div></td></tr><tr><td style="font-weight:bold;vertical-align:top;">http_cookie</td><td style="vertical-align:top;">:</td><td><div>session_id_meioambienterp=127.0.0.1-693c7aa4-8118-485f-b94b-7b223474860a; session_id_admin=127.0.0.1-cd79f4bf-43c4-4675-90de-3482d900f35c; session_id_pm_sjrp=127.0.0.1-b5d8d59d-2fc2-4638-b664-b236727d82b2; session_id_welcome=127.0.0.1-ef404ac4-e5d9-48c6-b63d-efc3250f8311</div></td></tr><tr><td style="font-weight:bold;vertical-align:top;">http_dnt</td><td style="vertical-align:top;">:</td><td><div>1</div></td></tr><tr><td style="font-weight:bold;vertical-align:top;">http_host</td><td style="vertical-align:top;">:</td><td><div>127.0.0.1:8000</div></td></tr><tr><td style="font-weight:bold;vertical-align:top;">http_referer</td><td style="vertical-align:top;">:</td><td><div>http://127.0.0.1:8000/MeioAmbienteRP/appadmin/insert/dbdocumentos/ControleRetirada</div></td></tr><tr><td style="font-weight:bold;vertical-align:top;">http_upgrade_insecure_requests</td><td style="vertical-align:top;">:</td><td><div>1</div></td></tr><tr><td style="font-weight:bold;vertical-align:top;">http_user_agent</td><td style="vertical-align:top;">:</td><td><div>Mozilla/5.0 (X11; Ubuntu; Linux x86_64; rv:64.0) Gecko/20100101 Firefox/64.0</div></td></tr><tr><td style="font-weight:bold;vertical-align:top;">is_jython</td><td style="vertical-align:top;">:</td><td><div>False</div></td></tr><tr><td style="font-weight:bold;vertical-align:top;">is_py2</td><td style="vertical-align:top;">:</td><td><div>True</div></td></tr><tr><td style="font-weight:bold;vertical-align:top;">is_pypy</td><td style="vertical-align:top;">:</td><td><div>False</div></td></tr><tr><td style="font-weight:bold;vertical-align:top;">is_source</td><td style="vertical-align:top;">:</td><td><div>True</div></td></tr><tr><td style="font-weight:bold;vertical-align:top;">local_hosts</td><td style="vertical-align:top;">:</td><td><div><table><tr><td><div>smmau-004-pc004</div></td></tr><tr><td><div>::1</div></td></tr><tr><td><div>::ffff:127.0.0.1</div></td></tr><tr><td><div>127.0.0.1</div></td></tr><tr><td><div>smmau-004-pc004.REDE-EMPRO.empro.com.br</div></td></tr></table></div></td></tr><tr><td style="font-weight:bold;vertical-align:top;">path_info</td><td style="vertical-align:top;">:</td><td><div>/MeioAmbienteRP/appadmin/insert/dbdocumentos/ControleRetirada</div></td></tr><tr><td style="font-weight:bold;vertical-align:top;">query_string</td><td style="vertical-align:top;">:</td><td><div></div></td></tr><tr><td style="font-weight:bold;vertical-align:top;">remote_addr</td><td style="vertical-align:top;">:</td><td><div>127.0.0.1</div></td></tr><tr><td style="font-weight:bold;vertical-align:top;">remote_port</td><td style="vertical-align:top;">:</td><td><div>50912</div></td></tr><tr><td style="font-weight:bold;vertical-align:top;">request_method</td><td style="vertical-align:top;">:</td><td><div>POST</div></td></tr><tr><td style="font-weight:bold;vertical-align:top;">request_uri</td><td style="vertical-align:top;">:</td><td><div>/MeioAmbienteRP/appadmin/insert/dbdocumentos/ControleRetirada</div></td></tr><tr><td style="font-weight:bold;vertical-align:top;">script_name</td><td style="vertical-align:top;">:</td><td><div></div></td></tr><tr><td style="font-weight:bold;vertical-align:top;">server_name</td><td style="vertical-align:top;">:</td><td><div>smmau-004-pc004</div></td></tr><tr><td style="font-weight:bold;vertical-align:top;">server_port</td><td style="vertical-align:top;">:</td><td><div>8000</div></td></tr><tr><td style="font-weight:bold;vertical-align:top;">server_protocol</td><td style="vertical-align:top;">:</td><td><div>HTTP/1.1</div></td></tr><tr><td style="font-weight:bold;vertical-align:top;">server_software</td><td style="vertical-align:top;">:</td><td><div>Rocket 1.2.6</div></td></tr><tr><td style="font-weight:bold;vertical-align:top;">web2py_path</td><td style="vertical-align:top;">:</td><td><div>/home/smmau/Downloads/Programador/web2py</div></td></tr><tr><td style="font-weight:bold;vertical-align:top;">web2py_version</td><td style="vertical-align:top;">:</td><td><div>2.17.2-stable+timestamp.2018.10.06.18.54.02</div></td></tr><tr><td style="font-weight:bold;vertical-align:top;">wsgi.errors</td><td style="vertical-align:top;">:</td><td><div>&lt;open file &#x27;&lt;stderr&gt;&#x27;, mode &#x27;w&#x27; at 0x7f8c7de871e0&gt;</div></td></tr><tr><td style="font-weight:bold;vertical-align:top;">wsgi.file_wrapper</td><td style="vertical-align:top;">:</td><td><div>&lt;class wsgiref.util.FileWrapper at 0x7f8c77a57e20&gt;</div></td></tr><tr><td style="font-weight:bold;vertical-align:top;">wsgi.input</td><td style="vertical-align:top;">:</td><td><div>&lt;socket._fileobject object at 0x7f8c750b7650&gt;</div></td></tr><tr><td style="font-weight:bold;vertical-align:top;">wsgi.multiprocess</td><td style="vertical-align:top;">:</td><td><div>False</div></td></tr><tr><td style="font-weight:bold;vertical-align:top;">wsgi.multithread</td><td style="vertical-align:top;">:</td><td><div>True</div></td></tr><tr><td style="font-weight:bold;vertical-align:top;">wsgi.run_once</td><td style="vertical-align:top;">:</td><td><div>False</div></td></tr><tr><td style="font-weight:bold;vertical-align:top;">wsgi.url_scheme</td><td style="vertical-align:top;">:</td><td><div>http</div></td></tr><tr><td style="font-weight:bold;vertical-align:top;">wsgi.version</td><td style="vertical-align:top;">:</td><td><div><table><tr><td><div>1</div></td></tr><tr><td><div>0</div></td></tr></table></div></td></tr><tr><td style="font-weight:bold;vertical-align:top;">wsgi_errors</td><td style="vertical-align:top;">:</td><td><div>&lt;open file &#x27;&lt;stderr&gt;&#x27;, mode &#x27;w&#x27; at 0x7f8c7de871e0&gt;</div></td></tr><tr><td style="font-weight:bold;vertical-align:top;">wsgi_file_wrapper</td><td style="vertical-align:top;">:</td><td><div>&lt;class wsgiref.util.FileWrapper at 0x7f8c77a57e20&gt;</div></td></tr><tr><td style="font-weight:bold;vertical-align:top;">wsgi_input</td><td style="vertical-align:top;">:</td><td><div>&lt;socket._fileobject object at 0x7f8c750b7650&gt;</div></td></tr><tr><td style="font-weight:bold;vertical-align:top;">wsgi_multiprocess</td><td style="vertical-align:top;">:</td><td><div>False</div></td></tr><tr><td style="font-weight:bold;vertical-align:top;">wsgi_multithread</td><td style="vertical-align:top;">:</td><td><div>True</div></td></tr><tr><td style="font-weight:bold;vertical-align:top;">wsgi_run_once</td><td style="vertical-align:top;">:</td><td><div>False</div></td></tr><tr><td style="font-weight:bold;vertical-align:top;">wsgi_url_scheme</td><td style="vertical-align:top;">:</td><td><div>http</div></td></tr><tr><td style="font-weight:bold;vertical-align:top;">wsgi_version</td><td style="vertical-align:top;">:</td><td><div><table><tr><td><div>1</div></td></tr><tr><td><div>0</div></td></tr></table></div></td></tr></table></div></td></tr><tr><td style="font-weight:bold;vertical-align:top;">extension</td><td style="vertical-align:top;">:</td><td><div>html</div></td></tr><tr><td style="font-weight:bold;vertical-align:top;">folder</td><td style="vertical-align:top;">:</td><td><div>/home/smmau/Downloads/Programador/web2py/applications/MeioAmbienteRP/</div></td></tr><tr><td style="font-weight:bold;vertical-align:top;">function</td><td style="vertical-align:top;">:</td><td><div>insert</div></td></tr><tr><td style="font-weight:bold;vertical-align:top;">global_settings</td><td style="vertical-align:top;">:</td><td><div><table><tr><td style="font-weight:bold;vertical-align:top;">app_folders</td><td style="vertical-align:top;">:</td><td><div>set([&#x27;/home/smmau/Downloads/Programador/web2py/applications/admin/&#x27;, &#x27;/home/smmau/Downloads/Programador/web2py/applications/MeioAmbienteRP/&#x27;, &#x27;/home/smmau/Downloads/Programador/web2py/applications/welcome/&#x27;])</div></td></tr><tr><td style="font-weight:bold;vertical-align:top;">applications_parent</td><td style="vertical-align:top;">:</td><td><div>/home/smmau/Downloads/Programador/web2py</div></td></tr><tr><td style="font-weight:bold;vertical-align:top;">cmd_args</td><td style="vertical-align:top;">:</td><td><div><table></table></div></td></tr><tr><td style="font-weight:bold;vertical-align:top;">cmd_options</td><td style="vertical-align:top;">:</td><td><div>&lt;Values at 0x7f8c7b702c68: {&#x27;verbose&#x27;: False, &#x27;ip&#x27;: &#x27;127.0.0.1&#x27;, &#x27;debuglevel&#x27;: 30, &#x27;with_scheduler&#x27;: False, &#x27;shutdown_timeout&#x27;: 5, &#x27;taskbar&#x27;: False, &#x27;with_coverage&#x27;: False, &#x27;pid_filename&#x27;: &#x27;httpserver.pid&#x27;, &#x27;maxthreads&#x27;: None, &#x27;softcron&#x27;: False, &#x27;server_name&#x27;: &#x27;smmau-004-pc004&#x27;, &#x27;bpython&#x27;: False, &#x27;nogui&#x27;: False, &#x27;port&#x27;: 8000, &#x27;print_errors&#x27;: False, &#x27;extcron&#x27;: False, &#x27;runcron&#x27;: False, &#x27;run_system_tests&#x27;: False, &#x27;test&#x27;: None, &#x27;folder&#x27;: &#x27;/home/smmau/Downloads/Programador/web2py&#x27;, &#x27;config&#x27;: &#x27;&#x27;, &#x27;minthreads&#x27;: None, &#x27;shell&#x27;: None, &#x27;run&#x27;: &#x27;&#x27;, &#x27;log_filename&#x27;: &#x27;httpserver.log&#x27;, &#x27;profiler_dir&#x27;: None, &#x27;args&#x27;: [&#x27;&#x27;], &#x27;socket_timeout&#x27;: 5, &#x27;ssl_ca_certificate&#x27;: None, &#x27;scheduler&#x27;: None, &#x27;interfaces&#x27;: None, &#x27;ssl_private_key&#x27;: &#x27;&#x27;, &#x27;gae&#x27;: None, &#x27;password&#x27;: &#x27;******&#x27;, &#x27;request_queue_size&#x27;: 5, &#x27;ssl_certificate&#x27;: &#x27;&#x27;, &#x27;cronjob&#x27;: False, &#x27;numthreads&#x27;: None, &#x27;quiet&#x27;: False, &#x27;import_models&#x27;: False, &#x27;timeout&#x27;: 10, &#x27;plain&#x27;: False, &#x27;nobanner&#x27;: False}&gt;</div></td></tr><tr><td style="font-weight:bold;vertical-align:top;">db_sessions</td><td style="vertical-align:top;">:</td><td><div>set([])</div></td></tr><tr><td style="font-weight:bold;vertical-align:top;">debugging</td><td style="vertical-align:top;">:</td><td><div>False</div></td></tr><tr><td style="font-weight:bold;vertical-align:top;">gluon_parent</td><td style="vertical-align:top;">:</td><td><div>/home/smmau/Downloads/Programador/web2py</div></td></tr><tr><td style="font-weight:bold;vertical-align:top;">is_jython</td><td style="vertical-align:top;">:</td><td><div>False</div></td></tr><tr><td style="font-weight:bold;vertical-align:top;">is_py2</td><td style="vertical-align:top;">:</td><td><div>True</div></td></tr><tr><td style="font-weight:bold;vertical-align:top;">is_pypy</td><td style="vertical-align:top;">:</td><td><div>False</div></td></tr><tr><td style="font-weight:bold;vertical-align:top;">is_source</td><td style="vertical-align:top;">:</td><td><div>True</div></td></tr><tr><td style="font-weight:bold;vertical-align:top;">local_hosts</td><td style="vertical-align:top;">:</td><td><div><table><tr><td><div>smmau-004-pc004</div></td></tr><tr><td><div>::1</div></td></tr><tr><td><div>::ffff:127.0.0.1</div></td></tr><tr><td><div>127.0.0.1</div></td></tr><tr><td><div>smmau-004-pc004.REDE-EMPRO.empro.com.br</div></td></tr></table></div></td></tr><tr><td style="font-weight:bold;vertical-align:top;">web2py_version</td><td style="vertical-align:top;">:</td><td><div>2.17.2-stable+timestamp.2018.10.06.18.54.02</div></td></tr></table></div></td></tr><tr><td style="font-weight:bold;vertical-align:top;">is_https</td><td style="vertical-align:top;">:</td><td><div>False</div></td></tr><tr><td style="font-weight:bold;vertical-align:top;">is_local</td><td style="vertical-align:top;">:</td><td><div>True</div></td></tr><tr><td style="font-weight:bold;vertical-align:top;">is_restful</td><td style="vertical-align:top;">:</td><td><div>False</div></td></tr><tr><td style="font-weight:bold;vertical-align:top;">is_scheduler</td><td style="vertical-align:top;">:</td><td><div>False</div></td></tr><tr><td style="font-weight:bold;vertical-align:top;">is_shell</td><td style="vertical-align:top;">:</td><td><div>False</div></td></tr><tr><td style="font-weight:bold;vertical-align:top;">method</td><td style="vertical-align:top;">:</td><td><div>POST</div></td></tr><tr><td style="font-weight:bold;vertical-align:top;">now</td><td style="vertical-align:top;">:</td><td><div>datetime.datetime(2019, 1, 21, 17, 0, 58, 5897)</div></td></tr><tr><td style="font-weight:bold;vertical-align:top;">raw_args</td><td style="vertical-align:top;">:</td><td><div>dbdocumentos/ControleRetirada</div></td></tr><tr><td style="font-weight:bold;vertical-align:top;">raw_extension</td><td style="vertical-align:top;">:</td><td><div>None</div></td></tr><tr><td style="font-weight:bold;vertical-align:top;">url</td><td style="vertical-align:top;">:</td><td><div>/MeioAmbienteRP/appadmin/insert/dbdocumentos/ControleRetirada</div></td></tr><tr><td style="font-weight:bold;vertical-align:top;">utcnow</td><td style="vertical-align:top;">:</td><td><div>datetime.datetime(2019, 1, 21, 19, 0, 58, 5923)</div></td></tr><tr><td style="font-weight:bold;vertical-align:top;">wsgi</td><td style="vertical-align:top;">:</td><td><div>&lt;gluon.main.LazyWSGI object at 0x7f8c35ace4d0&gt;</div></td></tr></table></div>'
tRp60
sS'frames'
p61
(lp62
(dp63
S'file'
p64
S'/home/smmau/Downloads/Programador/web2py/gluon/restricted.py'
p65
sS'dump'
p66
(dp67
S'environment'
p68
S"{'A': <class 'gluon.html.A'>, 'ANY_OF': <class 'gluon.validators.ANY_OF'>, 'ASSIGNJS': <function ASSIGNJS>, 'AppConfig': <function AppConfig>, 'Auth': <class 'gluon.tools.Auth'>, 'B': <class 'gluon.html.B'>, 'BEAUTIFY': <class 'gluon.html.BEAUTIFY'>, 'BODY': <class 'gluon.html.BODY'>, 'BR': <class 'gluon.html.BR'>, 'BUTTON': <class 'gluon.html.BUTTON'>, ...}"
p69
sS'ccode'
p70
S'<code object <module> at 0x7f8c582677b0, file "/.../MeioAmbienteRP/controllers/appadmin.py", line 7>'
p71
ssS'lnum'
p72
I219
sS'lines'
p73
(dp74
I214
S'    if environment is None:'
p75
sI215
S'        environment = {}'
p76
sI216
S"    environment['__file__'] = layer"
p77
sI217
S"    environment['__name__'] = '__restricted__'"
p78
sI218
S'    try:'
p79
sI219
S'        exec(ccode, environment)'
p80
sI220
S'    except HTTP:'
p81
sI221
S'        raise'
p82
sI222
S'    except RestrictedError:'
p83
sI223
S'        # do not encapsulate (obfuscate) the original RestrictedError'
p84
ssS'call'
p85
S'(ccode=<code object <module> at 0x7f8c582677b0, file "/.../MeioAmbienteRP/controllers/appadmin.py", line 7>, environment={\'A\': <class \'gluon.html.A\'>, \'ANY_OF\': <class \'gluon.validators.ANY_OF\'>, \'ASSIGNJS\': <function ASSIGNJS>, \'AppConfig\': <function AppConfig>, \'Auth\': <class \'gluon.tools.Auth\'>, \'B\': <class \'gluon.html.B\'>, \'BEAUTIFY\': <class \'gluon.html.BEAUTIFY\'>, \'BODY\': <class \'gluon.html.BODY\'>, \'BR\': <class \'gluon.html.BR\'>, \'BUTTON\': <class \'gluon.html.BUTTON\'>, ...}, layer=\'/home/smmau/Downloads/Programador/web2py/applications/MeioAmbienteRP/controllers/appadmin.py\', scode=<code object <module> at 0x7f8c582677b0, file "/.../MeioAmbienteRP/controllers/appadmin.py", line 7>)'
p86
sS'func'
p87
S'restricted'
p88
sa(dp89
g64
S'/home/smmau/Downloads/Programador/web2py/applications/MeioAmbienteRP/controllers/appadmin.py'
p90
sg66
(dp91
sg72
I695
sg73
(dp92
I684
S"                    referenced_table = f_type.split()[1].split('.')[0]"
p93
sI685
S''
sI686
S'                    links.append(dict(source=tablename, target = referenced_table))'
p94
sI687
S''
sI688
S'            nodes.append(dict(name=tablename, type="table", fields = fields))'
p95
sI689
S''
sI690
S'    # d3 v4 allows individual modules to be specified.  The complete d3 library is included below.'
p96
sI691
S"    response.files.append(URL('admin','static','js/d3.min.js'))"
p97
sI692
S"    response.files.append(URL('admin','static','js/d3_graph.js'))"
p98
sI693
S'    return dict(databases=databases, nodes=nodes, links=links)'
p99
ssg85
S'()'
p100
sg87
S'<module>'
p101
sa(dp102
g64
S'/home/smmau/Downloads/Programador/web2py/gluon/globals.py'
p103
sg66
(dp104
S'self'
p105
S'undefined'
p106
sS'f'
S'<function insert>'
p107
ssg72
I421
sg73
(dp108
I416
S"        self.flash = ''            # used by the default view layout"
p109
sI417
S'        self.meta = Storage()      # used by web2py_ajax.html'
p110
sI418
S'        self.menu = []             # used by the default view layout'
p111
sI419
S'        self.files = []            # used by web2py_ajax.html'
p112
sI420
S'        self._vars = None'
p113
sI421
S'        self._caller = lambda f: f()'
p114
sI422
S'        self._view_environment = None'
p115
sI423
S'        self._custom_commit = None'
p116
sI424
S'        self._custom_rollback = None'
p117
sI425
S"        self.generic_patterns = ['*']"
p118
ssg85
S'(f=<function insert>)'
p119
sg87
S'<lambda>'
p120
sa(dp121
g64
S'/home/smmau/Downloads/Programador/web2py/applications/MeioAmbienteRP/controllers/appadmin.py'
p122
sg66
(dp123
S'global request'
p124
S"<Storage {'function': 'insert', 'cookies': <Simp...False, 'is_https': False, 'client': '127.0.0.1'}>"
p125
sS'request.vars'
p126
S"<Storage {'DataReg': '21-01-2019 17:00:38', 'Qtd...e': 'ControleRetirada/create', 'IdEstoque': '3'}>"
p127
sS'global session'
p128
S"<Storage {'_formkey[ConsultA3p/create]': ['f3d55...88476', '42b4d809-b152-4dbd-9a9e-f8e6389096f8']}>"
p129
sS'form'
p130
S'<gluon.sqlhtml.SQLFORM object>'
p131
sS'form.accepts'
p132
S'<bound method SQLFORM.accepts of <gluon.sqlhtml.SQLFORM object>>'
p133
ssg72
I147
sg73
(dp134
I142
S''
sI143
S''
sI144
S'def insert():'
p135
sI145
S'    (db, table) = get_table(request)'
p136
sI146
S'    form = SQLFORM(db[table], ignore_rw=ignore_rw)'
p137
sI147
S'    if form.accepts(request.vars, session):'
p138
sI148
S"        response.flash = T('new record inserted')"
p139
sI149
S'    return dict(form=form, table=db[table])'
p140
sI150
S''
sI151
S''
ssg85
S'()'
p141
sg87
S'insert'
p142
sa(dp143
g64
S'/home/smmau/Downloads/Programador/web2py/gluon/sqlhtml.py'
p144
sg66
(dp145
S'self.vars.id'
p146
S'None'
p147
sS'fields'
p148
S"{'DataReg': datetime.datetime(2019, 1, 21, 17, 0, 38), 'IdEstoque': 3, 'IdPessoa': 314, 'Qtd': Decimal('3'), 'QtdDevolvido': Decimal('0'), 'Uso': 'teste'}"
p149
sS'self'
p150
S'<gluon.sqlhtml.SQLFORM object>'
p151
sS'self.vars'
p152
S"<Storage {'DataReg': datetime.datetime(2019, 1, ...': 'teste', 'Qtd': Decimal('3'), 'IdEstoque': 3}>"
p153
sS'self.table.insert'
p154
S'<bound method Table.insert of <Table ControleRet...que, Qtd, DataReg, IdPessoa, Uso, QtdDevolvido)>>'
p155
sS'self.table'
p156
S'<Table ControleRetirada (Id, IdEstoque, Qtd, DataReg, IdPessoa, Uso, QtdDevolvido)>'
p157
ssg72
I1975
sg73
(dp158
I1970
S'                    self.vars.id = self.record[self.id_field_name]'
p159
sI1971
S'                    if fields:'
p160
sI1972
S'                        self.table._db(self.table._id == self.record['
p161
sI1973
S'                                       self.id_field_name]).update(**fields)'
p162
sI1974
S'                else:'
p163
sI1975
S'                    self.vars.id = self.table.insert(**fields)'
p164
sI1976
S''
sI1977
S'        self.accepted = ret'
p165
sI1978
S'        return ret'
p166
sI1979
S''
ssg85
S"(self=<gluon.sqlhtml.SQLFORM object>, request_vars=<Storage {'DataReg': '21-01-2019 17:00:38', 'Qtd...e': 'ControleRetirada/create', 'IdEstoque': '3'}>, session=<Storage {'_formkey[ConsultA3p/create]': ['f3d55...88476', '42b4d809-b152-4dbd-9a9e-f8e6389096f8']}>, formname='ControleRetirada/create', keepvalues=False, onvalidation=None, dbio=True, hideerror=False, detect_record_change=False, **kwargs={})"
p167
sg87
S'accepts'
p168
sa(dp169
g64
S'/home/smmau/Downloads/Programador/web2py/gluon/packages/dal/pydal/objects.py'
p170
sg66
(dp171
S'self'
p172
S'<Table ControleRetirada (Id, IdEstoque, Qtd, DataReg, IdPessoa, Uso, QtdDevolvido)>'
p173
sS'ret'
p174
g106
sS'row.op_values'
p175
S"<bound method OpRow.op_values of <OpRow {'DataRe...: 'teste', 'Qtd': Decimal('3'), 'IdEstoque': 3}>>"
p176
sS'self._db._adapter'
p177
S'<pydal.adapters.mysql.MySQL object>'
p178
sS'self._db._adapter.insert'
p179
S'<bound method MySQL.insert of <pydal.adapters.mysql.MySQL object>>'
p180
sS'self._db'
p181
S'<DAL uri="mysql:******@10.7.0.28/DBDocumentos">'
p182
sS'row'
p183
S"<OpRow {'DataReg': datetime.datetime(2019, 1, 21...': 'teste', 'Qtd': Decimal('3'), 'IdEstoque': 3}>"
p184
ssg72
I764
sg73
(dp185
I768
S'        return ret'
p186
sI759
S''
sI760
S'    def insert(self, **fields):'
p187
sI761
S'        row = self._fields_and_values_for_insert(fields)'
p188
sI762
S'        if any(f(row) for f in self._before_insert):'
p189
sI763
S'            return 0'
p190
sI764
S'        ret = self._db._adapter.insert(self, row.op_values())'
p191
sI765
S'        if ret and self._after_insert:'
p192
sI766
S'            for f in self._after_insert:'
p193
sI767
S'                f(row, ret)'
p194
ssg85
S"(self=<Table ControleRetirada (Id, IdEstoque, Qtd, DataReg, IdPessoa, Uso, QtdDevolvido)>, **fields={'DataReg': datetime.datetime(2019, 1, 21, 17, 0, 38), 'IdEstoque': 3, 'IdPessoa': 314, 'Qtd': Decimal('3'), 'QtdDevolvido': Decimal('0'), 'Uso': 'teste'})"
p195
sg87
g142
sa(dp196
g64
S'/home/smmau/Downloads/Programador/web2py/gluon/packages/dal/pydal/adapters/base.py'
p197
sg66
(dp198
S'self._insert'
p199
S'<bound method MySQL._insert of <pydal.adapters.mysql.MySQL object>>'
p200
sS'query'
p201
g106
sS'self'
p202
S'<pydal.adapters.mysql.MySQL object>'
p203
sS'fields'
p204
S"[(<pydal.objects.Field object>, datetime.datetime(2019, 1, 21, 17, 0, 38)), (<pydal.objects.Field object>, Decimal('0')), (<pydal.objects.Field object>, 314), (<pydal.objects.Field object>, 'teste'), (<pydal.objects.Field object>, Decimal('3')), (<pydal.objects.Field object>, 3)]"
p205
sS'table'
p206
S'<Table ControleRetirada (Id, IdEstoque, Qtd, DataReg, IdPessoa, Uso, QtdDevolvido)>'
p207
ssg72
I480
sg73
(dp208
I480
S'        query = self._insert(table, fields)'
p209
sI481
S'        try:'
p210
sI482
S'            self.execute(query)'
p211
sI483
S'        except:'
p212
sI484
S'            e = sys.exc_info()[1]'
p213
sI475
S"                ','.join(el[0]._rname for el in fields),"
p214
sI476
S"                ','.join(self.expand(v, f.type) for f, v in fields))"
p215
sI477
S'        return self.dialect.insert_empty(table._rname)'
p216
sI478
S''
sI479
S'    def insert(self, table, fields):'
p217
ssg85
S"(self=<pydal.adapters.mysql.MySQL object>, table=<Table ControleRetirada (Id, IdEstoque, Qtd, DataReg, IdPessoa, Uso, QtdDevolvido)>, fields=[(<pydal.objects.Field object>, datetime.datetime(2019, 1, 21, 17, 0, 38)), (<pydal.objects.Field object>, Decimal('0')), (<pydal.objects.Field object>, 314), (<pydal.objects.Field object>, 'teste'), (<pydal.objects.Field object>, Decimal('3')), (<pydal.objects.Field object>, 3)])"
p218
sg87
g142
sa(dp219
g64
S'/home/smmau/Downloads/Programador/web2py/gluon/packages/dal/pydal/adapters/base.py'
p220
sg66
(dp221
S'fields'
p222
S"[(<pydal.objects.Field object>, datetime.datetime(2019, 1, 21, 17, 0, 38)), (<pydal.objects.Field object>, Decimal('0')), (<pydal.objects.Field object>, 314), (<pydal.objects.Field object>, 'teste'), (<pydal.objects.Field object>, Decimal('3')), (<pydal.objects.Field object>, 3)]"
p223
sS'self'
p224
S'<pydal.adapters.mysql.MySQL object>'
p225
sS'v'
g106
sS'f'
g106
sS'self.expand'
p226
S'<bound method MySQL._expand of <pydal.adapters.mysql.MySQL object>>'
p227
ssg72
I476
sg73
(dp228
I480
S'        query = self._insert(table, fields)'
p229
sI471
S'    def _insert(self, table, fields):'
p230
sI472
S'        if fields:'
p231
sI473
S'            return self.dialect.insert('
p232
sI474
S'                table._rname,'
p233
sI475
S"                ','.join(el[0]._rname for el in fields),"
p234
sI476
S"                ','.join(self.expand(v, f.type) for f, v in fields))"
p235
sI477
S'        return self.dialect.insert_empty(table._rname)'
p236
sI478
S''
sI479
S'    def insert(self, table, fields):'
p237
ssg85
S"(self=<pydal.adapters.mysql.MySQL object>, table=<Table ControleRetirada (Id, IdEstoque, Qtd, DataReg, IdPessoa, Uso, QtdDevolvido)>, fields=[(<pydal.objects.Field object>, datetime.datetime(2019, 1, 21, 17, 0, 38)), (<pydal.objects.Field object>, Decimal('0')), (<pydal.objects.Field object>, 314), (<pydal.objects.Field object>, 'teste'), (<pydal.objects.Field object>, Decimal('3')), (<pydal.objects.Field object>, 3)])"
p238
sg87
S'_insert'
p239
sa(dp240
g64
S'/home/smmau/Downloads/Programador/web2py/gluon/packages/dal/pydal/adapters/base.py'
p241
sg66
(dp242
S'f'
S'<pydal.objects.Field object>'
p243
sS'fields'
p244
g106
sS'self'
p245
S'<pydal.adapters.mysql.MySQL object>'
p246
sS'f.type'
p247
S"'reference dbpessoas.Pessoas'"
p248
sS'v'
S'314'
p249
sS'self.expand'
p250
S'<bound method MySQL._expand of <pydal.adapters.mysql.MySQL object>>'
p251
ssg72
I476
sg73
(dp252
I480
S'        query = self._insert(table, fields)'
p253
sI471
S'    def _insert(self, table, fields):'
p254
sI472
S'        if fields:'
p255
sI473
S'            return self.dialect.insert('
p256
sI474
S'                table._rname,'
p257
sI475
S"                ','.join(el[0]._rname for el in fields),"
p258
sI476
S"                ','.join(self.expand(v, f.type) for f, v in fields))"
p259
sI477
S'        return self.dialect.insert_empty(table._rname)'
p260
sI478
S''
sI479
S'    def insert(self, table, fields):'
p261
ssg85
S'((f=<pydal.objects.Field object>, v=314))'
p262
sg87
S'<genexpr>'
p263
sa(dp264
g64
S'/home/smmau/Downloads/Programador/web2py/gluon/packages/dal/pydal/adapters/base.py'
p265
sg66
(dp266
S'self.represent'
p267
S'<bound method MySQL.represent of <pydal.adapters.mysql.MySQL object>>'
p268
sS'rv'
p269
g106
sS'expression'
p270
S'314'
p271
sS'self'
p272
S'<pydal.adapters.mysql.MySQL object>'
p273
sS'field_type'
p274
S"'reference dbpessoas.Pessoas'"
p275
ssg72
I445
sg73
(dp276
I448
S'                          for item in expression)'
p277
sI449
S'        elif isinstance(expression, bool):'
p278
sI440
S'                    op = op[:-1]'
p279
sI441
S"                rv = '(%s)' % op"
p280
sI442
S'            else:'
p281
sI443
S'                rv = op()'
p282
sI444
S'        elif field_type:'
p283
sI445
S'            rv = self.represent(expression, field_type)'
p284
sI446
S'        elif isinstance(expression, (list, tuple)):'
p285
sI447
S"            rv = ','.join(self.represent(item, field_type)"
p286
ssg85
S"(self=<pydal.adapters.mysql.MySQL object>, expression=314, field_type='reference dbpessoas.Pessoas', colnames=False, query_env={})"
p287
sg87
S'_expand'
p288
sa(dp289
g64
S'/home/smmau/Downloads/Programador/web2py/gluon/packages/dal/pydal/adapters/base.py'
p290
sg66
(dp291
S'field_type'
p292
S"'reference dbpessoas.Pessoas'"
p293
sS'obj'
p294
S'314'
p295
sS'self'
p296
S'<pydal.adapters.mysql.MySQL object>'
p297
sS'global SQLAdapter'
p298
S"<class 'pydal.adapters.base.SQLAdapter'>"
p299
sS').represent'
p300
S'<bound method MySQL.represent of <pydal.adapters.mysql.MySQL object>>'
p301
sS'builtinsuper'
p302
S"<type 'super'>"
p303
ssg72
I382
sg73
(dp304
I384
S'    def adapt(self, obj):'
p305
sI385
S'        return "\'%s\'" % obj.replace("\'", "\'\'")'
p306
sI386
S''
sI377
S"        self.execute('SELECT 1;')"
p307
sI378
S''
sI379
S'    def represent(self, obj, field_type):'
p308
sI380
S'        if isinstance(obj, (Expression, Field)):'
p309
sI381
S'            return str(obj)'
p310
sI382
S'        return super(SQLAdapter, self).represent(obj, field_type)'
p311
sI383
S''
ssg85
S"(self=<pydal.adapters.mysql.MySQL object>, obj=314, field_type='reference dbpessoas.Pessoas')"
p312
sg87
S'represent'
p313
sa(dp314
g64
S'/home/smmau/Downloads/Programador/web2py/gluon/packages/dal/pydal/adapters/base.py'
p315
sg66
(dp316
S'self.representer'
p317
S'<pydal.representers.mysql.MySQLRepresenter object>'
p318
sS'self'
p319
S'<pydal.adapters.mysql.MySQL object>'
p320
sS'field_type'
p321
S"'reference dbpessoas.Pessoas'"
p322
sS'obj'
p323
S'314'
p324
sS'self.representer.represent'
p325
S'<bound method MySQLRepresenter.represent of <pydal.representers.mysql.MySQLRepresenter object>>'
p326
ssg72
I336
sg73
(dp327
I331
S'        return value'
p328
sI332
S''
sI333
S'    def represent(self, obj, field_type):'
p329
sI334
S'        if isinstance(obj, CALLABLETYPES):'
p330
sI335
S'            obj = obj()'
p331
sI336
S'        return self.representer.represent(obj, field_type)'
p332
sI337
S''
sI338
S'    def _drop_table_cleanup(self, table):'
p333
sI339
S'        del self.db[table._tablename]'
p334
sI340
S'        del self.db.tables[self.db.tables.index(table._tablename)]'
p335
ssg85
S"(self=<pydal.adapters.mysql.MySQL object>, obj=314, field_type='reference dbpessoas.Pessoas')"
p336
sg87
g313
sa(dp337
g64
S'/home/smmau/Downloads/Programador/web2py/gluon/packages/dal/pydal/representers/__init__.py'
p338
sg66
(dp339
S'field_type'
p340
S"'reference dbpessoas.Pessoas'"
p341
sS'rv'
p342
S'314'
p343
sS'self'
p344
S'<pydal.representers.mysql.MySQLRepresenter object>'
p345
sS'self.get_representer_for_type'
p346
S'<bound method MySQLRepresenter.get_representer_f...ydal.representers.mysql.MySQLRepresenter object>>'
p347
ssg72
I251
sg73
(dp348
I246
S'        if pre_end:'
p349
sI247
S'            return value'
p350
sI248
S'        repr_type, rv = self.get_representer_for_instance(value)('
p351
sI249
S'            value, field_type)'
p352
sI250
S'        if repr_type:'
p353
sI251
S'            rv = self.get_representer_for_type(field_type)(rv, field_type)'
p354
sI252
S'        return rv'
p355
sI253
S''
sI254
S''
sI255
S'from .base import BaseRepresenter, SQLRepresenter, NoSQLRepresenter'
p356
ssg85
S"(self=<pydal.representers.mysql.MySQLRepresenter object>, value=314, field_type='reference dbpessoas.Pessoas')"
p357
sg87
g313
sa(dp358
g64
S'/home/smmau/Downloads/Programador/web2py/gluon/packages/dal/pydal/representers/__init__.py'
p359
sg66
(dp360
S'value'
p361
S'314'
p362
sS'self'
p363
S'<pydal.representers.TReprMethodWrapper object>'
p364
sS'self.call'
p365
S'<bound method TReprMethodWrapper._call_with_extr...f <pydal.representers.TReprMethodWrapper object>>'
p366
sS'self.adapt'
p367
S'<bound method TReprMethodWrapper._no_adapt of <pydal.representers.TReprMethodWrapper object>>'
p368
sS'field_type'
p369
S"'reference dbpessoas.Pessoas'"
p370
ssg72
I139
sg73
(dp371
I134
S''
sI135
S'    def _call(self, value, field_type):'
p372
sI136
S'        return self.inner_call(value)'
p373
sI137
S''
sI138
S'    def __call__(self, value, field_type):'
p374
sI139
S'        return self.adapt(self.call(value, field_type))'
p375
sI140
S''
sI141
S''
sI142
S'class IReprMethodWrapper(object):'
p376
sI143
S'    def __init__(self, representer, obj):'
p377
ssg85
S"(self=<pydal.representers.TReprMethodWrapper object>, value=314, field_type='reference dbpessoas.Pessoas')"
p378
sg87
S'__call__'
p379
sa(dp380
g64
S'/home/smmau/Downloads/Programador/web2py/gluon/packages/dal/pydal/representers/__init__.py'
p381
sg66
(dp382
S'self.inner_call'
p383
S'<bound method TReprMethodWrapper._inner_call of <pydal.representers.TReprMethodWrapper object>>'
p384
sS'self'
p385
S'<pydal.representers.TReprMethodWrapper object>'
p386
sS'extras'
p387
S"{'referenced': 'dbpessoas.Pessoas'}"
p388
sS'value'
p389
S'314'
p390
ssg72
I133
sg73
(dp391
I128
S'            value = value.encode(self.representer.adapter.db_codec)'
p392
sI129
S'        return self.obj.f(self.representer, value, **kwargs)'
p393
sI130
S''
sI131
S'    def _call_with_extras(self, value, field_type):'
p394
sI132
S'        extras = self.extra(self.representer, field_type)'
p395
sI133
S'        return self.inner_call(value, **extras)'
p396
sI134
S''
sI135
S'    def _call(self, value, field_type):'
p397
sI136
S'        return self.inner_call(value)'
p398
sI137
S''
ssg85
S"(self=<pydal.representers.TReprMethodWrapper object>, value=314, field_type='reference dbpessoas.Pessoas')"
p399
sg87
S'_call_with_extras'
p400
sa(dp401
g64
S'/home/smmau/Downloads/Programador/web2py/gluon/packages/dal/pydal/representers/__init__.py'
p402
sg66
(dp403
S'self.obj.f'
p404
S'<function _reference>'
p405
sS'self.obj'
p406
S'<pydal.representers.for_type object>'
p407
sS'self'
p408
S'<pydal.representers.TReprMethodWrapper object>'
p409
sS'value'
p410
S'314'
p411
sS'self.representer'
p412
S'<pydal.representers.mysql.MySQLRepresenter object>'
p413
sS'kwargs'
p414
S"{'referenced': 'dbpessoas.Pessoas'}"
p415
ssg72
I124
sg73
(dp416
I128
S'            value = value.encode(self.representer.adapter.db_codec)'
p417
sI119
S''
sI120
S'    def _no_adapt(self, value):'
p418
sI121
S'        return value'
p419
sI122
S''
sI123
S'    def _inner_call(self, value, **kwargs):'
p420
sI124
S'        return self.obj.f(self.representer, value, **kwargs)'
p421
sI125
S''
sI126
S'    def _inner_call_with_encode(self, value, **kwargs):'
p422
sI127
S'        if isinstance(value, unicode):'
p423
ssg85
S"(self=<pydal.representers.TReprMethodWrapper object>, value=314, **kwargs={'referenced': 'dbpessoas.Pessoas'})"
p424
sg87
S'_inner_call'
p425
sa(dp426
g64
S'/home/smmau/Downloads/Programador/web2py/gluon/packages/dal/pydal/representers/base.py'
p427
sg66
(dp428
S'self'
p429
S'<pydal.representers.mysql.MySQLRepresenter object>'
p430
sS'p'
S"('dbpessoas', '.', 'Pessoas')"
p431
sS'ftype'
p432
g106
sS'self.adapter.db'
p433
S'<DAL uri="mysql:******@10.7.0.28/DBDocumentos">'
p434
sS'].type'
p435
g106
sS'self.adapter'
p436
S'<pydal.adapters.mysql.MySQL object>'
p437
ssg72
I145
sg73
(dp438
I140
S'        if referenced in self.adapter.db.tables:'
p439
sI141
S'            return str(long(value))'
p440
sI142
S"        p = referenced.partition('.')"
p441
sI143
S"        if p[2] != '':"
p442
sI144
S'            try:'
p443
sI145
S'                ftype = self.adapter.db[p[0]][p[2]].type'
p444
sI146
S'                return self.adapter.represent(value, ftype)'
p445
sI147
S'            except (ValueError, KeyError):'
p446
sI148
S'                return repr(value)'
p447
sI149
S'        elif isinstance(value, (Row, Reference)):'
p448
ssg85
S"(self=<pydal.representers.mysql.MySQLRepresenter object>, value=314, referenced='dbpessoas.Pessoas')"
p449
sg87
S'_reference'
p450
sa(dp451
g64
S'/home/smmau/Downloads/Programador/web2py/gluon/packages/dal/pydal/base.py'
p452
sg66
(dp453
S'builtinstr'
p454
S"<type 'str'>"
p455
sS'self.__getattr__'
p456
S'<bound method DAL.__getattr__ of <DAL uri="mysql:******@10.7.0.28/DBDocumentos">>'
p457
sS'self'
p458
S'<DAL uri="mysql:******@10.7.0.28/DBDocumentos">'
p459
sS'key'
p460
S"'dbpessoas'"
p461
ssg72
I666
sg73
(dp462
I661
S'    def __iter__(self):'
p463
sI662
S'        for tablename in self.tables:'
p464
sI663
S'            yield self[tablename]'
p465
sI664
S''
sI665
S'    def __getitem__(self, key):'
p466
sI666
S'        return self.__getattr__(str(key))'
p467
sI667
S''
sI668
S'    def __getattr__(self, key):'
p468
sI669
S"        if object.__getattribute__(self, '_lazy_tables') and \\"
p469
sI670
S"                key in object.__getattribute__(self, '_LAZY_TABLES'):"
p470
ssg85
S'(self=<DAL uri="mysql:******@10.7.0.28/DBDocumentos">, key=\'dbpessoas\')'
p471
sg87
g38
sa(dp472
g64
S'/home/smmau/Downloads/Programador/web2py/gluon/packages/dal/pydal/base.py'
p473
sg66
(dp474
S'global BasicStorage'
p475
S"<class 'pydal.helpers.classes.BasicStorage'>"
p476
sS'self'
p477
S'<DAL uri="mysql:******@10.7.0.28/DBDocumentos">'
p478
sS'BasicStorage.__getattribute__'
p479
S"<slot wrapper '__getattribute__' of 'object' objects>"
p480
sS'key'
p481
S"'dbpessoas'"
p482
ssg72
I673
sg73
(dp483
I672
S'            return self.lazy_define_table(tablename, *fields, **kwargs)'
p484
sI673
S'        return BasicStorage.__getattribute__(self, key)'
p485
sI674
S''
sI675
S'    def __setattr__(self, key, value):'
p486
sI676
S"        if key[:1] != '_' and key in self:"
p487
sI677
S'            raise SyntaxError('
p488
sI668
S'    def __getattr__(self, key):'
p489
sI669
S"        if object.__getattribute__(self, '_lazy_tables') and \\"
p490
sI670
S"                key in object.__getattribute__(self, '_LAZY_TABLES'):"
p491
sI671
S'            tablename, fields, kwargs = self._LAZY_TABLES.pop(key)'
p492
ssg85
S'(self=<DAL uri="mysql:******@10.7.0.28/DBDocumentos">, key=\'dbpessoas\')'
p493
sg87
S'__getattr__'
p494
sasS'pyver'
p495
S'Python 2.7.15rc1: /usr/bin/python (prefix: /usr)'
p496
sS'session'
p497
g59
(S'sq\x0c\x00\x00<div><table><tr><td style="font-weight:bold;vertical-align:top;">IdPredio</td><td style="vertical-align:top;">:</td><td><div>344</div></td></tr><tr><td style="font-weight:bold;vertical-align:top;">auth</td><td style="vertical-align:top;">:</td><td><div><table><tr><td style="font-weight:bold;vertical-align:top;">expiration</td><td style="vertical-align:top;">:</td><td><div>2592000</div></td></tr><tr><td style="font-weight:bold;vertical-align:top;">hmac_key</td><td style="vertical-align:top;">:</td><td><div>41280a53-bdcd-4a57-8423-387cdb608020</div></td></tr><tr><td style="font-weight:bold;vertical-align:top;">last_visit</td><td style="vertical-align:top;">:</td><td><div>datetime.datetime(2019, 1, 14, 15, 25, 25, 708883)</div></td></tr><tr><td style="font-weight:bold;vertical-align:top;">remember_me</td><td style="vertical-align:top;">:</td><td><div>True</div></td></tr><tr><td style="font-weight:bold;vertical-align:top;">user</td><td style="vertical-align:top;">:</td><td><div><table><tr><td style="font-weight:bold;vertical-align:top;">Idm</td><td style="vertical-align:top;">:</td><td><div>31298</div></td></tr><tr><td style="font-weight:bold;vertical-align:top;">email</td><td style="vertical-align:top;">:</td><td><div>call.jmail@gmail.com</div></td></tr><tr><td style="font-weight:bold;vertical-align:top;">first_name</td><td style="vertical-align:top;">:</td><td><div>Carlos</div></td></tr><tr><td style="font-weight:bold;vertical-align:top;">id</td><td style="vertical-align:top;">:</td><td><div>1L</div></td></tr><tr><td style="font-weight:bold;vertical-align:top;">last_name</td><td style="vertical-align:top;">:</td><td><div>A Locatelli J</div></td></tr><tr><td style="font-weight:bold;vertical-align:top;">registration_id</td><td style="vertical-align:top;">:</td><td><div></div></td></tr><tr><td style="font-weight:bold;vertical-align:top;">registration_key</td><td style="vertical-align:top;">:</td><td><div></div></td></tr><tr><td style="font-weight:bold;vertical-align:top;">reset_password_key</td><td style="vertical-align:top;">:</td><td><div>1545221277-fb37e2da-067c-4d28-9df5-845a7ba7366c</div></td></tr></table></div></td></tr><tr><td style="font-weight:bold;vertical-align:top;">user_groups</td><td style="vertical-align:top;">:</td><td><div><table></table></div></td></tr></table></div></td></tr><tr><td style="font-weight:bold;vertical-align:top;">counter</td><td style="vertical-align:top;">:</td><td><div>29</div></td></tr><tr><td style="font-weight:bold;vertical-align:top;">flash</td><td style="vertical-align:top;">:</td><td><div>None</div></td></tr><tr><td style="font-weight:bold;vertical-align:top;">last_orderby</td><td style="vertical-align:top;">:</td><td><div>None</div></td></tr><tr><td style="font-weight:bold;vertical-align:top;">last_query</td><td style="vertical-align:top;">:</td><td><div>dbdocumentos.ControleRetirada.DataReg&gt;=0</div></td></tr><tr><td style="font-weight:bold;vertical-align:top;">selectgraf</td><td style="vertical-align:top;">:</td><td><div>Res\xc3\xadduo</div></td></tr><tr><td style="font-weight:bold;vertical-align:top;">slcAno</td><td style="vertical-align:top;">:</td><td><div>2018</div></td></tr></table></div>'
tRp498
sS'etype'
p499
S"<type 'exceptions.AttributeError'>"
p500
sS'date'
p501
S'Mon Jan 21 17:00:58 2019'
p502
sS'response'
p503
g59
(S's\xb8\x1f\x00\x00<div><table><tr><td style="font-weight:bold;vertical-align:top;">body</td><td style="vertical-align:top;">:</td><td><div>&lt;cStringIO.StringO object at 0x7f8c2ffa7458&gt;</div></td></tr><tr><td style="font-weight:bold;vertical-align:top;">cookies</td><td style="vertical-align:top;">:</td><td><div><table><tr><td style="font-weight:bold;vertical-align:top;">session_id_meioambienterp</td><td style="vertical-align:top;">:</td><td><div>127.0.0.1-693c7aa4-8118-485f-b94b-7b223474860a<table><tr><td style="font-weight:bold;vertical-align:top;">comment</td><td style="vertical-align:top;">:</td><td><div></div></td></tr><tr><td style="font-weight:bold;vertical-align:top;">domain</td><td style="vertical-align:top;">:</td><td><div></div></td></tr><tr><td style="font-weight:bold;vertical-align:top;">expires</td><td style="vertical-align:top;">:</td><td><div></div></td></tr><tr><td style="font-weight:bold;vertical-align:top;">httponly</td><td style="vertical-align:top;">:</td><td><div></div></td></tr><tr><td style="font-weight:bold;vertical-align:top;">max-age</td><td style="vertical-align:top;">:</td><td><div></div></td></tr><tr><td style="font-weight:bold;vertical-align:top;">path</td><td style="vertical-align:top;">:</td><td><div>/</div></td></tr><tr><td style="font-weight:bold;vertical-align:top;">samesite</td><td style="vertical-align:top;">:</td><td><div></div></td></tr><tr><td style="font-weight:bold;vertical-align:top;">secure</td><td style="vertical-align:top;">:</td><td><div></div></td></tr><tr><td style="font-weight:bold;vertical-align:top;">version</td><td style="vertical-align:top;">:</td><td><div></div></td></tr></table></div></td></tr></table></div></td></tr><tr><td style="font-weight:bold;vertical-align:top;">delimiters</td><td style="vertical-align:top;">:</td><td><div><table><tr><td><div>{{</div></td></tr><tr><td><div>}}</div></td></tr></table></div></td></tr><tr><td style="font-weight:bold;vertical-align:top;">files</td><td style="vertical-align:top;">:</td><td><div><table></table></div></td></tr><tr><td style="font-weight:bold;vertical-align:top;">flash</td><td style="vertical-align:top;">:</td><td><div></div></td></tr><tr><td style="font-weight:bold;vertical-align:top;">form_label_separator</td><td style="vertical-align:top;">:</td><td><div></div></td></tr><tr><td style="font-weight:bold;vertical-align:top;">formstyle</td><td style="vertical-align:top;">:</td><td><div>bootstrap4_inline</div></td></tr><tr><td style="font-weight:bold;vertical-align:top;">generic_patterns</td><td style="vertical-align:top;">:</td><td><div><table><tr><td><div>*</div></td></tr></table></div></td></tr><tr><td style="font-weight:bold;vertical-align:top;">google_analytics_id</td><td style="vertical-align:top;">:</td><td><div>None</div></td></tr><tr><td style="font-weight:bold;vertical-align:top;">headers</td><td style="vertical-align:top;">:</td><td><div><table><tr><td style="font-weight:bold;vertical-align:top;">X-Powered-By</td><td style="vertical-align:top;">:</td><td><div>web2py</div></td></tr></table></div></td></tr><tr><td style="font-weight:bold;vertical-align:top;">menu</td><td style="vertical-align:top;">:</td><td><div><table><tr><td><div><table><tr><td><div>projeto</div></td></tr><tr><td><div>False</div></td></tr><tr><td><div>/admin/default/design/MeioAmbienteRP</div></td></tr></table></div></td></tr><tr><td><div><table><tr><td><div>bd</div></td></tr><tr><td><div>False</div></td></tr><tr><td><div>/MeioAmbienteRP/appadmin/index</div></td></tr></table></div></td></tr><tr><td><div><table><tr><td><div>estado</div></td></tr><tr><td><div>False</div></td></tr><tr><td><div>/MeioAmbienteRP/appadmin/state</div></td></tr></table></div></td></tr><tr><td><div><table><tr><td><div>cache</div></td></tr><tr><td><div>False</div></td></tr><tr><td><div>/MeioAmbienteRP/appadmin/ccache</div></td></tr></table></div></td></tr></table></div></td></tr><tr><td style="font-weight:bold;vertical-align:top;">meta</td><td style="vertical-align:top;">:</td><td><div><table><tr><td style="font-weight:bold;vertical-align:top;">author</td><td style="vertical-align:top;">:</td><td><div>Carlos A Locatelli Jr &lt;call.jmail@gmail.com&gt;</div></td></tr><tr><td style="font-weight:bold;vertical-align:top;">description</td><td style="vertical-align:top;">:</td><td><div>Sistema Python Web2py e Banco Mysql Desenvolvido para gest\xc3\xa3o da SMAURB</div></td></tr><tr><td style="font-weight:bold;vertical-align:top;">generator</td><td style="vertical-align:top;">:</td><td><div>Web2py Web Framework</div></td></tr><tr><td style="font-weight:bold;vertical-align:top;">keywords</td><td style="vertical-align:top;">:</td><td><div><table><tr><td><div>web2py</div></td></tr><tr><td><div>python</div></td></tr><tr><td><div>framework</div></td></tr></table></div></td></tr></table></div></td></tr><tr><td style="font-weight:bold;vertical-align:top;">models_to_run</td><td style="vertical-align:top;">:</td><td><div><table><tr><td><div>^\\w+\\.py$</div></td></tr><tr><td><div>^appadmin/\\w+\\.py$</div></td></tr><tr><td><div>^appadmin/insert/\\w+\\.py$</div></td></tr></table></div></td></tr><tr><td style="font-weight:bold;vertical-align:top;">postprocessing</td><td style="vertical-align:top;">:</td><td><div><table></table></div></td></tr><tr><td style="font-weight:bold;vertical-align:top;">session_client</td><td style="vertical-align:top;">:</td><td><div>127.0.0.1</div></td></tr><tr><td style="font-weight:bold;vertical-align:top;">session_cookie_compression_level</td><td style="vertical-align:top;">:</td><td><div>None</div></td></tr><tr><td style="font-weight:bold;vertical-align:top;">session_cookie_expires</td><td style="vertical-align:top;">:</td><td><div>2592000</div></td></tr><tr><td style="font-weight:bold;vertical-align:top;">session_data_name</td><td style="vertical-align:top;">:</td><td><div>session_data_meioambienterp</div></td></tr><tr><td style="font-weight:bold;vertical-align:top;">session_file</td><td style="vertical-align:top;">:</td><td><div>&lt;open file &#x27;/home/smmau/Downloads/Programador/web2py/applications/MeioAmbienteRP/sessions/1f2/1b3/127.0.0.1-693c7aa4-8118-485f-b94b-7b223474860a&#x27;, mode &#x27;rb+&#x27; at 0x7f8c36a0dc90&gt;</div></td></tr><tr><td style="font-weight:bold;vertical-align:top;">session_filename</td><td style="vertical-align:top;">:</td><td><div>/home/smmau/Downloads/Programador/web2py/applications/MeioAmbienteRP/sessions/127.0.0.1-693c7aa4-8118-485f-b94b-7b223474860a</div></td></tr><tr><td style="font-weight:bold;vertical-align:top;">session_hash</td><td style="vertical-align:top;">:</td><td><div>d714b392ef7eb0e7520dcd97c46922d7</div></td></tr><tr><td style="font-weight:bold;vertical-align:top;">session_id</td><td style="vertical-align:top;">:</td><td><div>127.0.0.1-693c7aa4-8118-485f-b94b-7b223474860a</div></td></tr><tr><td style="font-weight:bold;vertical-align:top;">session_id_name</td><td style="vertical-align:top;">:</td><td><div>session_id_meioambienterp</div></td></tr><tr><td style="font-weight:bold;vertical-align:top;">session_locked</td><td style="vertical-align:top;">:</td><td><div>True</div></td></tr><tr><td style="font-weight:bold;vertical-align:top;">session_masterapp</td><td style="vertical-align:top;">:</td><td><div>MeioAmbienteRP</div></td></tr><tr><td style="font-weight:bold;vertical-align:top;">session_new</td><td style="vertical-align:top;">:</td><td><div>False</div></td></tr><tr><td style="font-weight:bold;vertical-align:top;">session_storage_type</td><td style="vertical-align:top;">:</td><td><div>file</div></td></tr><tr><td style="font-weight:bold;vertical-align:top;">show_toolbar</td><td style="vertical-align:top;">:</td><td><div>False</div></td></tr><tr><td style="font-weight:bold;vertical-align:top;">status</td><td style="vertical-align:top;">:</td><td><div>200</div></td></tr><tr><td style="font-weight:bold;vertical-align:top;">subtitle</td><td style="vertical-align:top;">:</td><td><div>Database Administration (appadmin)</div></td></tr><tr><td style="font-weight:bold;vertical-align:top;">view</td><td style="vertical-align:top;">:</td><td><div>appadmin.html</div></td></tr></table></div>'
tRp504
sS'locals'
p505
(dp506
S'self'
p507
S'<DAL uri="mysql:******@10.7.0.28/DBDocumentos">'
p508
sS'key'
p509
S"'dbpessoas'"
p510
sssS'traceback'
p511
S'Traceback (most recent call last):\n  File "/home/smmau/Downloads/Programador/web2py/gluon/restricted.py", line 219, in restricted\n    exec(ccode, environment)\n  File "/home/smmau/Downloads/Programador/web2py/applications/MeioAmbienteRP/controllers/appadmin.py", line 695, in <module>\n  File "/home/smmau/Downloads/Programador/web2py/gluon/globals.py", line 421, in <lambda>\n    self._caller = lambda f: f()\n  File "/home/smmau/Downloads/Programador/web2py/applications/MeioAmbienteRP/controllers/appadmin.py", line 147, in insert\n    if form.accepts(request.vars, session):\n  File "/home/smmau/Downloads/Programador/web2py/gluon/sqlhtml.py", line 1975, in accepts\n    self.vars.id = self.table.insert(**fields)\n  File "/home/smmau/Downloads/Programador/web2py/gluon/packages/dal/pydal/objects.py", line 764, in insert\n    ret = self._db._adapter.insert(self, row.op_values())\n  File "/home/smmau/Downloads/Programador/web2py/gluon/packages/dal/pydal/adapters/base.py", line 480, in insert\n    query = self._insert(table, fields)\n  File "/home/smmau/Downloads/Programador/web2py/gluon/packages/dal/pydal/adapters/base.py", line 476, in _insert\n    \',\'.join(self.expand(v, f.type) for f, v in fields))\n  File "/home/smmau/Downloads/Programador/web2py/gluon/packages/dal/pydal/adapters/base.py", line 476, in <genexpr>\n    \',\'.join(self.expand(v, f.type) for f, v in fields))\n  File "/home/smmau/Downloads/Programador/web2py/gluon/packages/dal/pydal/adapters/base.py", line 445, in _expand\n    rv = self.represent(expression, field_type)\n  File "/home/smmau/Downloads/Programador/web2py/gluon/packages/dal/pydal/adapters/base.py", line 382, in represent\n    return super(SQLAdapter, self).represent(obj, field_type)\n  File "/home/smmau/Downloads/Programador/web2py/gluon/packages/dal/pydal/adapters/base.py", line 336, in represent\n    return self.representer.represent(obj, field_type)\n  File "/home/smmau/Downloads/Programador/web2py/gluon/packages/dal/pydal/representers/__init__.py", line 251, in represent\n    rv = self.get_representer_for_type(field_type)(rv, field_type)\n  File "/home/smmau/Downloads/Programador/web2py/gluon/packages/dal/pydal/representers/__init__.py", line 139, in __call__\n    return self.adapt(self.call(value, field_type))\n  File "/home/smmau/Downloads/Programador/web2py/gluon/packages/dal/pydal/representers/__init__.py", line 133, in _call_with_extras\n    return self.inner_call(value, **extras)\n  File "/home/smmau/Downloads/Programador/web2py/gluon/packages/dal/pydal/representers/__init__.py", line 124, in _inner_call\n    return self.obj.f(self.representer, value, **kwargs)\n  File "/home/smmau/Downloads/Programador/web2py/gluon/packages/dal/pydal/representers/base.py", line 145, in _reference\n    ftype = self.adapter.db[p[0]][p[2]].type\n  File "/home/smmau/Downloads/Programador/web2py/gluon/packages/dal/pydal/base.py", line 666, in __getitem__\n    return self.__getattr__(str(key))\n  File "/home/smmau/Downloads/Programador/web2py/gluon/packages/dal/pydal/base.py", line 673, in __getattr__\n    return BasicStorage.__getattribute__(self, key)\nAttributeError: \'DAL\' object has no attribute \'dbpessoas\'\n'
p512
s.