(dp1
S'output'
p2
S"<type 'exceptions.NameError'> global name 'Logradouro' is not defined"
p3
sS'layer'
p4
S'/home/smmau/Downloads/Programador/web2py/applications/MeioAmbienteRP/controllers/appadmin.py'
p5
sS'code'
p6
S'<code object <module> at 0x7f8e0035b4b0, file "/home/smmau/Downloads/Programador/web2py/applications/MeioAmbienteRP/controllers/appadmin.py", line 7>'
p7
sS'snapshot'
p8
(dp9
S'exception'
p10
(dp11
S'__getslice__'
p12
S"<method-wrapper '__getslice__' of exceptions.NameError object>"
p13
sS'__str__'
p14
S"<method-wrapper '__str__' of exceptions.NameError object>"
p15
sS'__reduce__'
p16
S'<built-in method __reduce__ of exceptions.NameError object>'
p17
sS'__dict__'
p18
S'{}'
p19
sS'message'
p20
S'"global name \'Logradouro\' is not defined"'
p21
sS'__sizeof__'
p22
S'<built-in method __sizeof__ of exceptions.NameError object>'
p23
sS'__init__'
p24
S"<method-wrapper '__init__' of exceptions.NameError object>"
p25
sS'__setattr__'
p26
S"<method-wrapper '__setattr__' of exceptions.NameError object>"
p27
sS'__reduce_ex__'
p28
S'<built-in method __reduce_ex__ of exceptions.NameError object>'
p29
sS'__new__'
p30
S'<built-in method __new__ of type object>'
p31
sS'__format__'
p32
S'<built-in method __format__ of exceptions.NameError object>'
p33
sS'__class__'
p34
S"<type 'exceptions.NameError'>"
p35
sS'__doc__'
p36
S"'Name not found globally.'"
p37
sS'__getitem__'
p38
S"<method-wrapper '__getitem__' of exceptions.NameError object>"
p39
sS'__setstate__'
p40
S'<built-in method __setstate__ of exceptions.NameError object>'
p41
sS'__getattribute__'
p42
S"<method-wrapper '__getattribute__' of exceptions.NameError object>"
p43
sS'args'
p44
S'("global name \'Logradouro\' is not defined",)'
p45
sS'__subclasshook__'
p46
S'<built-in method __subclasshook__ of type object>'
p47
sS'__unicode__'
p48
S'<built-in method __unicode__ of exceptions.NameError object>'
p49
sS'__delattr__'
p50
S"<method-wrapper '__delattr__' of exceptions.NameError object>"
p51
sS'__repr__'
p52
S"<method-wrapper '__repr__' of exceptions.NameError object>"
p53
sS'__hash__'
p54
S"<method-wrapper '__hash__' of exceptions.NameError object>"
p55
ssS'evalue'
p56
S"global name 'Logradouro' is not defined"
p57
sS'request'
p58
cgluon.html
XML_unpickle
p59
(S'sVb\x00\x00<div><table><tr><td style="font-weight:bold;vertical-align:top;">ajax</td><td style="vertical-align:top;">:</td><td><div>False</div></td></tr><tr><td style="font-weight:bold;vertical-align:top;">application</td><td style="vertical-align:top;">:</td><td><div>MeioAmbienteRP</div></td></tr><tr><td style="font-weight:bold;vertical-align:top;">args</td><td style="vertical-align:top;">:</td><td><div><table><tr><td><div>dbpessoas</div></td></tr><tr><td><div>Pessoas</div></td></tr></table></div></td></tr><tr><td style="font-weight:bold;vertical-align:top;">cid</td><td style="vertical-align:top;">:</td><td><div>None</div></td></tr><tr><td style="font-weight:bold;vertical-align:top;">client</td><td style="vertical-align:top;">:</td><td><div>127.0.0.1</div></td></tr><tr><td style="font-weight:bold;vertical-align:top;">controller</td><td style="vertical-align:top;">:</td><td><div>appadmin</div></td></tr><tr><td style="font-weight:bold;vertical-align:top;">cookies</td><td style="vertical-align:top;">:</td><td><div><table><tr><td style="font-weight:bold;vertical-align:top;">session_id_admin</td><td style="vertical-align:top;">:</td><td><div>127.0.0.1-6424dd56-5d9d-4f3b-8431-d5bf611f8c5a<table><tr><td style="font-weight:bold;vertical-align:top;">comment</td><td style="vertical-align:top;">:</td><td><div></div></td></tr><tr><td style="font-weight:bold;vertical-align:top;">domain</td><td style="vertical-align:top;">:</td><td><div></div></td></tr><tr><td style="font-weight:bold;vertical-align:top;">expires</td><td style="vertical-align:top;">:</td><td><div></div></td></tr><tr><td style="font-weight:bold;vertical-align:top;">httponly</td><td style="vertical-align:top;">:</td><td><div></div></td></tr><tr><td style="font-weight:bold;vertical-align:top;">max-age</td><td style="vertical-align:top;">:</td><td><div></div></td></tr><tr><td style="font-weight:bold;vertical-align:top;">path</td><td style="vertical-align:top;">:</td><td><div></div></td></tr><tr><td style="font-weight:bold;vertical-align:top;">samesite</td><td style="vertical-align:top;">:</td><td><div></div></td></tr><tr><td style="font-weight:bold;vertical-align:top;">secure</td><td style="vertical-align:top;">:</td><td><div></div></td></tr><tr><td style="font-weight:bold;vertical-align:top;">version</td><td style="vertical-align:top;">:</td><td><div></div></td></tr></table></div></td></tr><tr><td style="font-weight:bold;vertical-align:top;">session_id_meioambienterp</td><td style="vertical-align:top;">:</td><td><div>127.0.0.1-2daf79ba-3adb-48f0-a59e-6c17a3d9e8f8<table><tr><td style="font-weight:bold;vertical-align:top;">comment</td><td style="vertical-align:top;">:</td><td><div></div></td></tr><tr><td style="font-weight:bold;vertical-align:top;">domain</td><td style="vertical-align:top;">:</td><td><div></div></td></tr><tr><td style="font-weight:bold;vertical-align:top;">expires</td><td style="vertical-align:top;">:</td><td><div></div></td></tr><tr><td style="font-weight:bold;vertical-align:top;">httponly</td><td style="vertical-align:top;">:</td><td><div></div></td></tr><tr><td style="font-weight:bold;vertical-align:top;">max-age</td><td style="vertical-align:top;">:</td><td><div></div></td></tr><tr><td style="font-weight:bold;vertical-align:top;">path</td><td style="vertical-align:top;">:</td><td><div></div></td></tr><tr><td style="font-weight:bold;vertical-align:top;">samesite</td><td style="vertical-align:top;">:</td><td><div></div></td></tr><tr><td style="font-weight:bold;vertical-align:top;">secure</td><td style="vertical-align:top;">:</td><td><div></div></td></tr><tr><td style="font-weight:bold;vertical-align:top;">version</td><td style="vertical-align:top;">:</td><td><div></div></td></tr></table></div></td></tr><tr><td style="font-weight:bold;vertical-align:top;">session_id_welcome</td><td style="vertical-align:top;">:</td><td><div>127.0.0.1-4396d6ec-dd4c-4f60-b1aa-ebf655b0abc5<table><tr><td style="font-weight:bold;vertical-align:top;">comment</td><td style="vertical-align:top;">:</td><td><div></div></td></tr><tr><td style="font-weight:bold;vertical-align:top;">domain</td><td style="vertical-align:top;">:</td><td><div></div></td></tr><tr><td style="font-weight:bold;vertical-align:top;">expires</td><td style="vertical-align:top;">:</td><td><div></div></td></tr><tr><td style="font-weight:bold;vertical-align:top;">httponly</td><td style="vertical-align:top;">:</td><td><div></div></td></tr><tr><td style="font-weight:bold;vertical-align:top;">max-age</td><td style="vertical-align:top;">:</td><td><div></div></td></tr><tr><td style="font-weight:bold;vertical-align:top;">path</td><td style="vertical-align:top;">:</td><td><div></div></td></tr><tr><td style="font-weight:bold;vertical-align:top;">samesite</td><td style="vertical-align:top;">:</td><td><div></div></td></tr><tr><td style="font-weight:bold;vertical-align:top;">secure</td><td style="vertical-align:top;">:</td><td><div></div></td></tr><tr><td style="font-weight:bold;vertical-align:top;">version</td><td style="vertical-align:top;">:</td><td><div></div></td></tr></table></div></td></tr></table></div></td></tr><tr><td style="font-weight:bold;vertical-align:top;">env</td><td style="vertical-align:top;">:</td><td><div><table><tr><td style="font-weight:bold;vertical-align:top;">HTTP_ACCEPT</td><td style="vertical-align:top;">:</td><td><div>text/html,application/xhtml+xml,application/xml;q=0.9,*/*;q=0.8</div></td></tr><tr><td style="font-weight:bold;vertical-align:top;">HTTP_ACCEPT_ENCODING</td><td style="vertical-align:top;">:</td><td><div>gzip, deflate</div></td></tr><tr><td style="font-weight:bold;vertical-align:top;">HTTP_ACCEPT_LANGUAGE</td><td style="vertical-align:top;">:</td><td><div>pt-BR</div></td></tr><tr><td style="font-weight:bold;vertical-align:top;">HTTP_CACHE_CONTROL</td><td style="vertical-align:top;">:</td><td><div>max-age=0</div></td></tr><tr><td style="font-weight:bold;vertical-align:top;">HTTP_CONNECTION</td><td style="vertical-align:top;">:</td><td><div>keep-alive</div></td></tr><tr><td style="font-weight:bold;vertical-align:top;">HTTP_COOKIE</td><td style="vertical-align:top;">:</td><td><div>session_id_welcome=127.0.0.1-4396d6ec-dd4c-4f60-b1aa-ebf655b0abc5; session_id_admin=127.0.0.1-6424dd56-5d9d-4f3b-8431-d5bf611f8c5a; session_id_meioambienterp=127.0.0.1-2daf79ba-3adb-48f0-a59e-6c17a3d9e8f8</div></td></tr><tr><td style="font-weight:bold;vertical-align:top;">HTTP_DNT</td><td style="vertical-align:top;">:</td><td><div>1</div></td></tr><tr><td style="font-weight:bold;vertical-align:top;">HTTP_HOST</td><td style="vertical-align:top;">:</td><td><div>127.0.0.1:8000</div></td></tr><tr><td style="font-weight:bold;vertical-align:top;">HTTP_REFERER</td><td style="vertical-align:top;">:</td><td><div>http://127.0.0.1:8000/MeioAmbienteRP/appadmin/index</div></td></tr><tr><td style="font-weight:bold;vertical-align:top;">HTTP_UPGRADE_INSECURE_REQUESTS</td><td style="vertical-align:top;">:</td><td><div>1</div></td></tr><tr><td style="font-weight:bold;vertical-align:top;">HTTP_USER_AGENT</td><td style="vertical-align:top;">:</td><td><div>Mozilla/5.0 (X11; Ubuntu; Linux x86_64; rv:66.0) Gecko/20100101 Firefox/66.0</div></td></tr><tr><td style="font-weight:bold;vertical-align:top;">PATH_INFO</td><td style="vertical-align:top;">:</td><td><div>/MeioAmbienteRP/appadmin/insert/dbpessoas/Pessoas</div></td></tr><tr><td style="font-weight:bold;vertical-align:top;">QUERY_STRING</td><td style="vertical-align:top;">:</td><td><div></div></td></tr><tr><td style="font-weight:bold;vertical-align:top;">REMOTE_ADDR</td><td style="vertical-align:top;">:</td><td><div>127.0.0.1</div></td></tr><tr><td style="font-weight:bold;vertical-align:top;">REMOTE_PORT</td><td style="vertical-align:top;">:</td><td><div>55754</div></td></tr><tr><td style="font-weight:bold;vertical-align:top;">REQUEST_METHOD</td><td style="vertical-align:top;">:</td><td><div>GET</div></td></tr><tr><td style="font-weight:bold;vertical-align:top;">SCRIPT_NAME</td><td style="vertical-align:top;">:</td><td><div></div></td></tr><tr><td style="font-weight:bold;vertical-align:top;">SERVER_NAME</td><td style="vertical-align:top;">:</td><td><div>smmau-004-pc004</div></td></tr><tr><td style="font-weight:bold;vertical-align:top;">SERVER_PORT</td><td style="vertical-align:top;">:</td><td><div>8000</div></td></tr><tr><td style="font-weight:bold;vertical-align:top;">SERVER_PROTOCOL</td><td style="vertical-align:top;">:</td><td><div>HTTP/1.1</div></td></tr><tr><td style="font-weight:bold;vertical-align:top;">SERVER_SOFTWARE</td><td style="vertical-align:top;">:</td><td><div>Rocket 1.2.6</div></td></tr><tr><td style="font-weight:bold;vertical-align:top;">app_folders</td><td style="vertical-align:top;">:</td><td><div>set([&#x27;/home/smmau/Downloads/Programador/web2py/applications/admin/&#x27;, &#x27;/home/smmau/Downloads/Programador/web2py/applications/MeioAmbienteRP/&#x27;, &#x27;/home/smmau/Downloads/Programador/web2py/applications/welcome/&#x27;])</div></td></tr><tr><td style="font-weight:bold;vertical-align:top;">applications_parent</td><td style="vertical-align:top;">:</td><td><div>/home/smmau/Downloads/Programador/web2py</div></td></tr><tr><td style="font-weight:bold;vertical-align:top;">cmd_args</td><td style="vertical-align:top;">:</td><td><div><table></table></div></td></tr><tr><td style="font-weight:bold;vertical-align:top;">cmd_options</td><td style="vertical-align:top;">:</td><td><div>&lt;Values at 0x7f8e1c506098: {&#x27;verbose&#x27;: False, &#x27;ip&#x27;: &#x27;127.0.0.1&#x27;, &#x27;debuglevel&#x27;: 30, &#x27;with_scheduler&#x27;: False, &#x27;shutdown_timeout&#x27;: 5, &#x27;taskbar&#x27;: False, &#x27;with_coverage&#x27;: False, &#x27;pid_filename&#x27;: &#x27;httpserver.pid&#x27;, &#x27;maxthreads&#x27;: None, &#x27;softcron&#x27;: False, &#x27;server_name&#x27;: &#x27;smmau-004-pc004&#x27;, &#x27;bpython&#x27;: False, &#x27;nogui&#x27;: False, &#x27;port&#x27;: 8000, &#x27;print_errors&#x27;: False, &#x27;extcron&#x27;: False, &#x27;runcron&#x27;: False, &#x27;run_system_tests&#x27;: False, &#x27;test&#x27;: None, &#x27;folder&#x27;: &#x27;/home/smmau/Downloads/Programador/web2py&#x27;, &#x27;config&#x27;: &#x27;&#x27;, &#x27;minthreads&#x27;: None, &#x27;shell&#x27;: None, &#x27;run&#x27;: &#x27;&#x27;, &#x27;log_filename&#x27;: &#x27;httpserver.log&#x27;, &#x27;profiler_dir&#x27;: None, &#x27;args&#x27;: [&#x27;&#x27;], &#x27;socket_timeout&#x27;: 5, &#x27;ssl_ca_certificate&#x27;: None, &#x27;scheduler&#x27;: None, &#x27;interfaces&#x27;: None, &#x27;ssl_private_key&#x27;: &#x27;&#x27;, &#x27;gae&#x27;: None, &#x27;password&#x27;: &#x27;******&#x27;, &#x27;request_queue_size&#x27;: 5, &#x27;ssl_certificate&#x27;: &#x27;&#x27;, &#x27;cronjob&#x27;: False, &#x27;numthreads&#x27;: None, &#x27;quiet&#x27;: False, &#x27;import_models&#x27;: False, &#x27;timeout&#x27;: 10, &#x27;plain&#x27;: False, &#x27;nobanner&#x27;: False}&gt;</div></td></tr><tr><td style="font-weight:bold;vertical-align:top;">db_sessions</td><td style="vertical-align:top;">:</td><td><div>set([])</div></td></tr><tr><td style="font-weight:bold;vertical-align:top;">debugging</td><td style="vertical-align:top;">:</td><td><div>False</div></td></tr><tr><td style="font-weight:bold;vertical-align:top;">gluon_parent</td><td style="vertical-align:top;">:</td><td><div>/home/smmau/Downloads/Programador/web2py</div></td></tr><tr><td style="font-weight:bold;vertical-align:top;">http_accept</td><td style="vertical-align:top;">:</td><td><div>text/html,application/xhtml+xml,application/xml;q=0.9,*/*;q=0.8</div></td></tr><tr><td style="font-weight:bold;vertical-align:top;">http_accept_encoding</td><td style="vertical-align:top;">:</td><td><div>gzip, deflate</div></td></tr><tr><td style="font-weight:bold;vertical-align:top;">http_accept_language</td><td style="vertical-align:top;">:</td><td><div>pt-BR</div></td></tr><tr><td style="font-weight:bold;vertical-align:top;">http_cache_control</td><td style="vertical-align:top;">:</td><td><div>max-age=0</div></td></tr><tr><td style="font-weight:bold;vertical-align:top;">http_connection</td><td style="vertical-align:top;">:</td><td><div>keep-alive</div></td></tr><tr><td style="font-weight:bold;vertical-align:top;">http_cookie</td><td style="vertical-align:top;">:</td><td><div>session_id_welcome=127.0.0.1-4396d6ec-dd4c-4f60-b1aa-ebf655b0abc5; session_id_admin=127.0.0.1-6424dd56-5d9d-4f3b-8431-d5bf611f8c5a; session_id_meioambienterp=127.0.0.1-2daf79ba-3adb-48f0-a59e-6c17a3d9e8f8</div></td></tr><tr><td style="font-weight:bold;vertical-align:top;">http_dnt</td><td style="vertical-align:top;">:</td><td><div>1</div></td></tr><tr><td style="font-weight:bold;vertical-align:top;">http_host</td><td style="vertical-align:top;">:</td><td><div>127.0.0.1:8000</div></td></tr><tr><td style="font-weight:bold;vertical-align:top;">http_referer</td><td style="vertical-align:top;">:</td><td><div>http://127.0.0.1:8000/MeioAmbienteRP/appadmin/index</div></td></tr><tr><td style="font-weight:bold;vertical-align:top;">http_upgrade_insecure_requests</td><td style="vertical-align:top;">:</td><td><div>1</div></td></tr><tr><td style="font-weight:bold;vertical-align:top;">http_user_agent</td><td style="vertical-align:top;">:</td><td><div>Mozilla/5.0 (X11; Ubuntu; Linux x86_64; rv:66.0) Gecko/20100101 Firefox/66.0</div></td></tr><tr><td style="font-weight:bold;vertical-align:top;">is_jython</td><td style="vertical-align:top;">:</td><td><div>False</div></td></tr><tr><td style="font-weight:bold;vertical-align:top;">is_py2</td><td style="vertical-align:top;">:</td><td><div>True</div></td></tr><tr><td style="font-weight:bold;vertical-align:top;">is_pypy</td><td style="vertical-align:top;">:</td><td><div>False</div></td></tr><tr><td style="font-weight:bold;vertical-align:top;">is_source</td><td style="vertical-align:top;">:</td><td><div>True</div></td></tr><tr><td style="font-weight:bold;vertical-align:top;">local_hosts</td><td style="vertical-align:top;">:</td><td><div><table><tr><td><div>smmau-004-pc004</div></td></tr><tr><td><div>::1</div></td></tr><tr><td><div>::ffff:127.0.0.1</div></td></tr><tr><td><div>127.0.0.1</div></td></tr><tr><td><div>smmau-004-pc004.REDE-EMPRO.empro.com.br</div></td></tr></table></div></td></tr><tr><td style="font-weight:bold;vertical-align:top;">path_info</td><td style="vertical-align:top;">:</td><td><div>/MeioAmbienteRP/appadmin/insert/dbpessoas/Pessoas</div></td></tr><tr><td style="font-weight:bold;vertical-align:top;">query_string</td><td style="vertical-align:top;">:</td><td><div></div></td></tr><tr><td style="font-weight:bold;vertical-align:top;">remote_addr</td><td style="vertical-align:top;">:</td><td><div>127.0.0.1</div></td></tr><tr><td style="font-weight:bold;vertical-align:top;">remote_port</td><td style="vertical-align:top;">:</td><td><div>55754</div></td></tr><tr><td style="font-weight:bold;vertical-align:top;">request_method</td><td style="vertical-align:top;">:</td><td><div>GET</div></td></tr><tr><td style="font-weight:bold;vertical-align:top;">request_uri</td><td style="vertical-align:top;">:</td><td><div>/MeioAmbienteRP/appadmin/insert/dbpessoas/Pessoas</div></td></tr><tr><td style="font-weight:bold;vertical-align:top;">script_name</td><td style="vertical-align:top;">:</td><td><div></div></td></tr><tr><td style="font-weight:bold;vertical-align:top;">server_name</td><td style="vertical-align:top;">:</td><td><div>smmau-004-pc004</div></td></tr><tr><td style="font-weight:bold;vertical-align:top;">server_port</td><td style="vertical-align:top;">:</td><td><div>8000</div></td></tr><tr><td style="font-weight:bold;vertical-align:top;">server_protocol</td><td style="vertical-align:top;">:</td><td><div>HTTP/1.1</div></td></tr><tr><td style="font-weight:bold;vertical-align:top;">server_software</td><td style="vertical-align:top;">:</td><td><div>Rocket 1.2.6</div></td></tr><tr><td style="font-weight:bold;vertical-align:top;">web2py_path</td><td style="vertical-align:top;">:</td><td><div>/home/smmau/Downloads/Programador/web2py</div></td></tr><tr><td style="font-weight:bold;vertical-align:top;">web2py_version</td><td style="vertical-align:top;">:</td><td><div>2.17.2-stable+timestamp.2018.10.06.18.54.02</div></td></tr><tr><td style="font-weight:bold;vertical-align:top;">wsgi.errors</td><td style="vertical-align:top;">:</td><td><div>&lt;open file &#x27;&lt;stderr&gt;&#x27;, mode &#x27;w&#x27; at 0x7f8e29fd31e0&gt;</div></td></tr><tr><td style="font-weight:bold;vertical-align:top;">wsgi.file_wrapper</td><td style="vertical-align:top;">:</td><td><div>&lt;class wsgiref.util.FileWrapper at 0x7f8e27842668&gt;</div></td></tr><tr><td style="font-weight:bold;vertical-align:top;">wsgi.input</td><td style="vertical-align:top;">:</td><td><div>&lt;socket._fileobject object at 0x7f8e00780bd0&gt;</div></td></tr><tr><td style="font-weight:bold;vertical-align:top;">wsgi.multiprocess</td><td style="vertical-align:top;">:</td><td><div>False</div></td></tr><tr><td style="font-weight:bold;vertical-align:top;">wsgi.multithread</td><td style="vertical-align:top;">:</td><td><div>True</div></td></tr><tr><td style="font-weight:bold;vertical-align:top;">wsgi.run_once</td><td style="vertical-align:top;">:</td><td><div>False</div></td></tr><tr><td style="font-weight:bold;vertical-align:top;">wsgi.url_scheme</td><td style="vertical-align:top;">:</td><td><div>http</div></td></tr><tr><td style="font-weight:bold;vertical-align:top;">wsgi.version</td><td style="vertical-align:top;">:</td><td><div><table><tr><td><div>1</div></td></tr><tr><td><div>0</div></td></tr></table></div></td></tr><tr><td style="font-weight:bold;vertical-align:top;">wsgi_errors</td><td style="vertical-align:top;">:</td><td><div>&lt;open file &#x27;&lt;stderr&gt;&#x27;, mode &#x27;w&#x27; at 0x7f8e29fd31e0&gt;</div></td></tr><tr><td style="font-weight:bold;vertical-align:top;">wsgi_file_wrapper</td><td style="vertical-align:top;">:</td><td><div>&lt;class wsgiref.util.FileWrapper at 0x7f8e27842668&gt;</div></td></tr><tr><td style="font-weight:bold;vertical-align:top;">wsgi_input</td><td style="vertical-align:top;">:</td><td><div>&lt;socket._fileobject object at 0x7f8e00780bd0&gt;</div></td></tr><tr><td style="font-weight:bold;vertical-align:top;">wsgi_multiprocess</td><td style="vertical-align:top;">:</td><td><div>False</div></td></tr><tr><td style="font-weight:bold;vertical-align:top;">wsgi_multithread</td><td style="vertical-align:top;">:</td><td><div>True</div></td></tr><tr><td style="font-weight:bold;vertical-align:top;">wsgi_run_once</td><td style="vertical-align:top;">:</td><td><div>False</div></td></tr><tr><td style="font-weight:bold;vertical-align:top;">wsgi_url_scheme</td><td style="vertical-align:top;">:</td><td><div>http</div></td></tr><tr><td style="font-weight:bold;vertical-align:top;">wsgi_version</td><td style="vertical-align:top;">:</td><td><div><table><tr><td><div>1</div></td></tr><tr><td><div>0</div></td></tr></table></div></td></tr></table></div></td></tr><tr><td style="font-weight:bold;vertical-align:top;">extension</td><td style="vertical-align:top;">:</td><td><div>html</div></td></tr><tr><td style="font-weight:bold;vertical-align:top;">folder</td><td style="vertical-align:top;">:</td><td><div>/home/smmau/Downloads/Programador/web2py/applications/MeioAmbienteRP/</div></td></tr><tr><td style="font-weight:bold;vertical-align:top;">function</td><td style="vertical-align:top;">:</td><td><div>insert</div></td></tr><tr><td style="font-weight:bold;vertical-align:top;">global_settings</td><td style="vertical-align:top;">:</td><td><div><table><tr><td style="font-weight:bold;vertical-align:top;">app_folders</td><td style="vertical-align:top;">:</td><td><div>set([&#x27;/home/smmau/Downloads/Programador/web2py/applications/admin/&#x27;, &#x27;/home/smmau/Downloads/Programador/web2py/applications/MeioAmbienteRP/&#x27;, &#x27;/home/smmau/Downloads/Programador/web2py/applications/welcome/&#x27;])</div></td></tr><tr><td style="font-weight:bold;vertical-align:top;">applications_parent</td><td style="vertical-align:top;">:</td><td><div>/home/smmau/Downloads/Programador/web2py</div></td></tr><tr><td style="font-weight:bold;vertical-align:top;">cmd_args</td><td style="vertical-align:top;">:</td><td><div><table></table></div></td></tr><tr><td style="font-weight:bold;vertical-align:top;">cmd_options</td><td style="vertical-align:top;">:</td><td><div>&lt;Values at 0x7f8e1c506098: {&#x27;verbose&#x27;: False, &#x27;ip&#x27;: &#x27;127.0.0.1&#x27;, &#x27;debuglevel&#x27;: 30, &#x27;with_scheduler&#x27;: False, &#x27;shutdown_timeout&#x27;: 5, &#x27;taskbar&#x27;: False, &#x27;with_coverage&#x27;: False, &#x27;pid_filename&#x27;: &#x27;httpserver.pid&#x27;, &#x27;maxthreads&#x27;: None, &#x27;softcron&#x27;: False, &#x27;server_name&#x27;: &#x27;smmau-004-pc004&#x27;, &#x27;bpython&#x27;: False, &#x27;nogui&#x27;: False, &#x27;port&#x27;: 8000, &#x27;print_errors&#x27;: False, &#x27;extcron&#x27;: False, &#x27;runcron&#x27;: False, &#x27;run_system_tests&#x27;: False, &#x27;test&#x27;: None, &#x27;folder&#x27;: &#x27;/home/smmau/Downloads/Programador/web2py&#x27;, &#x27;config&#x27;: &#x27;&#x27;, &#x27;minthreads&#x27;: None, &#x27;shell&#x27;: None, &#x27;run&#x27;: &#x27;&#x27;, &#x27;log_filename&#x27;: &#x27;httpserver.log&#x27;, &#x27;profiler_dir&#x27;: None, &#x27;args&#x27;: [&#x27;&#x27;], &#x27;socket_timeout&#x27;: 5, &#x27;ssl_ca_certificate&#x27;: None, &#x27;scheduler&#x27;: None, &#x27;interfaces&#x27;: None, &#x27;ssl_private_key&#x27;: &#x27;&#x27;, &#x27;gae&#x27;: None, &#x27;password&#x27;: &#x27;******&#x27;, &#x27;request_queue_size&#x27;: 5, &#x27;ssl_certificate&#x27;: &#x27;&#x27;, &#x27;cronjob&#x27;: False, &#x27;numthreads&#x27;: None, &#x27;quiet&#x27;: False, &#x27;import_models&#x27;: False, &#x27;timeout&#x27;: 10, &#x27;plain&#x27;: False, &#x27;nobanner&#x27;: False}&gt;</div></td></tr><tr><td style="font-weight:bold;vertical-align:top;">db_sessions</td><td style="vertical-align:top;">:</td><td><div>set([])</div></td></tr><tr><td style="font-weight:bold;vertical-align:top;">debugging</td><td style="vertical-align:top;">:</td><td><div>False</div></td></tr><tr><td style="font-weight:bold;vertical-align:top;">gluon_parent</td><td style="vertical-align:top;">:</td><td><div>/home/smmau/Downloads/Programador/web2py</div></td></tr><tr><td style="font-weight:bold;vertical-align:top;">is_jython</td><td style="vertical-align:top;">:</td><td><div>False</div></td></tr><tr><td style="font-weight:bold;vertical-align:top;">is_py2</td><td style="vertical-align:top;">:</td><td><div>True</div></td></tr><tr><td style="font-weight:bold;vertical-align:top;">is_pypy</td><td style="vertical-align:top;">:</td><td><div>False</div></td></tr><tr><td style="font-weight:bold;vertical-align:top;">is_source</td><td style="vertical-align:top;">:</td><td><div>True</div></td></tr><tr><td style="font-weight:bold;vertical-align:top;">local_hosts</td><td style="vertical-align:top;">:</td><td><div><table><tr><td><div>smmau-004-pc004</div></td></tr><tr><td><div>::1</div></td></tr><tr><td><div>::ffff:127.0.0.1</div></td></tr><tr><td><div>127.0.0.1</div></td></tr><tr><td><div>smmau-004-pc004.REDE-EMPRO.empro.com.br</div></td></tr></table></div></td></tr><tr><td style="font-weight:bold;vertical-align:top;">web2py_version</td><td style="vertical-align:top;">:</td><td><div>2.17.2-stable+timestamp.2018.10.06.18.54.02</div></td></tr></table></div></td></tr><tr><td style="font-weight:bold;vertical-align:top;">is_https</td><td style="vertical-align:top;">:</td><td><div>False</div></td></tr><tr><td style="font-weight:bold;vertical-align:top;">is_local</td><td style="vertical-align:top;">:</td><td><div>True</div></td></tr><tr><td style="font-weight:bold;vertical-align:top;">is_restful</td><td style="vertical-align:top;">:</td><td><div>False</div></td></tr><tr><td style="font-weight:bold;vertical-align:top;">is_scheduler</td><td style="vertical-align:top;">:</td><td><div>False</div></td></tr><tr><td style="font-weight:bold;vertical-align:top;">is_shell</td><td style="vertical-align:top;">:</td><td><div>False</div></td></tr><tr><td style="font-weight:bold;vertical-align:top;">method</td><td style="vertical-align:top;">:</td><td><div>GET</div></td></tr><tr><td style="font-weight:bold;vertical-align:top;">now</td><td style="vertical-align:top;">:</td><td><div>datetime.datetime(2019, 5, 17, 16, 51, 15, 470767)</div></td></tr><tr><td style="font-weight:bold;vertical-align:top;">raw_args</td><td style="vertical-align:top;">:</td><td><div>dbpessoas/Pessoas</div></td></tr><tr><td style="font-weight:bold;vertical-align:top;">raw_extension</td><td style="vertical-align:top;">:</td><td><div>None</div></td></tr><tr><td style="font-weight:bold;vertical-align:top;">url</td><td style="vertical-align:top;">:</td><td><div>/MeioAmbienteRP/appadmin/insert/dbpessoas/Pessoas</div></td></tr><tr><td style="font-weight:bold;vertical-align:top;">utcnow</td><td style="vertical-align:top;">:</td><td><div>datetime.datetime(2019, 5, 17, 19, 51, 15, 470795)</div></td></tr><tr><td style="font-weight:bold;vertical-align:top;">wsgi</td><td style="vertical-align:top;">:</td><td><div>&lt;gluon.main.LazyWSGI object at 0x7f8de2f5c550&gt;</div></td></tr></table></div>'
tRp60
sS'frames'
p61
(lp62
(dp63
S'file'
p64
S'/home/smmau/Downloads/Programador/web2py/gluon/restricted.py'
p65
sS'dump'
p66
(dp67
S'environment'
p68
S"{'A': <class 'gluon.html.A'>, 'A3pDicas': <Table A3pDicas (id, Titulo, body, Tags, is_acti...reated_on, created_by, modified_on, modified_by)>, 'A3pLixos': <Table A3pLixos (Id, IdPredio, Data, Tipo, Qtd)>, 'ANY_OF': <class 'gluon.validators.ANY_OF'>, 'ASSIGNJS': <function ASSIGNJS>, 'AppConfig': <function AppConfig>, 'Auth': <class 'gluon.tools.Auth'>, 'B': <class 'gluon.html.B'>, 'BEAUTIFY': <class 'gluon.html.BEAUTIFY'>, 'BODY': <class 'gluon.html.BODY'>, ...}"
p69
sS'ccode'
p70
S'<code object <module> at 0x7f8e0035b4b0, file "/.../MeioAmbienteRP/controllers/appadmin.py", line 7>'
p71
ssS'lnum'
p72
I219
sS'lines'
p73
(dp74
I214
S'    if environment is None:'
p75
sI215
S'        environment = {}'
p76
sI216
S"    environment['__file__'] = layer"
p77
sI217
S"    environment['__name__'] = '__restricted__'"
p78
sI218
S'    try:'
p79
sI219
S'        exec(ccode, environment)'
p80
sI220
S'    except HTTP:'
p81
sI221
S'        raise'
p82
sI222
S'    except RestrictedError:'
p83
sI223
S'        # do not encapsulate (obfuscate) the original RestrictedError'
p84
ssS'call'
p85
S'(ccode=<code object <module> at 0x7f8e0035b4b0, file "/.../MeioAmbienteRP/controllers/appadmin.py", line 7>, environment={\'A\': <class \'gluon.html.A\'>, \'A3pDicas\': <Table A3pDicas (id, Titulo, body, Tags, is_acti...reated_on, created_by, modified_on, modified_by)>, \'A3pLixos\': <Table A3pLixos (Id, IdPredio, Data, Tipo, Qtd)>, \'ANY_OF\': <class \'gluon.validators.ANY_OF\'>, \'ASSIGNJS\': <function ASSIGNJS>, \'AppConfig\': <function AppConfig>, \'Auth\': <class \'gluon.tools.Auth\'>, \'B\': <class \'gluon.html.B\'>, \'BEAUTIFY\': <class \'gluon.html.BEAUTIFY\'>, \'BODY\': <class \'gluon.html.BODY\'>, ...}, layer=\'/home/smmau/Downloads/Programador/web2py/applications/MeioAmbienteRP/controllers/appadmin.py\', scode=<code object <module> at 0x7f8e0035b4b0, file "/.../MeioAmbienteRP/controllers/appadmin.py", line 7>)'
p86
sS'func'
p87
S'restricted'
p88
sa(dp89
g64
S'/home/smmau/Downloads/Programador/web2py/applications/MeioAmbienteRP/controllers/appadmin.py'
p90
sg66
(dp91
sg72
I695
sg73
(dp92
I684
S"                    referenced_table = f_type.split()[1].split('.')[0]"
p93
sI685
S''
sI686
S'                    links.append(dict(source=tablename, target = referenced_table))'
p94
sI687
S''
sI688
S'            nodes.append(dict(name=tablename, type="table", fields = fields))'
p95
sI689
S''
sI690
S'    # d3 v4 allows individual modules to be specified.  The complete d3 library is included below.'
p96
sI691
S"    response.files.append(URL('admin','static','js/d3.min.js'))"
p97
sI692
S"    response.files.append(URL('admin','static','js/d3_graph.js'))"
p98
sI693
S'    return dict(databases=databases, nodes=nodes, links=links)'
p99
ssg85
S'()'
p100
sg87
S'<module>'
p101
sa(dp102
g64
S'/home/smmau/Downloads/Programador/web2py/gluon/globals.py'
p103
sg66
(dp104
S'self'
p105
S'undefined'
p106
sS'f'
S'<function insert>'
p107
ssg72
I421
sg73
(dp108
I416
S"        self.flash = ''            # used by the default view layout"
p109
sI417
S'        self.meta = Storage()      # used by web2py_ajax.html'
p110
sI418
S'        self.menu = []             # used by the default view layout'
p111
sI419
S'        self.files = []            # used by web2py_ajax.html'
p112
sI420
S'        self._vars = None'
p113
sI421
S'        self._caller = lambda f: f()'
p114
sI422
S'        self._view_environment = None'
p115
sI423
S'        self._custom_commit = None'
p116
sI424
S'        self._custom_rollback = None'
p117
sI425
S"        self.generic_patterns = ['*']"
p118
ssg85
S'(f=<function insert>)'
p119
sg87
S'<lambda>'
p120
sa(dp121
g64
S'/home/smmau/Downloads/Programador/web2py/applications/MeioAmbienteRP/controllers/appadmin.py'
p122
sg66
(dp123
S'global SQLFORM'
p124
S"<class 'gluon.sqlhtml.SQLFORM'>"
p125
sS'db'
p126
S'<DAL uri="mysql:******@10.7.0.28/DBPessoas">'
p127
sS'global ignore_rw'
p128
S'True'
p129
sS'form'
p130
g106
sS'table'
p131
S"'Pessoas'"
p132
ssg72
I146
sg73
(dp133
I141
S'# ###########################################################'
p134
sI142
S''
sI143
S''
sI144
S'def insert():'
p135
sI145
S'    (db, table) = get_table(request)'
p136
sI146
S'    form = SQLFORM(db[table], ignore_rw=ignore_rw)'
p137
sI147
S'    if form.accepts(request.vars, session):'
p138
sI148
S"        response.flash = T('new record inserted')"
p139
sI149
S'    return dict(form=form, table=db[table])'
p140
sI150
S''
ssg85
S'()'
p141
sg87
S'insert'
p142
sa(dp143
g64
S'/home/smmau/Downloads/Programador/web2py/gluon/sqlhtml.py'
p144
sg66
(dp145
S'default'
p146
S'None'
p147
sS'self.widgets.options.widget'
p148
S"<bound method type.widget of <class 'gluon.sqlhtml.OptionsWidget'>>"
p149
sS'self'
p150
S'<gluon.sqlhtml.SQLFORM object>'
p151
sS'inp'
p152
S'<gluon.html.TEXTAREA object>'
p153
sS'self.widgets'
p154
S"<Storage {'multiple': <class 'gluon.sqlhtml.Mult...ss 'gluon.sqlhtml.OptionsWidget'>, 'blob': None}>"
p155
sS'field'
p156
S'<pydal.objects.Field object>'
p157
sS'self.widgets.options'
p158
S"<class 'gluon.sqlhtml.OptionsWidget'>"
p159
ssg72
I1523
sg73
(dp160
I1518
S"                    inpval = 'checked'"
p161
sI1519
S'                else:'
p162
sI1520
S"                    inpval = ''"
p163
sI1521
S'            elif OptionsWidget.has_options(field):'
p164
sI1522
S'                if not field.requires.multiple:'
p165
sI1523
S'                    inp = self.widgets.options.widget(field, default)'
p166
sI1524
S'                else:'
p167
sI1525
S'                    inp = self.widgets.multiple.widget(field, default)'
p168
sI1526
S'                if fieldname in keepopts:'
p169
sI1527
S'                    inpval = CAT(*inp.components)'
p170
ssg85
S"(self=<gluon.sqlhtml.SQLFORM object>, table=<Table Pessoas (Id, Idm, Nome, CPF, CNPJ, IdEndereco, Telefone, celular, Email, Categoria)>, record=None, deletable=False, linkto=None, upload=None, fields=['Id', 'Idm', 'Nome', 'CPF', 'CNPJ', 'IdEndereco', 'Telefone', 'celular', 'Email', 'Categoria'], labels=None, col3={}, submit_button='Submit', delete_label='Check to delete', showid=True, readonly=False, comments=True, keepopts=[], ignore_rw=True, record_id=None, formstyle=None, buttons=['submit'], separator=None, extra_fields=[], **attributes={})"
p171
sg87
g24
sa(dp172
g64
S'/home/smmau/Downloads/Programador/web2py/gluon/sqlhtml.py'
p173
sg66
(dp174
S'].options'
p175
g106
sS'requires'
p176
S'[<gluon.validators.IS_IN_DB object>]'
p177
sS'options'
p178
g106
ssg72
I325
sg73
(dp179
I320
S'        requires = field.requires'
p180
sI321
S'        if not isinstance(requires, (list, tuple)):'
p181
sI322
S'            requires = [requires]'
p182
sI323
S'        if requires:'
p183
sI324
S"            if hasattr(requires[0], 'options'):"
p184
sI325
S'                options = requires[0].options()'
p185
sI326
S'            else:'
p186
sI327
S'                raise SyntaxError('
p187
sI328
S"                    'widget cannot determine options of %s' % field)"
p188
sI329
S'        opts = [OPTION(v, _value=k) for (k, v) in options]'
p189
ssg85
S"(cls=<class 'gluon.sqlhtml.OptionsWidget'>, field=<pydal.objects.Field object>, value=None, **attributes={})"
p190
sg87
S'widget'
p191
sa(dp192
g64
S'/home/smmau/Downloads/Programador/web2py/gluon/validators.py'
p193
sg66
(dp194
S'self'
p195
S'<gluon.validators.IS_IN_DB object>'
p196
sS'self.build_set'
p197
S'<bound method IS_IN_DB.build_set of <gluon.validators.IS_IN_DB object>>'
p198
ssg72
I601
sg73
(dp199
I596
S'            self.labels = [self.label % r for r in records]'
p200
sI597
S'        else:'
p201
sI598
S'            self.labels = [self.label(r) for r in records]'
p202
sI599
S''
sI600
S'    def options(self, zero=True):'
p203
sI601
S'        self.build_set()'
p204
sI602
S'        items = [(k, self.labels[i]) for (i, k) in enumerate(self.theset)]'
p205
sI603
S'        if self.sort:'
p206
sI604
S'            items.sort(key=lambda o: str(o[1]).upper())'
p207
sI605
S'        if zero and self.zero is not None and not self.multiple:'
p208
ssg85
S'(self=<gluon.validators.IS_IN_DB object>, zero=True)'
p209
sg87
S'options'
p210
sa(dp211
g64
S'/home/smmau/Downloads/Programador/web2py/gluon/validators.py'
p212
sg66
(dp213
S'records'
p214
S'<Rows (1155)>'
p215
sS'self'
p216
S'<gluon.validators.IS_IN_DB object>'
p217
sS'r'
S"<Row {'TipoB': '-', 'ComplementoB': '-', 'Comple...ro': 3572L, 'Num': 181L, 'id': 0L, 'Lote': '07'}>"
p218
sS'self.label'
p219
S'<function endereco_represent>'
p220
sS'self.labels'
p221
g106
ssg72
I598
sg73
(dp222
I593
S'            records = self.dbset(table).select(table.ALL, **dd)'
p223
sI594
S'        self.theset = [str(r[self.kfield]) for r in records]'
p224
sI595
S'        if isinstance(self.label, str):'
p225
sI596
S'            self.labels = [self.label % r for r in records]'
p226
sI597
S'        else:'
p227
sI598
S'            self.labels = [self.label(r) for r in records]'
p228
sI599
S''
sI600
S'    def options(self, zero=True):'
p229
sI601
S'        self.build_set()'
p230
sI602
S'        items = [(k, self.labels[i]) for (i, k) in enumerate(self.theset)]'
p231
ssg85
S'(self=<gluon.validators.IS_IN_DB object>)'
p232
sg87
S'build_set'
p233
sa(dp234
g64
S'/home/smmau/Downloads/Programador/web2py/applications/MeioAmbienteRP/models/dbsmmaurb.py'
p235
sg66
(dp236
S'dblocais.Logradouros.Logradouro'
p237
S'<pydal.objects.Field object>'
p238
sS'dblocais.Enderecos.Id'
p239
S'<pydal.objects.Field object>'
p240
sS'global dblocais'
p241
S'<DAL uri="mysql:******@10.7.0.28/DBLocais">'
p242
sS').select'
p243
g106
sS'dblocais.Enderecos.Num'
p244
S'<pydal.objects.Field object>'
p245
sS'Logradouro'
p246
g106
sS'dblocais.Enderecos'
p247
S'<Table Enderecos (Id, IdLogradouro, Num, Quadra, Lote, Tipo, Complemento, TipoB, ComplementoB)>'
p248
sS'dblocais.Enderecos.IdLogradouro'
p249
S'<pydal.objects.Field object>'
p250
sS'orderby'
p251
g106
sS'row.id'
p252
S'0L'
p253
sS'dblocais.Logradouros.Id'
p254
S'<pydal.objects.Field object>'
p255
sS'endereco'
p256
g106
sS'dblocais.Logradouros'
p257
S'<Table Logradouros (Logradouro, Cep, Id, Denomin... NoFinal, Lado, Complemento, IdBairro, IdCidade)>'
p258
sS'row'
p259
S"<Row {'TipoB': '-', 'ComplementoB': '-', 'Comple...ro': 3572L, 'Num': 181L, 'id': 0L, 'Lote': '07'}>"
p260
ssg72
I101
sg73
(dp261
I96
S''
sI97
S''
sI98
S'#BANCO PESSOAS'
p262
sI99
S''
sI100
S'def endereco_represent(row):'
p263
sI101
S'\tendereco = dblocais( (dblocais.Enderecos.Id == row.id) & (dblocais.Enderecos.IdLogradouro == dblocais.Logradouros.Id )).select(dblocais.Logradouros.Logradouro, dblocais.Enderecos.Num, orderby=Logradouro).first()'
p264
sI102
S"\tpessoa_end = endereco.Logradouros.Logradouro + ', ' + str(endereco.Enderecos.Num)"
p265
sI103
S'\treturn pessoa_end'
p266
sI104
S''
sI105
S'from validador import IS_CPF'
p267
ssg85
S"(row=<Row {'TipoB': '-', 'ComplementoB': '-', 'Comple...ro': 3572L, 'Num': 181L, 'id': 0L, 'Lote': '07'}>)"
p268
sg87
S'endereco_represent'
p269
sasS'pyver'
p270
S'Python 2.7.15rc1: /usr/bin/python (prefix: /usr)'
p271
sS'session'
p272
g59
(S'sC\x02\x00\x00<div><table><tr><td style="font-weight:bold;vertical-align:top;">counter</td><td style="vertical-align:top;">:</td><td><div>1</div></td></tr><tr><td style="font-weight:bold;vertical-align:top;">flash</td><td style="vertical-align:top;">:</td><td><div>None</div></td></tr><tr><td style="font-weight:bold;vertical-align:top;">last_orderby</td><td style="vertical-align:top;">:</td><td><div>None</div></td></tr><tr><td style="font-weight:bold;vertical-align:top;">last_query</td><td style="vertical-align:top;">:</td><td><div>dblocais.Enderecos.id==112</div></td></tr></table></div>'
tRp273
sS'etype'
p274
S"<type 'exceptions.NameError'>"
p275
sS'date'
p276
S'Fri May 17 16:51:15 2019'
p277
sS'response'
p278
g59
(S's\xb5\x1f\x00\x00<div><table><tr><td style="font-weight:bold;vertical-align:top;">body</td><td style="vertical-align:top;">:</td><td><div>&lt;cStringIO.StringO object at 0x7f8de2f005a8&gt;</div></td></tr><tr><td style="font-weight:bold;vertical-align:top;">cookies</td><td style="vertical-align:top;">:</td><td><div><table><tr><td style="font-weight:bold;vertical-align:top;">session_id_meioambienterp</td><td style="vertical-align:top;">:</td><td><div>127.0.0.1-2daf79ba-3adb-48f0-a59e-6c17a3d9e8f8<table><tr><td style="font-weight:bold;vertical-align:top;">comment</td><td style="vertical-align:top;">:</td><td><div></div></td></tr><tr><td style="font-weight:bold;vertical-align:top;">domain</td><td style="vertical-align:top;">:</td><td><div></div></td></tr><tr><td style="font-weight:bold;vertical-align:top;">expires</td><td style="vertical-align:top;">:</td><td><div></div></td></tr><tr><td style="font-weight:bold;vertical-align:top;">httponly</td><td style="vertical-align:top;">:</td><td><div></div></td></tr><tr><td style="font-weight:bold;vertical-align:top;">max-age</td><td style="vertical-align:top;">:</td><td><div></div></td></tr><tr><td style="font-weight:bold;vertical-align:top;">path</td><td style="vertical-align:top;">:</td><td><div>/</div></td></tr><tr><td style="font-weight:bold;vertical-align:top;">samesite</td><td style="vertical-align:top;">:</td><td><div></div></td></tr><tr><td style="font-weight:bold;vertical-align:top;">secure</td><td style="vertical-align:top;">:</td><td><div></div></td></tr><tr><td style="font-weight:bold;vertical-align:top;">version</td><td style="vertical-align:top;">:</td><td><div></div></td></tr></table></div></td></tr></table></div></td></tr><tr><td style="font-weight:bold;vertical-align:top;">delimiters</td><td style="vertical-align:top;">:</td><td><div><table><tr><td><div>{{</div></td></tr><tr><td><div>}}</div></td></tr></table></div></td></tr><tr><td style="font-weight:bold;vertical-align:top;">files</td><td style="vertical-align:top;">:</td><td><div><table></table></div></td></tr><tr><td style="font-weight:bold;vertical-align:top;">flash</td><td style="vertical-align:top;">:</td><td><div></div></td></tr><tr><td style="font-weight:bold;vertical-align:top;">form_label_separator</td><td style="vertical-align:top;">:</td><td><div></div></td></tr><tr><td style="font-weight:bold;vertical-align:top;">formstyle</td><td style="vertical-align:top;">:</td><td><div>bootstrap4_inline</div></td></tr><tr><td style="font-weight:bold;vertical-align:top;">generic_patterns</td><td style="vertical-align:top;">:</td><td><div><table><tr><td><div>*</div></td></tr></table></div></td></tr><tr><td style="font-weight:bold;vertical-align:top;">google_analytics_id</td><td style="vertical-align:top;">:</td><td><div>None</div></td></tr><tr><td style="font-weight:bold;vertical-align:top;">headers</td><td style="vertical-align:top;">:</td><td><div><table><tr><td style="font-weight:bold;vertical-align:top;">X-Powered-By</td><td style="vertical-align:top;">:</td><td><div>web2py</div></td></tr></table></div></td></tr><tr><td style="font-weight:bold;vertical-align:top;">menu</td><td style="vertical-align:top;">:</td><td><div><table><tr><td><div><table><tr><td><div>projeto</div></td></tr><tr><td><div>False</div></td></tr><tr><td><div>/admin/default/design/MeioAmbienteRP</div></td></tr></table></div></td></tr><tr><td><div><table><tr><td><div>bd</div></td></tr><tr><td><div>False</div></td></tr><tr><td><div>/MeioAmbienteRP/appadmin/index</div></td></tr></table></div></td></tr><tr><td><div><table><tr><td><div>estado</div></td></tr><tr><td><div>False</div></td></tr><tr><td><div>/MeioAmbienteRP/appadmin/state</div></td></tr></table></div></td></tr><tr><td><div><table><tr><td><div>cache</div></td></tr><tr><td><div>False</div></td></tr><tr><td><div>/MeioAmbienteRP/appadmin/ccache</div></td></tr></table></div></td></tr></table></div></td></tr><tr><td style="font-weight:bold;vertical-align:top;">meta</td><td style="vertical-align:top;">:</td><td><div><table><tr><td style="font-weight:bold;vertical-align:top;">author</td><td style="vertical-align:top;">:</td><td><div>Carlos A Locatelli Jr &lt;call.jmail@gmail.com&gt;</div></td></tr><tr><td style="font-weight:bold;vertical-align:top;">description</td><td style="vertical-align:top;">:</td><td><div>Sistema Python Web2py e Banco Mysql Desenvolvido para gest\xc3\xa3o da SMAURB</div></td></tr><tr><td style="font-weight:bold;vertical-align:top;">generator</td><td style="vertical-align:top;">:</td><td><div>Web2py Web Framework</div></td></tr><tr><td style="font-weight:bold;vertical-align:top;">keywords</td><td style="vertical-align:top;">:</td><td><div><table><tr><td><div>web2py</div></td></tr><tr><td><div>python</div></td></tr><tr><td><div>framework</div></td></tr></table></div></td></tr></table></div></td></tr><tr><td style="font-weight:bold;vertical-align:top;">models_to_run</td><td style="vertical-align:top;">:</td><td><div><table><tr><td><div>^\\w+\\.py$</div></td></tr><tr><td><div>^appadmin/\\w+\\.py$</div></td></tr><tr><td><div>^appadmin/insert/\\w+\\.py$</div></td></tr></table></div></td></tr><tr><td style="font-weight:bold;vertical-align:top;">postprocessing</td><td style="vertical-align:top;">:</td><td><div><table></table></div></td></tr><tr><td style="font-weight:bold;vertical-align:top;">session_client</td><td style="vertical-align:top;">:</td><td><div>127.0.0.1</div></td></tr><tr><td style="font-weight:bold;vertical-align:top;">session_cookie_compression_level</td><td style="vertical-align:top;">:</td><td><div>None</div></td></tr><tr><td style="font-weight:bold;vertical-align:top;">session_cookie_expires</td><td style="vertical-align:top;">:</td><td><div>None</div></td></tr><tr><td style="font-weight:bold;vertical-align:top;">session_data_name</td><td style="vertical-align:top;">:</td><td><div>session_data_meioambienterp</div></td></tr><tr><td style="font-weight:bold;vertical-align:top;">session_file</td><td style="vertical-align:top;">:</td><td><div>&lt;open file &#x27;/home/smmau/Downloads/Programador/web2py/applications/MeioAmbienteRP/sessions/094/177/127.0.0.1-2daf79ba-3adb-48f0-a59e-6c17a3d9e8f8&#x27;, mode &#x27;rb+&#x27; at 0x7f8de2f2b8a0&gt;</div></td></tr><tr><td style="font-weight:bold;vertical-align:top;">session_filename</td><td style="vertical-align:top;">:</td><td><div>/home/smmau/Downloads/Programador/web2py/applications/MeioAmbienteRP/sessions/127.0.0.1-2daf79ba-3adb-48f0-a59e-6c17a3d9e8f8</div></td></tr><tr><td style="font-weight:bold;vertical-align:top;">session_hash</td><td style="vertical-align:top;">:</td><td><div>935ef25026abd28a24c3b9beaad54a59</div></td></tr><tr><td style="font-weight:bold;vertical-align:top;">session_id</td><td style="vertical-align:top;">:</td><td><div>127.0.0.1-2daf79ba-3adb-48f0-a59e-6c17a3d9e8f8</div></td></tr><tr><td style="font-weight:bold;vertical-align:top;">session_id_name</td><td style="vertical-align:top;">:</td><td><div>session_id_meioambienterp</div></td></tr><tr><td style="font-weight:bold;vertical-align:top;">session_locked</td><td style="vertical-align:top;">:</td><td><div>True</div></td></tr><tr><td style="font-weight:bold;vertical-align:top;">session_masterapp</td><td style="vertical-align:top;">:</td><td><div>MeioAmbienteRP</div></td></tr><tr><td style="font-weight:bold;vertical-align:top;">session_new</td><td style="vertical-align:top;">:</td><td><div>False</div></td></tr><tr><td style="font-weight:bold;vertical-align:top;">session_storage_type</td><td style="vertical-align:top;">:</td><td><div>file</div></td></tr><tr><td style="font-weight:bold;vertical-align:top;">show_toolbar</td><td style="vertical-align:top;">:</td><td><div>False</div></td></tr><tr><td style="font-weight:bold;vertical-align:top;">status</td><td style="vertical-align:top;">:</td><td><div>200</div></td></tr><tr><td style="font-weight:bold;vertical-align:top;">subtitle</td><td style="vertical-align:top;">:</td><td><div>Database Administration (appadmin)</div></td></tr><tr><td style="font-weight:bold;vertical-align:top;">view</td><td style="vertical-align:top;">:</td><td><div>appadmin.html</div></td></tr></table></div>'
tRp279
sS'locals'
p280
(dp281
S'row'
p282
S"<Row {'TipoB': '-', 'ComplementoB': '-', 'Comple...ro': 3572L, 'Num': 181L, 'id': 0L, 'Lote': '07'}>"
p283
sssS'traceback'
p284
S'Traceback (most recent call last):\n  File "/home/smmau/Downloads/Programador/web2py/gluon/restricted.py", line 219, in restricted\n    exec(ccode, environment)\n  File "/home/smmau/Downloads/Programador/web2py/applications/MeioAmbienteRP/controllers/appadmin.py", line 695, in <module>\n  File "/home/smmau/Downloads/Programador/web2py/gluon/globals.py", line 421, in <lambda>\n    self._caller = lambda f: f()\n  File "/home/smmau/Downloads/Programador/web2py/applications/MeioAmbienteRP/controllers/appadmin.py", line 146, in insert\n    form = SQLFORM(db[table], ignore_rw=ignore_rw)\n  File "/home/smmau/Downloads/Programador/web2py/gluon/sqlhtml.py", line 1523, in __init__\n    inp = self.widgets.options.widget(field, default)\n  File "/home/smmau/Downloads/Programador/web2py/gluon/sqlhtml.py", line 325, in widget\n    options = requires[0].options()\n  File "/home/smmau/Downloads/Programador/web2py/gluon/validators.py", line 601, in options\n    self.build_set()\n  File "/home/smmau/Downloads/Programador/web2py/gluon/validators.py", line 598, in build_set\n    self.labels = [self.label(r) for r in records]\n  File "/home/smmau/Downloads/Programador/web2py/applications/MeioAmbienteRP/models/dbsmmaurb.py", line 101, in endereco_represent\n    endereco = dblocais( (dblocais.Enderecos.Id == row.id) & (dblocais.Enderecos.IdLogradouro == dblocais.Logradouros.Id )).select(dblocais.Logradouros.Logradouro, dblocais.Enderecos.Num, orderby=Logradouro).first()\nNameError: global name \'Logradouro\' is not defined\n'
p285
s.