(dp1
S'output'
p2
S'<class \'_mysql_exceptions.ProgrammingError\'> (1146, "Table \'DBA3P.ContasEnergia\' doesn\'t exist")'
p3
sS'layer'
p4
S'/home/smmau/Downloads/Programador/web2py/applications/MeioAmbienteRP/controllers/graficos.py'
p5
sS'code'
p6
S'<code object <module> at 0x7efc865fc4b0, file "/home/smmau/Downloads/Programador/web2py/applications/MeioAmbienteRP/controllers/graficos.py", line 3>'
p7
sS'snapshot'
p8
(dp9
sS'traceback'
p10
S'Traceback (most recent call last):\n  File "/home/smmau/Downloads/Programador/web2py/gluon/restricted.py", line 219, in restricted\n    exec(ccode, environment)\n  File "/home/smmau/Downloads/Programador/web2py/applications/MeioAmbienteRP/controllers/graficos.py", line 75, in <module>\n  File "/home/smmau/Downloads/Programador/web2py/gluon/globals.py", line 421, in <lambda>\n    self._caller = lambda f: f()\n  File "/home/smmau/Downloads/Programador/web2py/applications/MeioAmbienteRP/controllers/graficos.py", line 40, in return_data\n    rows = dba3p((dba3p.ContasEnergia.CodCPFL == session.IdmDpto) & (dba3p.ContasEnergia.Mes >= \'2017/01/01\' ) ).iterselect(dba3p.ContasEnergia.CodCPFL, dba3p.ContasEnergia.Mes, dba3p.ContasEnergia.Kwh)\n  File "/home/smmau/Downloads/Programador/web2py/gluon/packages/dal/pydal/objects.py", line 2285, in iterselect\n    return adapter.iterselect(self.query, fields, attributes)\n  File "/home/smmau/Downloads/Programador/web2py/gluon/packages/dal/pydal/adapters/base.py", line 768, in iterselect\n    return self.iterparse(sql, fields, colnames, cacheable=cacheable)\n  File "/home/smmau/Downloads/Programador/web2py/gluon/packages/dal/pydal/adapters/base.py", line 328, in iterparse\n    return IterRows(self.db, sql, fields, colnames, blob_decode, cacheable)\n  File "/home/smmau/Downloads/Programador/web2py/gluon/packages/dal/pydal/objects.py", line 3043, in __init__\n    self.db._adapter.execute(sql)\n  File "/home/smmau/Downloads/Programador/web2py/gluon/packages/dal/pydal/adapters/__init__.py", line 67, in wrap\n    return f(*args, **kwargs)\n  File "/home/smmau/Downloads/Programador/web2py/gluon/packages/dal/pydal/adapters/base.py", line 413, in execute\n    rv = self.cursor.execute(command, *args[1:], **kwargs)\n  File "/usr/lib/python2.7/dist-packages/MySQLdb/cursors.py", line 250, in execute\n    self.errorhandler(self, exc, value)\n  File "/usr/lib/python2.7/dist-packages/MySQLdb/connections.py", line 50, in defaulterrorhandler\n    raise errorvalue\nProgrammingError: (1146, "Table \'DBA3P.ContasEnergia\' doesn\'t exist")\n'
p11
s.