(dp1
S'output'
p2
S"<type 'exceptions.TypeError'> <gluon.validators.IS_IN_SET object at 0x7fb5a5342790> is not JSON serializable"
p3
sS'layer'
p4
S'/home/www-data/web2py/applications/MeioAmbienteRP/views/appadmin.html'
p5
sS'code'
p6
S'response.write(\'<!DOCTYPE html>\\n<!--[if (gt IE 9)|!(IE)]><!--> <html class="no-js" lang="\', escape=False)\nresponse.write(\'pt-br\')\nresponse.write(\'"> <!--<![endif]-->\\n  <head>\\n    <meta charset="utf-8">\\n    <!-- www.phpied.com/conditional-comments-block-downloads/ -->\\n    <!-- Always force latest IE rendering engine\\n         (even in intranet) & Chrome Frame\\n         Remove this if you use the .htaccess -->\\n    <meta http-equiv="X-UA-Compatible" content="IE=edge\', escape=False)\nresponse.write(not request.is_local and \',chrome=1\' or \'\')\nresponse.write(\'">\\n    <!--  Mobile Viewport Fix\\n          j.mp/mobileviewport & davidbcalhoun.com/2010/viewport-metatag\\n          device-width: Occupy full width of the screen in its current orientation\\n          initial-scale = 1.0 retains dimensions instead of zooming out if page height > device height\\n          user-scalable = yes allows the user to zoom in -->\\n    <meta name="viewport" content="width=device-width, initial-scale=1.0">\\n    <title>\', escape=False)\nresponse.write(response.title or request.application)\nresponse.write(\'</title>\\n    <!-- http://dev.w3.org/html5/markup/meta.name.html -->\\n    <meta name="application-name" content="\', escape=False)\nresponse.write(request.application)\nresponse.write(\'">\\n    <!-- Speaking of Google, don\\\'t forget to set your site up:\\n         http://google.com/webmasters -->\\n    <meta name="google-site-verification" content="">\\n    <!-- include stylesheets -->\\n    <link rel="stylesheet" href="https://cdnjs.cloudflare.com/ajax/libs/font-awesome/4.7.0/css/font-awesome.min.css"/>\\n    <link rel="stylesheet" href="\', escape=False)\nresponse.write(URL(\'static\',\'css/bootstrap.min.css\'))\nresponse.write(\'"/>\\n    <link rel="stylesheet" href="\', escape=False)\nresponse.write(URL(\'static\',\'css/web2py-bootstrap4.css\'))\nresponse.write(\'"/>\\n    <link rel="shortcut icon" href="\', escape=False)\nresponse.write(URL(\'static\',\'images/favicon.ico\'))\nresponse.write(\'" type="image/x-icon">\\n    <link rel="apple-touch-icon" href="\', escape=False)\nresponse.write(URL(\'static\',\'images/favicon.png\'))\nresponse.write(\'">\\n    <!-- All JavaScript at the bottom, except for Modernizr which enables\\n         HTML5 elements & feature detects -->\\n    <script src="\', escape=False)\nresponse.write(URL(\'static\',\'js/modernizr-2.8.3.min.js\'))\nresponse.write(\'"></script>\\n    <!-- Favicons -->\\n    \', escape=False)\nresponse.write(\'<script type="text/javascript"><!--\\n    // These variables are used by the web2py_ajax_init function in web2py_ajax.js (which is loaded below).\\n    \', escape=False)\nresponse.write(ASSIGNJS(\nw2p_ajax_confirm_message = T(\'Are you sure you want to delete this object?\'),\nw2p_ajax_disable_with_message = T(\'Working...\'),\nw2p_ajax_date_format = T(\'%Y-%m-%d\'),\nw2p_ajax_datetime_format = T(\'%Y-%m-%d %H:%M:%S\'),\najax_error_500 = T.M(\'An error occured, please [[reload %s]] the page\') % URL(args=request.args, vars=request.get_vars)\n))\nresponse.write(\'\\n    //--></script>\\n\', escape=False)\nresponse.files.insert(0,URL(\'static\',\'js/jquery.js\'))\nresponse.files.insert(1,URL(\'static\',\'css/calendar.css\'))\nresponse.files.insert(2,URL(\'static\',\'js/calendar.js\'))\nresponse.files.insert(3,URL(\'static\',\'js/web2py.js\'))\nresponse.include_meta()\nresponse.include_files()\nresponse.write(\'\\n\', escape=False)\nresponse.write(\' <!-- this includes jquery.js, calendar.js/.css and web2py.js -->\\n    \', escape=False)\nresponse.write(\'\\n  </head>\\n  <body>\\n    <div class="w2p_flash alert alert-dismissable">\', escape=False)\nresponse.write(response.flash or \'\')\nresponse.write(\'</div>\\n    <!-- Navbar ======================================= -->\\n    <nav class="navbar navbar-light navbar-expand-md bg-faded bg-dark navbar-dark justify-content-center">\\n       \\n       \\n       <button class="navbar-toggler" type="button" data-toggle="collapse" data-target="#navbarNavDropdown" aria-controls="navbarNavDropdown" aria-expanded="false" aria-label="Toggle navigation">\\n         <span class="navbar-toggler-icon"></span>\\n       </button>\\n       <div class="navbar-collapse collapse w-100" id="navbarNavDropdown">\\n         <ul class="navbar-nav w-100 justify-content-center">\\n          \', escape=False)\nfor _item in response.menu or []:\n    response.write(\'\\n          \', escape=False)\n    if len(_item)<4 or not _item[3]:\n        response.write(\'\\n          <li class="nav-item \', escape=False)\n        if _item[1]:\n            response.write(\'active\', escape=False)\n            pass\n        response.write(\'">\\n            <a class="nav-link" href="\', escape=False)\n        response.write(_item[2])\n        response.write(\'">\', escape=False)\n        response.write(_item[0])\n        response.write(\'</a>\\n          </li>\\n          \', escape=False)\n    else:\n        response.write(\'\\n          <li class="nav-item dropdown">\\n            <a class="nav-link dropdown-toggle" href="\', escape=False)\n        response.write(_item[2])\n        response.write(\'" data-toggle="dropdown" aria-haspopup="true" aria-expanded="false">\', escape=False)\n        response.write(_item[0])\n        response.write(\'</a>\\n            <div class="dropdown-menu">\\n              \', escape=False)\n        for _subitem in _item[3]:\n            response.write(\'\\n              <a class="dropdown-item" href="\', escape=False)\n            response.write(_subitem[2])\n            response.write(\'">\', escape=False)\n            response.write(_subitem[0])\n            response.write(\'</a>\\n              \', escape=False)\n            pass\n        response.write(\'\\n            </div>\\n          </li>\\n          \', escape=False)\n        pass\n    response.write(\'\\n          \', escape=False)\n    pass\nresponse.write(\'\\n        </ul>\\n         <form class="form-inline my-2 my-lg-0">\\n             <input class="form-control mr-sm-2" type="text" placeholder="Search">\\n         </form>\\n        \', escape=False)\nif \'auth\' in globals():\n    response.write(\'\\n        <ul class="nav navbar-nav ml-auto w-100 justify-content-end">\\n          <li class="nav-item dropdown">\\n            <a class="nav-link dropdown-toggle" href="#" data-toggle="dropdown" aria-haspopup="true" aria-expanded="false">\\n              \', escape=False)\n    if auth.user:\n        response.write(auth.user.first_name)\n    else:\n        response.write(\'LOGIN\', escape=False)\n        pass\n    response.write(\'\\n            </a>\\n            <div class="dropdown-menu dropdown-menu-right">\\n              \', escape=False)\n    if auth.user:\n        response.write(\'\\n              <a class="dropdown-item" href="\', escape=False)\n        response.write(URL(\'default\',\'user/profile\'))\n        response.write(\'">\', escape=False)\n        response.write(T(\'Profile\'))\n        response.write(\'</a>\\n              \', escape=False)\n        if \'change_password\' not in auth.settings.actions_disabled:\n            response.write(\'\\n              <a class="dropdown-item" href="\', escape=False)\n            response.write(URL(\'default\',\'user/change_password\'))\n            response.write(\'">\', escape=False)\n            response.write(T(\'Change Password\'))\n            response.write(\'</a>\\n              \', escape=False)\n            pass\n        response.write(\'\\n              <a class="dropdown-item" href="\', escape=False)\n        response.write(URL(\'default\',\'user/logout\'))\n        response.write(\'">\', escape=False)\n        response.write(T(\'Logout\'))\n        response.write(\'</a>\\n              \', escape=False)\n    else:\n        response.write(\'\\n              <a class="dropdown-item" href="\', escape=False)\n        response.write(URL(\'default\',\'user/login\'))\n        response.write(\'">\', escape=False)\n        response.write(T(\'Login\'))\n        response.write(\'</a>\\n              \', escape=False)\n        if \'register\' not in auth.settings.actions_disabled:\n            response.write(\'\\n              <a class="dropdown-item" href="\', escape=False)\n            response.write(URL(\'default\',\'user/register\'))\n            response.write(\'">\', escape=False)\n            response.write(T(\'Sign up\'))\n            response.write(\'</a>\\n              \', escape=False)\n            pass\n        response.write(\'\\n              \', escape=False)\n        if \'retrieve_password\' not in auth.settings.actions_disabled:\n            response.write(\'\\n              <a class="dropdown-item" href="\', escape=False)\n            response.write(URL(\'default\',\'user/retrieve_password\'))\n            response.write(\'">\', escape=False)\n            response.write(T(\'Lost Password\'))\n            response.write(\'</a>\\n              \', escape=False)\n            pass\n        response.write(\'\\n              \', escape=False)\n        pass\n    response.write(\'\\n            </div>\\n          </li>\\n        </ul>\\n        \', escape=False)\n    pass\nresponse.write(\'\\n      </div>\\n    </nav>\\n\\n    <!-- Masthead ===================================== -->\\n    \', escape=False)\nresponse.write(\'\\n    \', escape=False)\nresponse.write(\'\\n    <!-- Main ========================================= -->\\n    <!-- Begin page content -->\\n    <div class="container-fluid main-container">\\n      \', escape=False)\nresponse.write(\'\\n<script><!--\\n    jQuery(document).ready(function(){\\n    jQuery("table.sortable tbody tr").mouseover( function() {\\n    jQuery(this).addClass("highlight"); }).mouseout( function() {\\n    jQuery(this).removeClass("highlight"); });\\n    jQuery(\\\'table.sortable tbody tr:odd\\\').addClass(\\\'odd\\\');\\n    jQuery(\\\'table.sortable tbody tr:even\\\').addClass(\\\'even\\\');\\n});\\n//--></script>\\n\\n<div class="row">\\n  <div class="col-md-12">\\n\\n\', escape=False)\nif request.function==\'index\':\n    response.write(\'\\n<h2>\', escape=False)\n    response.write(T("Available Databases and Tables"))\n    response.write(\'</h2>\\n  \', escape=False)\n    if not databases:\n        response.write(T("No databases in this application"))\n        pass\n    response.write(\'\\n  <ul class="nav nav-tabs" id="myTab">\\n    <li class="nav-item"><a href="#alltables" data-toggle="tab" class="nav-link active">Tables</a></li>\\n    <li class="nav-item"><a href="#hooks" data-toggle="tab" class="nav-link">Hooks</a></li>\\n  </ul>\\n  <div class="tab-content">\\n      <div class="tab-pane active" id="alltables">\\n        <table class="table table-striped">\\n          \', escape=False)\n    for db in sorted(databases):\n        response.write(\'\\n            \', escape=False)\n        for table in databases[db].tables:\n            response.write(\'\\n              \', escape=False)\n            qry=\'%s.%s.id>0\'%(db,table)\n            response.write(\'\\n              \', escape=False)\n            tbl=databases[db][table]\n            response.write(\'\\n              \', escape=False)\n            if hasattr(tbl,\'_primarykey\'):\n                response.write(\'\\n                \', escape=False)\n                if tbl._primarykey:\n                    response.write(\'\\n                    \', escape=False)\n                    firstkey=tbl[tbl._primarykey[0]]\n                    response.write(\'\\n                    \', escape=False)\n                    if firstkey.type in [\'string\',\'text\']:\n                        response.write(\'\\n                      \', escape=False)\n                        qry=\'%s.%s.%s!=""\'%(db,table,firstkey.name)\n                        response.write(\'\\n                    \', escape=False)\n                    else:\n                        response.write(\'\\n                      \', escape=False)\n                        qry=\'%s.%s.%s>0\'%(db,table,firstkey.name)\n                        response.write(\'\\n                    \', escape=False)\n                        pass\n                    response.write(\'\\n                \', escape=False)\n                else:\n                    response.write(\'\\n                     \', escape=False)\n                    qry=\'\'\n                    response.write(\'\\n                \', escape=False)\n                    pass\n                response.write(\'\\n              \', escape=False)\n                pass\n            response.write(\'\\n          <tr>\\n            <th style="font-size: 1.75em;">\\n              &raquo; \', escape=False)\n            response.write(A("%s.%s" % (db,table),_href=URL(\'select\',args=[db],vars=dict(query=qry))))\n            response.write(\'\\n            </th>\\n            <td>\\n              \', escape=False)\n            response.write(A(str(T(\'New Record\')),_href=URL(\'insert\',args=[db,table]),_class="btn btn-primary"))\n            response.write(\'\\n            </td>\\n          </tr>\\n          \', escape=False)\n            pass\n        response.write(\'\\n          \', escape=False)\n        pass\n    response.write(\'\\n        </table>\\n      </div>\\n      <div class="tab-pane" id="hooks">\\n      \', escape=False)\n    response.write(LOAD(\'appadmin\', \'hooks\', ajax=True))\n    response.write(\'\\n      </div>\\n  </div>\\n\', escape=False)\nelif request.function==\'select\':\n    response.write(\'\\n  <h2>\', escape=False)\n    response.write(XML(str(T("Database %s select"))%A(request.args[0],_href=URL(\'index\'))))\n    response.write(\'\\n  </h2>\\n  \', escape=False)\n    if tb:\n        response.write(\'\\n  <h3>\', escape=False)\n        response.write(T(\'Traceback\'))\n        response.write(\'</h3>\\n  <pre>\\n    \', escape=False)\n        response.write(tb)\n        response.write(\'\\n  </pre>\\n  \', escape=False)\n        pass\n    response.write(\'\\n  \', escape=False)\n    if table:\n        response.write(\'\\n  \', escape=False)\n        response.write(A(str(T(\'New Record\')),_href=URL(\'insert\',args=[request.args[0],table]),_class="btn btn-primary", _role="button"))\n        response.write(\'<br/><br/>\\n  <hr />\\n    <h3>\', escape=False)\n        response.write(T("Rows in Table"))\n        response.write(\'</h3><br/>\\n   \', escape=False)\n    else:\n        response.write(\'\\n    <h3>\', escape=False)\n        response.write(T("Rows selected"))\n        response.write(\'</h3><br/>\\n   \', escape=False)\n        pass\n    response.write(\'\\n   \', escape=False)\n    response.write(form)\n    response.write(\'\\n   <p class="text-muted">\', escape=False)\n    response.write(T(\'The "query" is a condition like "db.table1.field1==\\\'value\\\'". Something like "db.table1.field1==db.table2.field2" results in a SQL JOIN.\'))\n    response.write(\'<br/>\\n      \', escape=False)\n    response.write(T(\'Use (...)&(...) for AND, (...)|(...) for OR, and ~(...)  for NOT to build more complex queries.\'))\n    response.write(\'<br/>\\n      \', escape=False)\n    response.write(T(\'"update" is an optional expression like "field1=\\\'newvalue\\\'". You cannot update or delete the results of a JOIN\'))\n    response.write(\'</p>\\n    <br/><br/>\\n    <h4>\', escape=False)\n    response.write(T("%s selected", nrows))\n    response.write(\'</h4>\\n    \', escape=False)\n    if start>0:\n        response.write(A(T(\'previous %s rows\') % step,_href=URL(\'select\',args=request.args[0],vars=dict(start=start-step)),_class="btn btn-primary"))\n        pass\n    response.write(\'\\n    \', escape=False)\n    if stop<nrows:\n        response.write(A(T(\'next %s rows\') % step,_href=URL(\'select\',args=request.args[0],vars=dict(start=start+step)),_class="btn btn-primary"))\n        pass\n    response.write(\'\\n    \', escape=False)\n    if rows:\n        response.write(\'\\n       <div style="overflow:auto; width:80%;">\\n       \', escape=False)\n        linkto = lambda f, t, r: URL(\'update\', args=[request.args[0], r, f]) if f else "#"\n        response.write(\'\\n       \', escape=False)\n        upload=URL(\'download\',args=request.args[0])\n        response.write(\'\\n       \', escape=False)\n        response.write(SQLTABLE(rows,linkto,upload,orderby=True,_class=\'table table-striped table-bordered sortable\'))\n        response.write(\'\\n       </div>\\n    \', escape=False)\n        pass\n    response.write(\'\\n    <br/><br/>\\n    <hr />\\n    <h3>\', escape=False)\n    response.write(T("Import/Export"))\n    response.write(\'</h3><br/>\\n    <a href="\', escape=False)\n    response.write(URL(\'csv\',args=request.args[0],vars=dict(query=query)))\n    response.write(\'" class="btn btn-primary">\', escape=False)\n    response.write(T("export as csv file"))\n    response.write(\'</a>\\n  \', escape=False)\n    response.write(formcsv or \'\')\n    response.write(\'\\n\\n\', escape=False)\nelif request.function==\'insert\':\n    response.write(\'\\n  <h2>\', escape=False)\n    response.write(T("Database"))\n    response.write(\' \', escape=False)\n    response.write(A(request.args[0],_href=URL(\'index\')))\n    response.write(\'\\n    \', escape=False)\n    if hasattr(table,\'_primarykey\'):\n        response.write(\'\\n      \', escape=False)\n        fieldname=table._primarykey[0]\n        response.write(\'\\n      \', escape=False)\n        dbname=request.args[0]\n        response.write(\'\\n      \', escape=False)\n        tablename=request.args[1]\n        response.write(\'\\n      \', escape=False)\n        cond = table[fieldname].type in [\'string\',\'text\'] and \'!=""\' or \'>0\'\n        response.write(\'\\n      \', escape=False)\n        response.write(T("Table"))\n        response.write(\' \', escape=False)\n        response.write(A(tablename,_href=URL(\'select\',args=dbname,vars=dict(query=\'%s.%s.%s%s\'%(dbname,tablename,fieldname,cond)))))\n        response.write(\'\\n    \', escape=False)\n    else:\n        response.write(\'\\n      \', escape=False)\n        response.write(T("Table"))\n        response.write(\' \', escape=False)\n        response.write(A(request.args[1],_href=URL(\'select\',args=request.args[0],vars=dict(query=\'%s.%s.id>0\'%tuple(request.args[:2])))))\n        response.write(\'\\n    \', escape=False)\n        pass\n    response.write(\'\\n  </h2>\\n  <h3>\', escape=False)\n    response.write(T("New Record"))\n    response.write(\'</h3><br/>\\n  \', escape=False)\n    response.write(form)\n    response.write(\'\\n\', escape=False)\nelif request.function==\'update\':\n    response.write(\'\\n  <h2>\', escape=False)\n    response.write(T("Database"))\n    response.write(\' \', escape=False)\n    response.write(A(request.args[0],_href=URL(\'index\')))\n    response.write(\'\\n    \', escape=False)\n    if hasattr(table,\'_primarykey\'):\n        response.write(\'\\n      \', escape=False)\n        fieldname=request.vars.keys()[0]\n        response.write(\'\\n      \', escape=False)\n        dbname=request.args[0]\n        response.write(\'\\n      \', escape=False)\n        tablename=request.args[1]\n        response.write(\'\\n      \', escape=False)\n        cond = table[fieldname].type in [\'string\',\'text\'] and \'!=""\' or \'>0\'\n        response.write(\'\\n      \', escape=False)\n        response.write(T("Table"))\n        response.write(\' \', escape=False)\n        response.write(A(tablename,_href=URL(\'select\',args=dbname,vars=dict(query=\'%s.%s.%s%s\'%(dbname,tablename,fieldname,cond)))))\n        response.write(\'\\n      \', escape=False)\n        response.write(T("Record"))\n        response.write(\' \', escape=False)\n        response.write(A(\'%s=%s\'%request.vars.items()[0],_href=URL(\'update\',args=request.args[:2],vars=request.vars)))\n        response.write(\'\\n    \', escape=False)\n    else:\n        response.write(\'\\n      \', escape=False)\n        response.write(T("Table"))\n        response.write(\' \', escape=False)\n        response.write(A(request.args[1],_href=URL(\'select\',args=request.args[0],vars=dict(query=\'%s.%s.id>0\'%tuple(request.args[:2])))))\n        response.write(\'\\n      \', escape=False)\n        response.write(T("Record id"))\n        response.write(\' \', escape=False)\n        response.write(A(request.args[2],_href=URL(\'update\',args=request.args[:3])))\n        response.write(\'\\n    \', escape=False)\n        pass\n    response.write(\'\\n  </h2>\\n  <h3>\', escape=False)\n    response.write(T("Edit current record"))\n    response.write(\'</h3><br/><br/>\', escape=False)\n    response.write(form)\n    response.write(\'\\n\\n\', escape=False)\nelif request.function==\'state\':\n    response.write(\'\\n  <h2>\', escape=False)\n    response.write(T("Internal State"))\n    response.write(\'</h2>\\n  <h3>\', escape=False)\n    response.write(T("Current request"))\n    response.write(\'</h3>\\n  \', escape=False)\n    response.write(BEAUTIFY(request))\n    response.write(\'\\n  <br/><h3>\', escape=False)\n    response.write(T("Current response"))\n    response.write(\'</h3>\\n  \', escape=False)\n    response.write(BEAUTIFY(response))\n    response.write(\'\\n  <br/><h3>\', escape=False)\n    response.write(T("Current session"))\n    response.write(\'</h3>\\n  \', escape=False)\n    response.write(BEAUTIFY(session))\n    response.write(\'\\n\\n\\n\', escape=False)\nelif request.function == \'ccache\':\n    response.write(\'\\n<h2>\', escape=False)\n    T("Cache")\n    response.write(\'</h2>\\n<div class="list">\\n\\n  <div class="list-header">\\n    <h3>\', escape=False)\n    T("Statistics")\n    response.write(\'</h3>\\n  </div>\\n\\n  <div class="content">\\n    <h4>\', escape=False)\n    response.write(T("Overview"))\n    response.write(\'</h4>\\n    <p>\', escape=False)\n    response.write(T.M("Number of entries: **%s**", total[\'entries\']))\n    response.write(\'</p>\\n    \', escape=False)\n    if total[\'entries\'] > 0:\n        response.write(\'\\n    <p>\', escape=False)\n        response.write(T.M("Hit Ratio: **%(ratio)s%%** (**%(hits)s** %%{hit(hits)} and **%(misses)s** %%{miss(misses)})",\n        dict( ratio=total[\'ratio\'], hits=total[\'hits\'], misses=total[\'misses\'])))\n        response.write(\'\\n    </p>\\n    <p>\\n      \', escape=False)\n        response.write(T("Size of cache:"))\n        response.write(\'\\n      \', escape=False)\n        if object_stats:\n            response.write(\'\\n        \', escape=False)\n            response.write(T.M("**%(items)s** %%{item(items)}, **%(bytes)s** %%{byte(bytes)}", dict(items=total[\'objects\'], bytes=total[\'bytes\'])))\n            response.write(\'\\n        \', escape=False)\n            if total[\'bytes\'] > 524287:\n                response.write(\'\\n          \', escape=False)\n                response.write(T.M("(**%.0d MB**)", total[\'bytes\'] / 1048576))\n                response.write(\'\\n        \', escape=False)\n                pass\n            response.write(\'\\n      \', escape=False)\n        else:\n            response.write(\'\\n        \', escape=False)\n            response.write(T.M("**not available** (requires the Python [[Pympler https://pypi.python.org/pypi/Pympler popup]] library)"))\n            response.write(\'\\n      \', escape=False)\n            pass\n        response.write(\'\\n    </p>\\n    <p>\\n      \', escape=False)\n        response.write(T.M("Cache contains items up to **%(hours)02d** %%{hour(hours)} **%(min)02d** %%{minute(min)} **%(sec)02d** %%{second(sec)} old.",\n        dict(hours=total[\'oldest\'][0], min=total[\'oldest\'][1], sec=total[\'oldest\'][2])))\n        response.write(\'\\n    </p>\\n    \', escape=False)\n        response.write(BUTTON(T(\'Cache Keys\'), _onclick=\'jQuery("#all_keys").toggle().toggleClass( "w2p_hidden" );\'))\n        response.write(\'\\n    <div class="w2p_hidden" id="all_keys">\\n      \', escape=False)\n        response.write(total[\'keys\'])\n        response.write(\'\\n    </div>\\n    <br />\\n    \', escape=False)\n        pass\n    response.write(\'\\n\\n    <h4>\', escape=False)\n    response.write(T("RAM"))\n    response.write(\'</h4>\\n    <p>\', escape=False)\n    response.write(T.M("Number of entries: **%s**", ram[\'entries\']))\n    response.write(\'</p>\\n    \', escape=False)\n    if ram[\'entries\'] > 0:\n        response.write(\'\\n    <p>\', escape=False)\n        response.write(T.M("Hit Ratio: **%(ratio)s%%** (**%(hits)s** %%{hit(hits)} and **%(misses)s** %%{miss(misses)})",\n        dict( ratio=ram[\'ratio\'], hits=ram[\'hits\'], misses=ram[\'misses\'])))\n        response.write(\'\\n    </p>\\n    <p>\\n      \', escape=False)\n        response.write(T("Size of cache:"))\n        response.write(\'\\n      \', escape=False)\n        if object_stats:\n            response.write(\'\\n        \', escape=False)\n            response.write(T.M("**%(items)s** items, **%(bytes)s** %%{byte(bytes)}", dict(items=ram[\'objects\'], bytes=ram[\'bytes\'])))\n            response.write(\'\\n        \', escape=False)\n            if ram[\'bytes\'] > 524287:\n                response.write(\'\\n          \', escape=False)\n                response.write(T.M("(**%.0d MB**)", ram[\'bytes\'] / 10485576))\n                response.write(\'\\n        \', escape=False)\n                pass\n            response.write(\'\\n      \', escape=False)\n        else:\n            response.write(\'\\n        \', escape=False)\n            response.write(T.M("``**not available**``:red (requires the Python [[Pympler https://pypi.python.org/pypi/Pympler popup]] library)"))\n            response.write(\'\\n      \', escape=False)\n            pass\n        response.write(\'\\n    </p>\\n    <p>\\n      \', escape=False)\n        response.write(T.M("RAM contains items up to **%(hours)02d** %%{hour(hours)} **%(min)02d** %%{minute(min)} **%(sec)02d** %%{second(sec)} old.",\n        dict(hours=ram[\'oldest\'][0], min=ram[\'oldest\'][1], sec=ram[\'oldest\'][2])))\n        response.write(\'\\n    </p>\\n    \', escape=False)\n        response.write(BUTTON(T(\'RAM Cache Keys\'), _onclick=\'jQuery("#ram_keys").toggle().toggleClass( "w2p_hidden" );\'))\n        response.write(\'\\n    <div class="w2p_hidden" id="ram_keys">\\n      \', escape=False)\n        response.write(ram[\'keys\'])\n        response.write(\'\\n    </div>\\n    <br />\\n    \', escape=False)\n        pass\n    response.write(\'\\n\\n    <h4>\', escape=False)\n    response.write(T("DISK"))\n    response.write(\'</h4>\\n    <p>\', escape=False)\n    response.write(T.M("Number of entries: **%s**", disk[\'entries\']))\n    response.write(\'</p>\\n    \', escape=False)\n    if disk[\'entries\'] > 0:\n        response.write(\'\\n      <p>\\n      \', escape=False)\n        response.write(T.M("Hit Ratio: **%(ratio)s%%** (**%(hits)s** %%{hit(hits)} and **%(misses)s** %%{miss(misses)})",\n        dict(ratio=disk[\'ratio\'], hits=disk[\'hits\'], misses=disk[\'misses\'])))\n        response.write(\'\\n      </p>\\n      <p>\\n      \', escape=False)\n        response.write(T("Size of cache:"))\n        response.write(\'\\n      \', escape=False)\n        if object_stats:\n            response.write(\'\\n        \', escape=False)\n            response.write(T.M("**%(items)s** %%{item(items)}, **%(bytes)s** %%{byte(bytes)}", dict( items=disk[\'objects\'], bytes=disk[\'bytes\'])))\n            response.write(\'\\n        \', escape=False)\n            if disk[\'bytes\'] > 524287:\n                response.write(\'\\n          \', escape=False)\n                response.write(T.M("(**%.0d MB**)", disk[\'bytes\'] / 1048576))\n                response.write(\'\\n        \', escape=False)\n                pass\n            response.write(\'\\n      \', escape=False)\n        else:\n            response.write(\'\\n        \', escape=False)\n            response.write(T.M("``**not available**``:red (requires the Python [[Pympler https://pypi.python.org/pypi/Pympler popup]] library)"))\n            response.write(\'\\n      \', escape=False)\n            pass\n        response.write(\'\\n      </p>\\n      <p>\\n      \', escape=False)\n        response.write(T.M("DISK contains items up to **%(hours)02d** %%{hour(hours)} **%(min)02d** %%{minute(min)} **%(sec)02d** %%{second(sec)} old.",\n        dict(hours=disk[\'oldest\'][0], min=disk[\'oldest\'][1], sec=disk[\'oldest\'][2])))\n        response.write(\'\\n      </p>\\n      \', escape=False)\n        response.write(BUTTON(T(\'Disk Cache Keys\'), _onclick=\'jQuery("#disk_keys").toggle().toggleClass( "w2p_hidden" );\'))\n        response.write(\'\\n      <div class="w2p_hidden" id="disk_keys">\\n      \', escape=False)\n        response.write(disk[\'keys\'])\n        response.write(\'\\n      </div>\\n      <br />\\n    \', escape=False)\n        pass\n    response.write(\'\\n  </div>\\n\\n  <div class="list-header">\\n    <h3>\', escape=False)\n    response.write(T("Manage Cache"))\n    response.write(\'</h3>\\n  </div>\\n\\n  <div class="content">\\n    <p>\\n      \', escape=False)\n    response.write(form)\n    response.write(\'\\n    </p>\\n  </div>\\n</div>\\n<div class="clear"></div>\\n\', escape=False)\n    pass\nresponse.write(\'\\n\\n\', escape=False)\nif request.function==\'d3_graph_model\':\n    response.write(\'\\n<h2>\', escape=False)\n    response.write(T("Graph Model"))\n    response.write(\'</h2>\\n  \', escape=False)\n    if not databases:\n        response.write(\'  \\n    \', escape=False)\n        response.write(T("No databases in this application"))\n        response.write(\'\\n  \', escape=False)\n    else:\n        response.write(\'    \\n    <div id="vis"></div>\\n      <link rel="stylesheet" href="\', escape=False)\n        response.write(URL(\'admin\',\'static\',\'css/d3_graph.css\'))\n        response.write(\'"/>\\n      <script>\\n        // Define the d3 input data\\n        \', escape=False)\n        from gluon.serializers import json\n        response.write(\'\\n        var nodes = \', escape=False)\n        response.write(XML(json(nodes)))\n        response.write(\';\\n        var links = \', escape=False)\n        response.write(XML(json(links)))\n        response.write(\';\\n        d3_graph();\\n      </script>\\n  \', escape=False)\n        pass\n    response.write(\'\\n\', escape=False)\n    pass\nresponse.write(\'  \\n\\n\', escape=False)\nif request.function == \'manage\':\n    response.write(\'\\n<h2>\', escape=False)\n    response.write(heading)\n    response.write(\'</h2>\\n<ul class="nav nav-tabs">\\n  \', escape=False)\n    for k, tablename in enumerate(tablenames):\n        response.write(\'\\n  <li\', escape=False)\n        response.write(XML(\' class="active"\') if k == 0 else \'\')\n        response.write(\'>\\n    <a href="#table-\', escape=False)\n        response.write(tablename)\n        response.write(\'" data-toggle="tab">\', escape=False)\n        response.write(labels[k])\n        response.write(\'</a>\\n  </li>\\n  \', escape=False)\n        pass\n    response.write(\'\\n</ul>\\n\\n<div class="tab-content">\\n  \', escape=False)\n    for k, tablename in enumerate(tablenames):\n        response.write(\'\\n  <div class="tab-pane\', escape=False)\n        response.write(XML(\' active\') if k == 0 else \'\')\n        response.write(\'" id="table-\', escape=False)\n        response.write(tablename)\n        response.write(\'">\\n    \', escape=False)\n        response.write(LOAD(f=\'manage.load\', args=[request.args(0), k], ajax=True))\n        response.write(\'\\n  </div>\\n  \', escape=False)\n        pass\n    response.write(\'\\n</div>\\n\', escape=False)\n    pass\nresponse.write(\'\\n\\n  </div>\\n</div>\\n\', escape=False)\nresponse.write(\'\\n      \', escape=False)\nresponse.write(response.toolbar() if response.show_toolbar else \'\')\nresponse.write(\'\\n    </div>\\n\\n    \', escape=False)\nresponse.write(\' <!-- this is default footer -->\\n    <footer class="footer container-fluid">\\n      <div class="row">\\n        <div class="col-md-12">\\n          <div class="copyright pull-left">\', escape=False)\nresponse.write(T(\'Copyright\'))\nresponse.write(\' &#169; \', escape=False)\nresponse.write(request.now.year)\nresponse.write(\'</div>\\n          <div id="poweredBy" class="pull-right">\\n            \', escape=False)\nresponse.write(T(\'Powered by\'))\nresponse.write(\'\\n            <a href="http://www.web2py.com/">web2py</a>\\n          </div>\\n        </div>\\n      </div>\\n    </footer>\\n    \', escape=False)\nresponse.write(\'\\n    <!-- The javascript =============================== -->\\n    <script src="\', escape=False)\nresponse.write(URL(\'static\',\'js/bootstrap.bundle.min.js\'))\nresponse.write(\'"></script>\\n    <script src="\', escape=False)\nresponse.write(URL(\'static\',\'js/web2py-bootstrap4.js\'))\nresponse.write(\'"></script>\\n    \', escape=False)\nresponse.write(\'\\n    \', escape=False)\nif response.google_analytics_id:\n    response.write(\'\\n    <!-- Analytics ==================================== -->\\n    <script src="\', escape=False)\n    response.write(URL(\'static\',\'js/analytics.min.js\'))\n    response.write(\'"></script>\\n    <script type="text/javascript">\\n      analytics.initialize({\\n      \\\'Google Analytics\\\':{trackingId:\\\'\', escape=False)\n    response.write(response.google_analytics_id)\n    response.write("\'}\\n      });\\n    </script>\\n    ", escape=False)\n    pass\nresponse.write(\'\\n  </body>\\n</html>\\n\', escape=False)'
p7
sS'snapshot'
p8
(dp9
S'exception'
p10
(dp11
S'__getslice__'
p12
S"<method-wrapper '__getslice__' of exceptions.TypeError object>"
p13
sS'__str__'
p14
S"<method-wrapper '__str__' of exceptions.TypeError object>"
p15
sS'__reduce__'
p16
S'<built-in method __reduce__ of exceptions.TypeError object>'
p17
sS'__dict__'
p18
S'{}'
p19
sS'message'
p20
S"'<gluon.validators.IS_IN_SET object at 0x7fb5a5342790> is not JSON serializable'"
p21
sS'__sizeof__'
p22
S'<built-in method __sizeof__ of exceptions.TypeError object>'
p23
sS'__init__'
p24
S"<method-wrapper '__init__' of exceptions.TypeError object>"
p25
sS'__setattr__'
p26
S"<method-wrapper '__setattr__' of exceptions.TypeError object>"
p27
sS'__reduce_ex__'
p28
S'<built-in method __reduce_ex__ of exceptions.TypeError object>'
p29
sS'__new__'
p30
S'<built-in method __new__ of type object>'
p31
sS'__format__'
p32
S'<built-in method __format__ of exceptions.TypeError object>'
p33
sS'__class__'
p34
S"<type 'exceptions.TypeError'>"
p35
sS'__doc__'
p36
S"'Inappropriate argument type.'"
p37
sS'__getitem__'
p38
S"<method-wrapper '__getitem__' of exceptions.TypeError object>"
p39
sS'__setstate__'
p40
S'<built-in method __setstate__ of exceptions.TypeError object>'
p41
sS'__getattribute__'
p42
S"<method-wrapper '__getattribute__' of exceptions.TypeError object>"
p43
sS'args'
p44
S"('<gluon.validators.IS_IN_SET object at 0x7fb5a5342790> is not JSON serializable',)"
p45
sS'__subclasshook__'
p46
S'<built-in method __subclasshook__ of type object>'
p47
sS'__unicode__'
p48
S'<built-in method __unicode__ of exceptions.TypeError object>'
p49
sS'__delattr__'
p50
S"<method-wrapper '__delattr__' of exceptions.TypeError object>"
p51
sS'__repr__'
p52
S"<method-wrapper '__repr__' of exceptions.TypeError object>"
p53
sS'__hash__'
p54
S"<method-wrapper '__hash__' of exceptions.TypeError object>"
p55
ssS'evalue'
p56
S'<gluon.validators.IS_IN_SET object at 0x7fb5a5342790> is not JSON serializable'
p57
sS'request'
p58
cgluon.html
XML_unpickle
p59
(S'se`\x00\x00<div><table><tr><td style="font-weight:bold;vertical-align:top;">ajax</td><td style="vertical-align:top;">:</td><td><div>False</div></td></tr><tr><td style="font-weight:bold;vertical-align:top;">application</td><td style="vertical-align:top;">:</td><td><div>MeioAmbienteRP</div></td></tr><tr><td style="font-weight:bold;vertical-align:top;">args</td><td style="vertical-align:top;">:</td><td><div><table></table></div></td></tr><tr><td style="font-weight:bold;vertical-align:top;">cid</td><td style="vertical-align:top;">:</td><td><div>None</div></td></tr><tr><td style="font-weight:bold;vertical-align:top;">client</td><td style="vertical-align:top;">:</td><td><div>127.0.0.1</div></td></tr><tr><td style="font-weight:bold;vertical-align:top;">controller</td><td style="vertical-align:top;">:</td><td><div>appadmin</div></td></tr><tr><td style="font-weight:bold;vertical-align:top;">cookies</td><td style="vertical-align:top;">:</td><td><div><table><tr><td style="font-weight:bold;vertical-align:top;">session_id_admin</td><td style="vertical-align:top;">:</td><td><div>127.0.0.1-3a49723e-43ec-4749-ba05-8e59b10f7e85<table><tr><td style="font-weight:bold;vertical-align:top;">comment</td><td style="vertical-align:top;">:</td><td><div></div></td></tr><tr><td style="font-weight:bold;vertical-align:top;">domain</td><td style="vertical-align:top;">:</td><td><div></div></td></tr><tr><td style="font-weight:bold;vertical-align:top;">expires</td><td style="vertical-align:top;">:</td><td><div></div></td></tr><tr><td style="font-weight:bold;vertical-align:top;">httponly</td><td style="vertical-align:top;">:</td><td><div></div></td></tr><tr><td style="font-weight:bold;vertical-align:top;">max-age</td><td style="vertical-align:top;">:</td><td><div></div></td></tr><tr><td style="font-weight:bold;vertical-align:top;">path</td><td style="vertical-align:top;">:</td><td><div></div></td></tr><tr><td style="font-weight:bold;vertical-align:top;">samesite</td><td style="vertical-align:top;">:</td><td><div></div></td></tr><tr><td style="font-weight:bold;vertical-align:top;">secure</td><td style="vertical-align:top;">:</td><td><div></div></td></tr><tr><td style="font-weight:bold;vertical-align:top;">version</td><td style="vertical-align:top;">:</td><td><div></div></td></tr></table></div></td></tr><tr><td style="font-weight:bold;vertical-align:top;">session_id_meioambienterp</td><td style="vertical-align:top;">:</td><td><div>127.0.0.1-7149d612-f4cc-49f2-bbd6-544ca9b255c9<table><tr><td style="font-weight:bold;vertical-align:top;">comment</td><td style="vertical-align:top;">:</td><td><div></div></td></tr><tr><td style="font-weight:bold;vertical-align:top;">domain</td><td style="vertical-align:top;">:</td><td><div></div></td></tr><tr><td style="font-weight:bold;vertical-align:top;">expires</td><td style="vertical-align:top;">:</td><td><div></div></td></tr><tr><td style="font-weight:bold;vertical-align:top;">httponly</td><td style="vertical-align:top;">:</td><td><div></div></td></tr><tr><td style="font-weight:bold;vertical-align:top;">max-age</td><td style="vertical-align:top;">:</td><td><div></div></td></tr><tr><td style="font-weight:bold;vertical-align:top;">path</td><td style="vertical-align:top;">:</td><td><div></div></td></tr><tr><td style="font-weight:bold;vertical-align:top;">samesite</td><td style="vertical-align:top;">:</td><td><div></div></td></tr><tr><td style="font-weight:bold;vertical-align:top;">secure</td><td style="vertical-align:top;">:</td><td><div></div></td></tr><tr><td style="font-weight:bold;vertical-align:top;">version</td><td style="vertical-align:top;">:</td><td><div></div></td></tr></table></div></td></tr><tr><td style="font-weight:bold;vertical-align:top;">session_id_qualidade_ambiental</td><td style="vertical-align:top;">:</td><td><div>127.0.0.1-3220a474-40cc-4adc-b8f4-e61d0663bb51<table><tr><td style="font-weight:bold;vertical-align:top;">comment</td><td style="vertical-align:top;">:</td><td><div></div></td></tr><tr><td style="font-weight:bold;vertical-align:top;">domain</td><td style="vertical-align:top;">:</td><td><div></div></td></tr><tr><td style="font-weight:bold;vertical-align:top;">expires</td><td style="vertical-align:top;">:</td><td><div></div></td></tr><tr><td style="font-weight:bold;vertical-align:top;">httponly</td><td style="vertical-align:top;">:</td><td><div></div></td></tr><tr><td style="font-weight:bold;vertical-align:top;">max-age</td><td style="vertical-align:top;">:</td><td><div></div></td></tr><tr><td style="font-weight:bold;vertical-align:top;">path</td><td style="vertical-align:top;">:</td><td><div></div></td></tr><tr><td style="font-weight:bold;vertical-align:top;">samesite</td><td style="vertical-align:top;">:</td><td><div></div></td></tr><tr><td style="font-weight:bold;vertical-align:top;">secure</td><td style="vertical-align:top;">:</td><td><div></div></td></tr><tr><td style="font-weight:bold;vertical-align:top;">version</td><td style="vertical-align:top;">:</td><td><div></div></td></tr></table></div></td></tr><tr><td style="font-weight:bold;vertical-align:top;">session_id_welcome</td><td style="vertical-align:top;">:</td><td><div>127.0.0.1-eb5ac17e-39f1-4c1f-982a-2183ae2755f9<table><tr><td style="font-weight:bold;vertical-align:top;">comment</td><td style="vertical-align:top;">:</td><td><div></div></td></tr><tr><td style="font-weight:bold;vertical-align:top;">domain</td><td style="vertical-align:top;">:</td><td><div></div></td></tr><tr><td style="font-weight:bold;vertical-align:top;">expires</td><td style="vertical-align:top;">:</td><td><div></div></td></tr><tr><td style="font-weight:bold;vertical-align:top;">httponly</td><td style="vertical-align:top;">:</td><td><div></div></td></tr><tr><td style="font-weight:bold;vertical-align:top;">max-age</td><td style="vertical-align:top;">:</td><td><div></div></td></tr><tr><td style="font-weight:bold;vertical-align:top;">path</td><td style="vertical-align:top;">:</td><td><div></div></td></tr><tr><td style="font-weight:bold;vertical-align:top;">samesite</td><td style="vertical-align:top;">:</td><td><div></div></td></tr><tr><td style="font-weight:bold;vertical-align:top;">secure</td><td style="vertical-align:top;">:</td><td><div></div></td></tr><tr><td style="font-weight:bold;vertical-align:top;">version</td><td style="vertical-align:top;">:</td><td><div></div></td></tr></table></div></td></tr></table></div></td></tr><tr><td style="font-weight:bold;vertical-align:top;">env</td><td style="vertical-align:top;">:</td><td><div><table><tr><td style="font-weight:bold;vertical-align:top;">CONTENT_LENGTH</td><td style="vertical-align:top;">:</td><td><div></div></td></tr><tr><td style="font-weight:bold;vertical-align:top;">CONTENT_TYPE</td><td style="vertical-align:top;">:</td><td><div></div></td></tr><tr><td style="font-weight:bold;vertical-align:top;">DOCUMENT_ROOT</td><td style="vertical-align:top;">:</td><td><div>/usr/share/nginx/html</div></td></tr><tr><td style="font-weight:bold;vertical-align:top;">HTTPS</td><td style="vertical-align:top;">:</td><td><div>on</div></td></tr><tr><td style="font-weight:bold;vertical-align:top;">HTTP_ACCEPT</td><td style="vertical-align:top;">:</td><td><div>text/html,application/xhtml+xml,application/xml;q=0.9,image/webp,*/*;q=0.8</div></td></tr><tr><td style="font-weight:bold;vertical-align:top;">HTTP_ACCEPT_ENCODING</td><td style="vertical-align:top;">:</td><td><div>gzip, deflate, br</div></td></tr><tr><td style="font-weight:bold;vertical-align:top;">HTTP_ACCEPT_LANGUAGE</td><td style="vertical-align:top;">:</td><td><div>pt-BR</div></td></tr><tr><td style="font-weight:bold;vertical-align:top;">HTTP_CONNECTION</td><td style="vertical-align:top;">:</td><td><div>keep-alive</div></td></tr><tr><td style="font-weight:bold;vertical-align:top;">HTTP_COOKIE</td><td style="vertical-align:top;">:</td><td><div>session_id_welcome=127.0.0.1-eb5ac17e-39f1-4c1f-982a-2183ae2755f9; _xsrf=2|e4af2d7d|4e87312c03b6f06245bddee51b4d3388|1576147839; session_id_admin=127.0.0.1-3a49723e-43ec-4749-ba05-8e59b10f7e85; session_id_meioambienterp=127.0.0.1-7149d612-f4cc-49f2-bbd6-544ca9b255c9; session_id_qualidade_ambiental=127.0.0.1-3220a474-40cc-4adc-b8f4-e61d0663bb51</div></td></tr><tr><td style="font-weight:bold;vertical-align:top;">HTTP_DNT</td><td style="vertical-align:top;">:</td><td><div>1</div></td></tr><tr><td style="font-weight:bold;vertical-align:top;">HTTP_HOST</td><td style="vertical-align:top;">:</td><td><div>smmau-004-pc004</div></td></tr><tr><td style="font-weight:bold;vertical-align:top;">HTTP_REFERER</td><td style="vertical-align:top;">:</td><td><div>https://smmau-004-pc004/admin/default/design/MeioAmbienteRP</div></td></tr><tr><td style="font-weight:bold;vertical-align:top;">HTTP_UPGRADE_INSECURE_REQUESTS</td><td style="vertical-align:top;">:</td><td><div>1</div></td></tr><tr><td style="font-weight:bold;vertical-align:top;">HTTP_USER_AGENT</td><td style="vertical-align:top;">:</td><td><div>Mozilla/5.0 (X11; Ubuntu; Linux x86_64; rv:72.0) Gecko/20100101 Firefox/72.0</div></td></tr><tr><td style="font-weight:bold;vertical-align:top;">PATH_INFO</td><td style="vertical-align:top;">:</td><td><div>/MeioAmbienteRP/appadmin/d3_graph_model</div></td></tr><tr><td style="font-weight:bold;vertical-align:top;">QUERY_STRING</td><td style="vertical-align:top;">:</td><td><div></div></td></tr><tr><td style="font-weight:bold;vertical-align:top;">REMOTE_ADDR</td><td style="vertical-align:top;">:</td><td><div>127.0.0.1</div></td></tr><tr><td style="font-weight:bold;vertical-align:top;">REMOTE_PORT</td><td style="vertical-align:top;">:</td><td><div>58380</div></td></tr><tr><td style="font-weight:bold;vertical-align:top;">REQUEST_METHOD</td><td style="vertical-align:top;">:</td><td><div>GET</div></td></tr><tr><td style="font-weight:bold;vertical-align:top;">REQUEST_SCHEME</td><td style="vertical-align:top;">:</td><td><div>https</div></td></tr><tr><td style="font-weight:bold;vertical-align:top;">REQUEST_URI</td><td style="vertical-align:top;">:</td><td><div>/MeioAmbienteRP/appadmin/d3_graph_model</div></td></tr><tr><td style="font-weight:bold;vertical-align:top;">SERVER_NAME</td><td style="vertical-align:top;">:</td><td><div>smmau-004-pc004</div></td></tr><tr><td style="font-weight:bold;vertical-align:top;">SERVER_PORT</td><td style="vertical-align:top;">:</td><td><div>443</div></td></tr><tr><td style="font-weight:bold;vertical-align:top;">SERVER_PROTOCOL</td><td style="vertical-align:top;">:</td><td><div>HTTP/1.1</div></td></tr><tr><td style="font-weight:bold;vertical-align:top;">SERVER_SOFTWARE</td><td style="vertical-align:top;">:</td><td><div>nginx/1.14.0</div></td></tr><tr><td style="font-weight:bold;vertical-align:top;">UWSGI_SCHEME</td><td style="vertical-align:top;">:</td><td><div>https</div></td></tr><tr><td style="font-weight:bold;vertical-align:top;">app_folders</td><td style="vertical-align:top;">:</td><td><div>set([&#x27;/home/www-data/web2py/applications/MeioAmbienteRP/&#x27;, &#x27;/home/www-data/web2py/applications/admin/&#x27;])</div></td></tr><tr><td style="font-weight:bold;vertical-align:top;">applications_parent</td><td style="vertical-align:top;">:</td><td><div>/home/www-data/web2py</div></td></tr><tr><td style="font-weight:bold;vertical-align:top;">content_length</td><td style="vertical-align:top;">:</td><td><div></div></td></tr><tr><td style="font-weight:bold;vertical-align:top;">content_type</td><td style="vertical-align:top;">:</td><td><div></div></td></tr><tr><td style="font-weight:bold;vertical-align:top;">db_sessions</td><td style="vertical-align:top;">:</td><td><div>set([])</div></td></tr><tr><td style="font-weight:bold;vertical-align:top;">debugging</td><td style="vertical-align:top;">:</td><td><div>False</div></td></tr><tr><td style="font-weight:bold;vertical-align:top;">document_root</td><td style="vertical-align:top;">:</td><td><div>/usr/share/nginx/html</div></td></tr><tr><td style="font-weight:bold;vertical-align:top;">gluon_parent</td><td style="vertical-align:top;">:</td><td><div>/home/www-data/web2py</div></td></tr><tr><td style="font-weight:bold;vertical-align:top;">http_accept</td><td style="vertical-align:top;">:</td><td><div>text/html,application/xhtml+xml,application/xml;q=0.9,image/webp,*/*;q=0.8</div></td></tr><tr><td style="font-weight:bold;vertical-align:top;">http_accept_encoding</td><td style="vertical-align:top;">:</td><td><div>gzip, deflate, br</div></td></tr><tr><td style="font-weight:bold;vertical-align:top;">http_accept_language</td><td style="vertical-align:top;">:</td><td><div>pt-BR</div></td></tr><tr><td style="font-weight:bold;vertical-align:top;">http_connection</td><td style="vertical-align:top;">:</td><td><div>keep-alive</div></td></tr><tr><td style="font-weight:bold;vertical-align:top;">http_cookie</td><td style="vertical-align:top;">:</td><td><div>session_id_welcome=127.0.0.1-eb5ac17e-39f1-4c1f-982a-2183ae2755f9; _xsrf=2|e4af2d7d|4e87312c03b6f06245bddee51b4d3388|1576147839; session_id_admin=127.0.0.1-3a49723e-43ec-4749-ba05-8e59b10f7e85; session_id_meioambienterp=127.0.0.1-7149d612-f4cc-49f2-bbd6-544ca9b255c9; session_id_qualidade_ambiental=127.0.0.1-3220a474-40cc-4adc-b8f4-e61d0663bb51</div></td></tr><tr><td style="font-weight:bold;vertical-align:top;">http_dnt</td><td style="vertical-align:top;">:</td><td><div>1</div></td></tr><tr><td style="font-weight:bold;vertical-align:top;">http_host</td><td style="vertical-align:top;">:</td><td><div>smmau-004-pc004</div></td></tr><tr><td style="font-weight:bold;vertical-align:top;">http_referer</td><td style="vertical-align:top;">:</td><td><div>https://smmau-004-pc004/admin/default/design/MeioAmbienteRP</div></td></tr><tr><td style="font-weight:bold;vertical-align:top;">http_upgrade_insecure_requests</td><td style="vertical-align:top;">:</td><td><div>1</div></td></tr><tr><td style="font-weight:bold;vertical-align:top;">http_user_agent</td><td style="vertical-align:top;">:</td><td><div>Mozilla/5.0 (X11; Ubuntu; Linux x86_64; rv:72.0) Gecko/20100101 Firefox/72.0</div></td></tr><tr><td style="font-weight:bold;vertical-align:top;">https</td><td style="vertical-align:top;">:</td><td><div>on</div></td></tr><tr><td style="font-weight:bold;vertical-align:top;">is_jython</td><td style="vertical-align:top;">:</td><td><div>False</div></td></tr><tr><td style="font-weight:bold;vertical-align:top;">is_py2</td><td style="vertical-align:top;">:</td><td><div>True</div></td></tr><tr><td style="font-weight:bold;vertical-align:top;">is_pypy</td><td style="vertical-align:top;">:</td><td><div>False</div></td></tr><tr><td style="font-weight:bold;vertical-align:top;">is_source</td><td style="vertical-align:top;">:</td><td><div>True</div></td></tr><tr><td style="font-weight:bold;vertical-align:top;">local_hosts</td><td style="vertical-align:top;">:</td><td><div><table><tr><td><div>smmau-004-pc004</div></td></tr><tr><td><div>::1</div></td></tr><tr><td><div>::ffff:127.0.0.1</div></td></tr><tr><td><div>127.0.0.1</div></td></tr><tr><td><div>smmau-004-pc004.REDE-EMPRO.empro.com.br</div></td></tr></table></div></td></tr><tr><td style="font-weight:bold;vertical-align:top;">path_info</td><td style="vertical-align:top;">:</td><td><div>/MeioAmbienteRP/appadmin/d3_graph_model</div></td></tr><tr><td style="font-weight:bold;vertical-align:top;">query_string</td><td style="vertical-align:top;">:</td><td><div></div></td></tr><tr><td style="font-weight:bold;vertical-align:top;">remote_addr</td><td style="vertical-align:top;">:</td><td><div>127.0.0.1</div></td></tr><tr><td style="font-weight:bold;vertical-align:top;">remote_port</td><td style="vertical-align:top;">:</td><td><div>58380</div></td></tr><tr><td style="font-weight:bold;vertical-align:top;">request_method</td><td style="vertical-align:top;">:</td><td><div>GET</div></td></tr><tr><td style="font-weight:bold;vertical-align:top;">request_scheme</td><td style="vertical-align:top;">:</td><td><div>https</div></td></tr><tr><td style="font-weight:bold;vertical-align:top;">request_uri</td><td style="vertical-align:top;">:</td><td><div>/MeioAmbienteRP/appadmin/d3_graph_model</div></td></tr><tr><td style="font-weight:bold;vertical-align:top;">server_name</td><td style="vertical-align:top;">:</td><td><div>smmau-004-pc004</div></td></tr><tr><td style="font-weight:bold;vertical-align:top;">server_port</td><td style="vertical-align:top;">:</td><td><div>443</div></td></tr><tr><td style="font-weight:bold;vertical-align:top;">server_protocol</td><td style="vertical-align:top;">:</td><td><div>HTTP/1.1</div></td></tr><tr><td style="font-weight:bold;vertical-align:top;">server_software</td><td style="vertical-align:top;">:</td><td><div>nginx/1.14.0</div></td></tr><tr><td style="font-weight:bold;vertical-align:top;">uwsgi.node</td><td style="vertical-align:top;">:</td><td><div>smmau-004-pc004</div></td></tr><tr><td style="font-weight:bold;vertical-align:top;">uwsgi.version</td><td style="vertical-align:top;">:</td><td><div>2.0.18</div></td></tr><tr><td style="font-weight:bold;vertical-align:top;">uwsgi_node</td><td style="vertical-align:top;">:</td><td><div>smmau-004-pc004</div></td></tr><tr><td style="font-weight:bold;vertical-align:top;">uwsgi_scheme</td><td style="vertical-align:top;">:</td><td><div>https</div></td></tr><tr><td style="font-weight:bold;vertical-align:top;">uwsgi_version</td><td style="vertical-align:top;">:</td><td><div>2.0.18</div></td></tr><tr><td style="font-weight:bold;vertical-align:top;">web2py_path</td><td style="vertical-align:top;">:</td><td><div>/home/www-data/web2py</div></td></tr><tr><td style="font-weight:bold;vertical-align:top;">web2py_version</td><td style="vertical-align:top;">:</td><td><div>2.17.2-stable+timestamp.2018.10.06.18.54.02</div></td></tr><tr><td style="font-weight:bold;vertical-align:top;">wsgi.errors</td><td style="vertical-align:top;">:</td><td><div>&lt;open file &#x27;wsgi_errors&#x27;, mode &#x27;w&#x27; at 0x7fb5a8c07930&gt;</div></td></tr><tr><td style="font-weight:bold;vertical-align:top;">wsgi.file_wrapper</td><td style="vertical-align:top;">:</td><td><div>&lt;built-in function uwsgi_sendfile&gt;</div></td></tr><tr><td style="font-weight:bold;vertical-align:top;">wsgi.input</td><td style="vertical-align:top;">:</td><td><div>&lt;uwsgi._Input object at 0x7fb5a5b995d0&gt;</div></td></tr><tr><td style="font-weight:bold;vertical-align:top;">wsgi.multiprocess</td><td style="vertical-align:top;">:</td><td><div>True</div></td></tr><tr><td style="font-weight:bold;vertical-align:top;">wsgi.multithread</td><td style="vertical-align:top;">:</td><td><div>False</div></td></tr><tr><td style="font-weight:bold;vertical-align:top;">wsgi.run_once</td><td style="vertical-align:top;">:</td><td><div>False</div></td></tr><tr><td style="font-weight:bold;vertical-align:top;">wsgi.url_scheme</td><td style="vertical-align:top;">:</td><td><div>https</div></td></tr><tr><td style="font-weight:bold;vertical-align:top;">wsgi.version</td><td style="vertical-align:top;">:</td><td><div><table><tr><td><div>1</div></td></tr><tr><td><div>0</div></td></tr></table></div></td></tr><tr><td style="font-weight:bold;vertical-align:top;">wsgi_errors</td><td style="vertical-align:top;">:</td><td><div>&lt;open file &#x27;wsgi_errors&#x27;, mode &#x27;w&#x27; at 0x7fb5a8c07930&gt;</div></td></tr><tr><td style="font-weight:bold;vertical-align:top;">wsgi_file_wrapper</td><td style="vertical-align:top;">:</td><td><div>&lt;built-in function uwsgi_sendfile&gt;</div></td></tr><tr><td style="font-weight:bold;vertical-align:top;">wsgi_input</td><td style="vertical-align:top;">:</td><td><div>&lt;uwsgi._Input object at 0x7fb5a5b995d0&gt;</div></td></tr><tr><td style="font-weight:bold;vertical-align:top;">wsgi_multiprocess</td><td style="vertical-align:top;">:</td><td><div>True</div></td></tr><tr><td style="font-weight:bold;vertical-align:top;">wsgi_multithread</td><td style="vertical-align:top;">:</td><td><div>False</div></td></tr><tr><td style="font-weight:bold;vertical-align:top;">wsgi_run_once</td><td style="vertical-align:top;">:</td><td><div>False</div></td></tr><tr><td style="font-weight:bold;vertical-align:top;">wsgi_url_scheme</td><td style="vertical-align:top;">:</td><td><div>https</div></td></tr><tr><td style="font-weight:bold;vertical-align:top;">wsgi_version</td><td style="vertical-align:top;">:</td><td><div><table><tr><td><div>1</div></td></tr><tr><td><div>0</div></td></tr></table></div></td></tr></table></div></td></tr><tr><td style="font-weight:bold;vertical-align:top;">extension</td><td style="vertical-align:top;">:</td><td><div>html</div></td></tr><tr><td style="font-weight:bold;vertical-align:top;">folder</td><td style="vertical-align:top;">:</td><td><div>/home/www-data/web2py/applications/MeioAmbienteRP/</div></td></tr><tr><td style="font-weight:bold;vertical-align:top;">function</td><td style="vertical-align:top;">:</td><td><div>d3_graph_model</div></td></tr><tr><td style="font-weight:bold;vertical-align:top;">global_settings</td><td style="vertical-align:top;">:</td><td><div><table><tr><td style="font-weight:bold;vertical-align:top;">app_folders</td><td style="vertical-align:top;">:</td><td><div>set([&#x27;/home/www-data/web2py/applications/MeioAmbienteRP/&#x27;, &#x27;/home/www-data/web2py/applications/admin/&#x27;])</div></td></tr><tr><td style="font-weight:bold;vertical-align:top;">applications_parent</td><td style="vertical-align:top;">:</td><td><div>/home/www-data/web2py</div></td></tr><tr><td style="font-weight:bold;vertical-align:top;">db_sessions</td><td style="vertical-align:top;">:</td><td><div>set([])</div></td></tr><tr><td style="font-weight:bold;vertical-align:top;">debugging</td><td style="vertical-align:top;">:</td><td><div>False</div></td></tr><tr><td style="font-weight:bold;vertical-align:top;">gluon_parent</td><td style="vertical-align:top;">:</td><td><div>/home/www-data/web2py</div></td></tr><tr><td style="font-weight:bold;vertical-align:top;">is_jython</td><td style="vertical-align:top;">:</td><td><div>False</div></td></tr><tr><td style="font-weight:bold;vertical-align:top;">is_py2</td><td style="vertical-align:top;">:</td><td><div>True</div></td></tr><tr><td style="font-weight:bold;vertical-align:top;">is_pypy</td><td style="vertical-align:top;">:</td><td><div>False</div></td></tr><tr><td style="font-weight:bold;vertical-align:top;">is_source</td><td style="vertical-align:top;">:</td><td><div>True</div></td></tr><tr><td style="font-weight:bold;vertical-align:top;">local_hosts</td><td style="vertical-align:top;">:</td><td><div><table><tr><td><div>smmau-004-pc004</div></td></tr><tr><td><div>::1</div></td></tr><tr><td><div>::ffff:127.0.0.1</div></td></tr><tr><td><div>127.0.0.1</div></td></tr><tr><td><div>smmau-004-pc004.REDE-EMPRO.empro.com.br</div></td></tr></table></div></td></tr><tr><td style="font-weight:bold;vertical-align:top;">web2py_version</td><td style="vertical-align:top;">:</td><td><div>2.17.2-stable+timestamp.2018.10.06.18.54.02</div></td></tr></table></div></td></tr><tr><td style="font-weight:bold;vertical-align:top;">is_https</td><td style="vertical-align:top;">:</td><td><div>True</div></td></tr><tr><td style="font-weight:bold;vertical-align:top;">is_local</td><td style="vertical-align:top;">:</td><td><div>True</div></td></tr><tr><td style="font-weight:bold;vertical-align:top;">is_restful</td><td style="vertical-align:top;">:</td><td><div>False</div></td></tr><tr><td style="font-weight:bold;vertical-align:top;">is_scheduler</td><td style="vertical-align:top;">:</td><td><div>False</div></td></tr><tr><td style="font-weight:bold;vertical-align:top;">is_shell</td><td style="vertical-align:top;">:</td><td><div>False</div></td></tr><tr><td style="font-weight:bold;vertical-align:top;">method</td><td style="vertical-align:top;">:</td><td><div>GET</div></td></tr><tr><td style="font-weight:bold;vertical-align:top;">now</td><td style="vertical-align:top;">:</td><td><div>datetime.datetime(2020, 1, 13, 8, 16, 37, 129501)</div></td></tr><tr><td style="font-weight:bold;vertical-align:top;">raw_args</td><td style="vertical-align:top;">:</td><td><div></div></td></tr><tr><td style="font-weight:bold;vertical-align:top;">raw_extension</td><td style="vertical-align:top;">:</td><td><div>None</div></td></tr><tr><td style="font-weight:bold;vertical-align:top;">url</td><td style="vertical-align:top;">:</td><td><div>/MeioAmbienteRP/appadmin/d3_graph_model</div></td></tr><tr><td style="font-weight:bold;vertical-align:top;">utcnow</td><td style="vertical-align:top;">:</td><td><div>datetime.datetime(2020, 1, 13, 11, 16, 37, 129528)</div></td></tr><tr><td style="font-weight:bold;vertical-align:top;">wsgi</td><td style="vertical-align:top;">:</td><td><div>&lt;gluon.main.LazyWSGI object at 0x7fb5a557dc10&gt;</div></td></tr></table></div>'
tRp60
sS'frames'
p61
(lp62
(dp63
S'file'
p64
S'/home/www-data/web2py/gluon/restricted.py'
p65
sS'dump'
p66
(dp67
S'environment'
p68
S"{'A': <class 'gluon.html.A'>, 'A3pDica': <Table A3pDica (id, Titulo, body, Tags)>, 'A3pLixos': <Table A3pLixos (Id, IdPredio, Data, Tipo, Qtd)>, 'ANY_OF': <class 'gluon.validators.ANY_OF'>, 'ASSIGNJS': <function ASSIGNJS>, 'AppConfig': <function AppConfig>, 'Auth': <class 'gluon.tools.Auth'>, 'B': <class 'gluon.html.B'>, 'BEAUTIFY': <class 'gluon.html.BEAUTIFY'>, 'BODY': <class 'gluon.html.BODY'>, ...}"
p69
sS'ccode'
p70
S'<code object <module> at 0x7fb5a533ec30, file "/...ions/MeioAmbienteRP/views/appadmin.html", line 1>'
p71
ssS'lnum'
p72
I219
sS'lines'
p73
(dp74
I214
S'    if environment is None:'
p75
sI215
S'        environment = {}'
p76
sI216
S"    environment['__file__'] = layer"
p77
sI217
S"    environment['__name__'] = '__restricted__'"
p78
sI218
S'    try:'
p79
sI219
S'        exec(ccode, environment)'
p80
sI220
S'    except HTTP:'
p81
sI221
S'        raise'
p82
sI222
S'    except RestrictedError:'
p83
sI223
S'        # do not encapsulate (obfuscate) the original RestrictedError'
p84
ssS'call'
p85
S'(ccode=<code object <module> at 0x7fb5a533ec30, file "/...ions/MeioAmbienteRP/views/appadmin.html", line 1>, environment={\'A\': <class \'gluon.html.A\'>, \'A3pDica\': <Table A3pDica (id, Titulo, body, Tags)>, \'A3pLixos\': <Table A3pLixos (Id, IdPredio, Data, Tipo, Qtd)>, \'ANY_OF\': <class \'gluon.validators.ANY_OF\'>, \'ASSIGNJS\': <function ASSIGNJS>, \'AppConfig\': <function AppConfig>, \'Auth\': <class \'gluon.tools.Auth\'>, \'B\': <class \'gluon.html.B\'>, \'BEAUTIFY\': <class \'gluon.html.BEAUTIFY\'>, \'BODY\': <class \'gluon.html.BODY\'>, ...}, layer=\'/home/www-data/web2py/applications/MeioAmbienteRP/views/appadmin.html\', scode=r"response.write(\'<!DOCTYPE html>\\n<!--[if (gt IE ...nse.write(\'\\n  </body>\\n</html>\\n\', escape=False)")'
p86
sS'func'
p87
S'restricted'
p88
sa(dp89
g64
S'/home/www-data/web2py/applications/MeioAmbienteRP/views/appadmin.html'
p90
sg66
(dp91
sg72
I457
sg73
(dp92
I448
S"        response.write('  \\n    ', escape=False)"
p93
sI449
S'        response.write(T("No databases in this application"))'
p94
sI450
S"        response.write('\\n  ', escape=False)"
p95
sI451
S'    else:'
p96
sI452
S'        response.write(\'    \\n    <div id="vis"></div>\\n      <link rel="stylesheet" href="\', escape=False)'
p97
sI453
S"        response.write(URL('admin','static','css/d3_graph.css'))"
p98
sI454
S'        response.write(\'"/>\\n      <script>\\n        // Define the d3 input data\\n        \', escape=False)'
p99
sI455
S'        from gluon.serializers import json'
p100
sI456
S"        response.write('\\n        var nodes = ', escape=False)"
p101
sI457
S'        response.write(XML(json(nodes)))'
p102
sI458
S"        response.write(';\\n        var links = ', escape=False)"
p103
sI459
S'        response.write(XML(json(links)))'
p104
sI460
S"        response.write(';\\n        d3_graph();\\n      </script>\\n  ', escape=False)"
p105
sI461
S'        pass'
p106
sI462
S"    response.write('\\n', escape=False)"
p107
sI463
S'    pass'
p108
sI464
S"response.write('  \\n\\n', escape=False)"
p109
sI465
S"if request.function == 'manage':"
p110
sI466
S"    response.write('\\n<h2>', escape=False)"
p111
sI467
S'    response.write(heading)'
p112
ssg85
S'()'
p113
sg87
S'<module>'
p114
sa(dp115
g64
S'/home/www-data/web2py/gluon/serializers.py'
p116
sg66
(dp117
S'global json_parser'
p118
S"<module 'json' from '/usr/lib/python2.7/json/__init__.pyc'>"
p119
sS'indent'
p120
S'None'
p121
sS'default'
p122
S'<function custom_json>'
p123
sS'value'
p124
S"[{'fields': [{'disp': 512, 'name': 'Cidade', 'type': 'string'}, {'disp': ' ', 'name': 'CEP', 'type': 'integer'}, {'disp': 'PK', 'name': 'Id', 'type': 'id'}], 'name': 'Cidades', 'type': 'table'}, {'fields': [{'disp': 'PK', 'name': 'Id', 'type': 'id'}, {'disp': 512, 'name': 'Bairro', 'type': 'string'}, {'disp': <gluon.validators.IS_IN_SET object>, 'name': 'Cor', 'type': 'string'}, {'disp': 'FK', 'name': 'IdCidade', 'type': 'reference Cidades'}, {'disp': ' ', 'name': 'Regiao', 'type': 'integer'}], 'name': 'Bairros', 'type': 'table'}, {'fields': [{'disp': 512, 'name': 'Logradouro', 'type': 'string'}, {'disp': ' ', 'name': 'Cep', 'type': 'integer'}, {'disp': 'PK', 'name': 'Id', 'type': 'id'}, {'disp': ' ', 'name': 'Denominacao', 'type': 'list:string'}, {'disp': ' ', 'name': 'Prefixo', 'type': 'list:string'}, {'disp': ' ', 'name': 'No', 'type': 'integer'}, {'disp': ' ', 'name': 'NoInicial', 'type': 'integer'}, {'disp': ' ', 'name': 'NoFinal', 'type': 'integer'}, {'disp': ' ', 'name': 'Lado', 'type': 'boolean'}, {'disp': 512, 'name': 'Complemento', 'type': 'string'}, {'disp': 'FK', 'name': 'IdBairro', 'type': 'reference Bairros'}, {'disp': 'FK', 'name': 'IdCidade', 'type': 'reference Cidades'}], 'name': 'Logradouros', 'type': 'table'}, {'fields': [{'disp': 'PK', 'name': 'Id', 'type': 'id'}, {'disp': 'FK', 'name': 'IdLogradouro', 'type': 'reference Logradouros'}, {'disp': ' ', 'name': 'Num', 'type': 'integer'}, {'disp': '8', 'name': 'Quadra', 'type': 'string'}, {'disp': '8', 'name': 'Lote', 'type': 'string'}, {'disp': <gluon.validators.IS_IN_SET object>, 'name': 'Tipo', 'type': 'string'}, {'disp': '18', 'name': 'Complemento', 'type': 'string'}, {'disp': <gluon.validators.IS_IN_SET object>, 'name': 'TipoB', 'type': 'string'}, {'disp': '18', 'name': 'ComplementoB', 'type': 'string'}], 'name': 'Enderecos', 'type': 'table'}, {'fields': [{'disp': 'PK', 'name': 'Id', 'type': 'id'}, {'disp': ' ', 'name': 'IdEstoque', 'type': 'list'}, {'disp': ' ', 'name': 'Qtd', 'type': 'decimal(10,2)'}, {'disp': ' ', 'name': 'DataReg', 'type': 'datetime'}, {'disp': ' ', 'name': 'IdPessoa', 'type': 'integer'}, {'disp': ' ', 'name': 'Uso', 'type': 'text'}, {'disp': ' ', 'name': 'QtdDevolvido', 'type': 'decimal(8,2)'}], 'name': 'ControleRetirada', 'type': 'table'}, {'fields': [{'disp': 'PK', 'name': 'Id', 'type': 'id'}, {'disp': ' ', 'name': 'Protocolo', 'type': 'integer'}, {'disp': ' ', 'name': 'IdMaterial', 'type': 'integer'}, {'disp': ' ', 'name': 'Qtd', 'type': 'integer'}, {'disp': ' ', 'name': 'DataReg', 'type': 'datetime'}], 'name': 'ListasCompra', 'type': 'table'}, {'fields': [{'disp': 'PK', 'name': 'id', 'type': 'id'}, {'disp': 255, 'name': 'title', 'type': 'string'}, {'disp': 255, 'name': 'filename', 'type': 'string'}, {'disp': ' ', 'name': 'flength', 'type': 'integer'}, {'disp': 128, 'name': 'mime_type', 'type': 'string'}, {'disp': ' ', 'name': 'upload', 'type': 'upload'}], 'name': 'plugin_ckeditor_upload', 'type': 'table'}, {'fields': [{'disp': 'PK', 'name': 'id', 'type': 'id'}, {'disp': '20', 'name': 'Tag', 'type': 'string'}], 'name': 'Tags', 'type': 'table'}, {'fields': [{'disp': 'PK', 'name': 'id', 'type': 'id'}, {'disp': 512, 'name': 'Titulo', 'type': 'string'}, {'disp': ' ', 'name': 'body', 'type': 'text'}, {'disp': 'FK', 'name': 'Tags', 'type': 'list:reference Tags'}], 'name': 'A3pDica', 'type': 'table'}, {'fields': [{'disp': 'PK', 'name': 'Id', 'type': 'id'}, {'disp': ' ', 'name': 'IdDof', 'type': 'text'}, {'disp': ' ', 'name': 'Item', 'type': 'decimal(2,0)'}, {'disp': ' ', 'name': 'Produto', 'type': 'text'}, {'disp': ' ', 'name': 'Especie', 'type': 'text'}, {'disp': ' ', 'name': 'Popular', 'type': 'text'}, {'disp': ' ', 'name': 'Qtd', 'type': 'decimal(7,4)'}, {'disp': ' ', 'name': 'Unidade', 'type': 'text'}, {'disp': ' ', 'name': 'Valor', 'type': 'text'}], 'name': 'MadeirasDof', 'type': 'table'}, {'fields': [{'disp': 'PK', 'name': 'Id', 'type': 'id'}, {'disp': ' ', 'name': 'IdCat', 'type': 'integer'}, {'disp': ' ', 'name': 'IdSub', 'type': 'integer'}, {'disp': ' ', 'name': 'Cod', 'type': 'integer'}, {'disp': ' ', 'name': 'Material', 'type': 'text'}, {'disp': ' ', 'name': 'Unidade', 'type': 'text'}], 'name': 'Materiais', 'type': 'table'}, {'fields': [{'disp': 'PK', 'name': 'Id', 'type': 'id'}, {'disp': 'FK', 'name': 'IdMaterial', 'type': 'reference Materiais'}, {'disp': ' ', 'name': 'Qtd', 'type': 'decimal(10,2)'}, {'disp': ' ', 'name': 'IdLocal', 'type': 'integer'}, {'disp': ' ', 'name': 'DataValidade', 'type': 'date'}, {'disp': ' ', 'name': 'DataReg', 'type': 'datetime'}], 'name': 'Estoque', 'type': 'table'}, {'fields': [{'disp': 'PK', 'name': 'Id', 'type': 'id'}, {'disp': ' ', 'name': 'Predio', 'type': 'text'}, {'disp': ' ', 'name': 'CodEnergia', 'type': 'integer'}, {'disp': ' ', 'name': 'CodAgua', 'type': 'integer'}, {'disp': 'FK', 'name': 'CodDepto', 'type': 'reference Dpto'}], 'name': 'Predios', 'type': 'table'}, {'fields': [{'disp': ' ', 'name': 'Departamento', 'type': 'text'}, {'disp': ' ', 'name': 'Idm', 'type': 'integer'}, {'disp': 'FK', 'name': 'Orgao', 'type': 'reference Dpto'}, {'disp': ' ', 'name': 'Telefone', 'type': 'text'}], 'name': 'Dpto', 'type': 'table'}, {'fields': [{'disp': 'PK', 'name': 'Id', 'type': 'id'}, {'disp': ' ', 'name': 'CodCPFL', 'type': 'integer'}, {'disp': ' ', 'name': 'Mes', 'type': 'date'}, {'disp': ' ', 'name': 'Valor', 'type': 'decimal(10,2)'}, {'disp': ' ', 'name': 'Kwh', 'type': 'integer'}], 'name': 'ContasEnergia', 'type': 'table'}, {'fields': [{'disp': 'PK', 'name': 'Id', 'type': 'id'}, {'disp': ' ', 'name': 'CodSemae', 'type': 'integer'}, {'disp': ' ', 'name': 'Data', 'type': 'date'}, {'disp': ' ', 'name': 'NDias', 'type': 'integer'}, {'disp': ' ', 'name': 'Consumo', 'type': 'integer'}, {'disp': ' ', 'name': 'Valor', 'type': 'decimal(7,2)'}], 'name': 'ContasAgua', 'type': 'table'}, {'fields': [{'disp': 'PK', 'name': 'Id', 'type': 'id'}, {'disp': ' ', 'name': 'IdPredio', 'type': 'integer'}, {'disp': ' ', 'name': 'Data', 'type': 'date'}, {'disp': ' ', 'name': 'Tipo', 'type': 'list:text'}, {'disp': ' ', 'name': 'Qtd', 'type': 'decimal(7,2)'}], 'name': 'A3pLixos', 'type': 'table'}, {'fields': [{'disp': 'PK', 'name': 'Id', 'type': 'id'}, {'disp': ' ', 'name': 'Idm', 'type': 'integer'}, {'disp': '115', 'name': 'Nome', 'type': 'string'}, {'disp': 512, 'name': 'CPF', 'type': 'string'}, {'disp': '22', 'name': 'CNPJ', 'type': 'string'}, {'disp': ' ', 'name': 'IdEndereco', 'type': 'list'}, {'disp': '22', 'name': 'Telefone', 'type': 'string'}, {'disp': '22', 'name': 'celular', 'type': 'string'}, {'disp': '75', 'name': 'Email', 'type': 'string'}, {'disp': ' ', 'name': 'Categoria', 'type': 'text'}], 'name': 'Pessoas', 'type': 'table'}]"
p125
sS'json_parser.dumps'
p126
S'<function dumps>'
p127
sS'sort_keys'
p128
S'False'
p129
ssg72
I123
sg73
(dp130
I118
S"def xml(value, encoding='UTF-8', key='document', quote=True):"
p131
sI119
S'    return (\'<?xml version="1.0" encoding="%s"?>\' % encoding) + str(xml_rec(value, key, quote))'
p132
sI120
S''
sI121
S''
sI122
S'def json(value, default=custom_json, indent=None, sort_keys=False):'
p133
sI123
S'    value = json_parser.dumps(value, default=default, sort_keys=sort_keys, indent=indent)'
p134
sI124
S'    # replace JavaScript incompatible spacing'
p135
sI125
S'    # http://timelessrepo.com/json-isnt-a-javascript-subset'
p136
sI126
S'    # PY3 FIXME'
p137
sI127
S"    # return value.replace(ur'\\u2028', '\\\\u2028').replace(ur'\\2029', '\\\\u2029')"
p138
ssg85
S"(value=[{'fields': [{'disp': 512, 'name': 'Cidade', 'type': 'string'}, {'disp': ' ', 'name': 'CEP', 'type': 'integer'}, {'disp': 'PK', 'name': 'Id', 'type': 'id'}], 'name': 'Cidades', 'type': 'table'}, {'fields': [{'disp': 'PK', 'name': 'Id', 'type': 'id'}, {'disp': 512, 'name': 'Bairro', 'type': 'string'}, {'disp': <gluon.validators.IS_IN_SET object>, 'name': 'Cor', 'type': 'string'}, {'disp': 'FK', 'name': 'IdCidade', 'type': 'reference Cidades'}, {'disp': ' ', 'name': 'Regiao', 'type': 'integer'}], 'name': 'Bairros', 'type': 'table'}, {'fields': [{'disp': 512, 'name': 'Logradouro', 'type': 'string'}, {'disp': ' ', 'name': 'Cep', 'type': 'integer'}, {'disp': 'PK', 'name': 'Id', 'type': 'id'}, {'disp': ' ', 'name': 'Denominacao', 'type': 'list:string'}, {'disp': ' ', 'name': 'Prefixo', 'type': 'list:string'}, {'disp': ' ', 'name': 'No', 'type': 'integer'}, {'disp': ' ', 'name': 'NoInicial', 'type': 'integer'}, {'disp': ' ', 'name': 'NoFinal', 'type': 'integer'}, {'disp': ' ', 'name': 'Lado', 'type': 'boolean'}, {'disp': 512, 'name': 'Complemento', 'type': 'string'}, {'disp': 'FK', 'name': 'IdBairro', 'type': 'reference Bairros'}, {'disp': 'FK', 'name': 'IdCidade', 'type': 'reference Cidades'}], 'name': 'Logradouros', 'type': 'table'}, {'fields': [{'disp': 'PK', 'name': 'Id', 'type': 'id'}, {'disp': 'FK', 'name': 'IdLogradouro', 'type': 'reference Logradouros'}, {'disp': ' ', 'name': 'Num', 'type': 'integer'}, {'disp': '8', 'name': 'Quadra', 'type': 'string'}, {'disp': '8', 'name': 'Lote', 'type': 'string'}, {'disp': <gluon.validators.IS_IN_SET object>, 'name': 'Tipo', 'type': 'string'}, {'disp': '18', 'name': 'Complemento', 'type': 'string'}, {'disp': <gluon.validators.IS_IN_SET object>, 'name': 'TipoB', 'type': 'string'}, {'disp': '18', 'name': 'ComplementoB', 'type': 'string'}], 'name': 'Enderecos', 'type': 'table'}, {'fields': [{'disp': 'PK', 'name': 'Id', 'type': 'id'}, {'disp': ' ', 'name': 'IdEstoque', 'type': 'list'}, {'disp': ' ', 'name': 'Qtd', 'type': 'decimal(10,2)'}, {'disp': ' ', 'name': 'DataReg', 'type': 'datetime'}, {'disp': ' ', 'name': 'IdPessoa', 'type': 'integer'}, {'disp': ' ', 'name': 'Uso', 'type': 'text'}, {'disp': ' ', 'name': 'QtdDevolvido', 'type': 'decimal(8,2)'}], 'name': 'ControleRetirada', 'type': 'table'}, {'fields': [{'disp': 'PK', 'name': 'Id', 'type': 'id'}, {'disp': ' ', 'name': 'Protocolo', 'type': 'integer'}, {'disp': ' ', 'name': 'IdMaterial', 'type': 'integer'}, {'disp': ' ', 'name': 'Qtd', 'type': 'integer'}, {'disp': ' ', 'name': 'DataReg', 'type': 'datetime'}], 'name': 'ListasCompra', 'type': 'table'}, {'fields': [{'disp': 'PK', 'name': 'id', 'type': 'id'}, {'disp': 255, 'name': 'title', 'type': 'string'}, {'disp': 255, 'name': 'filename', 'type': 'string'}, {'disp': ' ', 'name': 'flength', 'type': 'integer'}, {'disp': 128, 'name': 'mime_type', 'type': 'string'}, {'disp': ' ', 'name': 'upload', 'type': 'upload'}], 'name': 'plugin_ckeditor_upload', 'type': 'table'}, {'fields': [{'disp': 'PK', 'name': 'id', 'type': 'id'}, {'disp': '20', 'name': 'Tag', 'type': 'string'}], 'name': 'Tags', 'type': 'table'}, {'fields': [{'disp': 'PK', 'name': 'id', 'type': 'id'}, {'disp': 512, 'name': 'Titulo', 'type': 'string'}, {'disp': ' ', 'name': 'body', 'type': 'text'}, {'disp': 'FK', 'name': 'Tags', 'type': 'list:reference Tags'}], 'name': 'A3pDica', 'type': 'table'}, {'fields': [{'disp': 'PK', 'name': 'Id', 'type': 'id'}, {'disp': ' ', 'name': 'IdDof', 'type': 'text'}, {'disp': ' ', 'name': 'Item', 'type': 'decimal(2,0)'}, {'disp': ' ', 'name': 'Produto', 'type': 'text'}, {'disp': ' ', 'name': 'Especie', 'type': 'text'}, {'disp': ' ', 'name': 'Popular', 'type': 'text'}, {'disp': ' ', 'name': 'Qtd', 'type': 'decimal(7,4)'}, {'disp': ' ', 'name': 'Unidade', 'type': 'text'}, {'disp': ' ', 'name': 'Valor', 'type': 'text'}], 'name': 'MadeirasDof', 'type': 'table'}, {'fields': [{'disp': 'PK', 'name': 'Id', 'type': 'id'}, {'disp': ' ', 'name': 'IdCat', 'type': 'integer'}, {'disp': ' ', 'name': 'IdSub', 'type': 'integer'}, {'disp': ' ', 'name': 'Cod', 'type': 'integer'}, {'disp': ' ', 'name': 'Material', 'type': 'text'}, {'disp': ' ', 'name': 'Unidade', 'type': 'text'}], 'name': 'Materiais', 'type': 'table'}, {'fields': [{'disp': 'PK', 'name': 'Id', 'type': 'id'}, {'disp': 'FK', 'name': 'IdMaterial', 'type': 'reference Materiais'}, {'disp': ' ', 'name': 'Qtd', 'type': 'decimal(10,2)'}, {'disp': ' ', 'name': 'IdLocal', 'type': 'integer'}, {'disp': ' ', 'name': 'DataValidade', 'type': 'date'}, {'disp': ' ', 'name': 'DataReg', 'type': 'datetime'}], 'name': 'Estoque', 'type': 'table'}, {'fields': [{'disp': 'PK', 'name': 'Id', 'type': 'id'}, {'disp': ' ', 'name': 'Predio', 'type': 'text'}, {'disp': ' ', 'name': 'CodEnergia', 'type': 'integer'}, {'disp': ' ', 'name': 'CodAgua', 'type': 'integer'}, {'disp': 'FK', 'name': 'CodDepto', 'type': 'reference Dpto'}], 'name': 'Predios', 'type': 'table'}, {'fields': [{'disp': ' ', 'name': 'Departamento', 'type': 'text'}, {'disp': ' ', 'name': 'Idm', 'type': 'integer'}, {'disp': 'FK', 'name': 'Orgao', 'type': 'reference Dpto'}, {'disp': ' ', 'name': 'Telefone', 'type': 'text'}], 'name': 'Dpto', 'type': 'table'}, {'fields': [{'disp': 'PK', 'name': 'Id', 'type': 'id'}, {'disp': ' ', 'name': 'CodCPFL', 'type': 'integer'}, {'disp': ' ', 'name': 'Mes', 'type': 'date'}, {'disp': ' ', 'name': 'Valor', 'type': 'decimal(10,2)'}, {'disp': ' ', 'name': 'Kwh', 'type': 'integer'}], 'name': 'ContasEnergia', 'type': 'table'}, {'fields': [{'disp': 'PK', 'name': 'Id', 'type': 'id'}, {'disp': ' ', 'name': 'CodSemae', 'type': 'integer'}, {'disp': ' ', 'name': 'Data', 'type': 'date'}, {'disp': ' ', 'name': 'NDias', 'type': 'integer'}, {'disp': ' ', 'name': 'Consumo', 'type': 'integer'}, {'disp': ' ', 'name': 'Valor', 'type': 'decimal(7,2)'}], 'name': 'ContasAgua', 'type': 'table'}, {'fields': [{'disp': 'PK', 'name': 'Id', 'type': 'id'}, {'disp': ' ', 'name': 'IdPredio', 'type': 'integer'}, {'disp': ' ', 'name': 'Data', 'type': 'date'}, {'disp': ' ', 'name': 'Tipo', 'type': 'list:text'}, {'disp': ' ', 'name': 'Qtd', 'type': 'decimal(7,2)'}], 'name': 'A3pLixos', 'type': 'table'}, {'fields': [{'disp': 'PK', 'name': 'Id', 'type': 'id'}, {'disp': ' ', 'name': 'Idm', 'type': 'integer'}, {'disp': '115', 'name': 'Nome', 'type': 'string'}, {'disp': 512, 'name': 'CPF', 'type': 'string'}, {'disp': '22', 'name': 'CNPJ', 'type': 'string'}, {'disp': ' ', 'name': 'IdEndereco', 'type': 'list'}, {'disp': '22', 'name': 'Telefone', 'type': 'string'}, {'disp': '22', 'name': 'celular', 'type': 'string'}, {'disp': '75', 'name': 'Email', 'type': 'string'}, {'disp': ' ', 'name': 'Categoria', 'type': 'text'}], 'name': 'Pessoas', 'type': 'table'}], default=<function custom_json>, indent=None, sort_keys=False)"
p139
sg87
S'json'
p140
sa(dp141
g64
S'/usr/lib/python2.7/json/__init__.py'
p142
sg66
(dp143
S'obj'
p144
S"[{'fields': [{'disp': 512, 'name': 'Cidade', 'type': 'string'}, {'disp': ' ', 'name': 'CEP', 'type': 'integer'}, {'disp': 'PK', 'name': 'Id', 'type': 'id'}], 'name': 'Cidades', 'type': 'table'}, {'fields': [{'disp': 'PK', 'name': 'Id', 'type': 'id'}, {'disp': 512, 'name': 'Bairro', 'type': 'string'}, {'disp': <gluon.validators.IS_IN_SET object>, 'name': 'Cor', 'type': 'string'}, {'disp': 'FK', 'name': 'IdCidade', 'type': 'reference Cidades'}, {'disp': ' ', 'name': 'Regiao', 'type': 'integer'}], 'name': 'Bairros', 'type': 'table'}, {'fields': [{'disp': 512, 'name': 'Logradouro', 'type': 'string'}, {'disp': ' ', 'name': 'Cep', 'type': 'integer'}, {'disp': 'PK', 'name': 'Id', 'type': 'id'}, {'disp': ' ', 'name': 'Denominacao', 'type': 'list:string'}, {'disp': ' ', 'name': 'Prefixo', 'type': 'list:string'}, {'disp': ' ', 'name': 'No', 'type': 'integer'}, {'disp': ' ', 'name': 'NoInicial', 'type': 'integer'}, {'disp': ' ', 'name': 'NoFinal', 'type': 'integer'}, {'disp': ' ', 'name': 'Lado', 'type': 'boolean'}, {'disp': 512, 'name': 'Complemento', 'type': 'string'}, {'disp': 'FK', 'name': 'IdBairro', 'type': 'reference Bairros'}, {'disp': 'FK', 'name': 'IdCidade', 'type': 'reference Cidades'}], 'name': 'Logradouros', 'type': 'table'}, {'fields': [{'disp': 'PK', 'name': 'Id', 'type': 'id'}, {'disp': 'FK', 'name': 'IdLogradouro', 'type': 'reference Logradouros'}, {'disp': ' ', 'name': 'Num', 'type': 'integer'}, {'disp': '8', 'name': 'Quadra', 'type': 'string'}, {'disp': '8', 'name': 'Lote', 'type': 'string'}, {'disp': <gluon.validators.IS_IN_SET object>, 'name': 'Tipo', 'type': 'string'}, {'disp': '18', 'name': 'Complemento', 'type': 'string'}, {'disp': <gluon.validators.IS_IN_SET object>, 'name': 'TipoB', 'type': 'string'}, {'disp': '18', 'name': 'ComplementoB', 'type': 'string'}], 'name': 'Enderecos', 'type': 'table'}, {'fields': [{'disp': 'PK', 'name': 'Id', 'type': 'id'}, {'disp': ' ', 'name': 'IdEstoque', 'type': 'list'}, {'disp': ' ', 'name': 'Qtd', 'type': 'decimal(10,2)'}, {'disp': ' ', 'name': 'DataReg', 'type': 'datetime'}, {'disp': ' ', 'name': 'IdPessoa', 'type': 'integer'}, {'disp': ' ', 'name': 'Uso', 'type': 'text'}, {'disp': ' ', 'name': 'QtdDevolvido', 'type': 'decimal(8,2)'}], 'name': 'ControleRetirada', 'type': 'table'}, {'fields': [{'disp': 'PK', 'name': 'Id', 'type': 'id'}, {'disp': ' ', 'name': 'Protocolo', 'type': 'integer'}, {'disp': ' ', 'name': 'IdMaterial', 'type': 'integer'}, {'disp': ' ', 'name': 'Qtd', 'type': 'integer'}, {'disp': ' ', 'name': 'DataReg', 'type': 'datetime'}], 'name': 'ListasCompra', 'type': 'table'}, {'fields': [{'disp': 'PK', 'name': 'id', 'type': 'id'}, {'disp': 255, 'name': 'title', 'type': 'string'}, {'disp': 255, 'name': 'filename', 'type': 'string'}, {'disp': ' ', 'name': 'flength', 'type': 'integer'}, {'disp': 128, 'name': 'mime_type', 'type': 'string'}, {'disp': ' ', 'name': 'upload', 'type': 'upload'}], 'name': 'plugin_ckeditor_upload', 'type': 'table'}, {'fields': [{'disp': 'PK', 'name': 'id', 'type': 'id'}, {'disp': '20', 'name': 'Tag', 'type': 'string'}], 'name': 'Tags', 'type': 'table'}, {'fields': [{'disp': 'PK', 'name': 'id', 'type': 'id'}, {'disp': 512, 'name': 'Titulo', 'type': 'string'}, {'disp': ' ', 'name': 'body', 'type': 'text'}, {'disp': 'FK', 'name': 'Tags', 'type': 'list:reference Tags'}], 'name': 'A3pDica', 'type': 'table'}, {'fields': [{'disp': 'PK', 'name': 'Id', 'type': 'id'}, {'disp': ' ', 'name': 'IdDof', 'type': 'text'}, {'disp': ' ', 'name': 'Item', 'type': 'decimal(2,0)'}, {'disp': ' ', 'name': 'Produto', 'type': 'text'}, {'disp': ' ', 'name': 'Especie', 'type': 'text'}, {'disp': ' ', 'name': 'Popular', 'type': 'text'}, {'disp': ' ', 'name': 'Qtd', 'type': 'decimal(7,4)'}, {'disp': ' ', 'name': 'Unidade', 'type': 'text'}, {'disp': ' ', 'name': 'Valor', 'type': 'text'}], 'name': 'MadeirasDof', 'type': 'table'}, {'fields': [{'disp': 'PK', 'name': 'Id', 'type': 'id'}, {'disp': ' ', 'name': 'IdCat', 'type': 'integer'}, {'disp': ' ', 'name': 'IdSub', 'type': 'integer'}, {'disp': ' ', 'name': 'Cod', 'type': 'integer'}, {'disp': ' ', 'name': 'Material', 'type': 'text'}, {'disp': ' ', 'name': 'Unidade', 'type': 'text'}], 'name': 'Materiais', 'type': 'table'}, {'fields': [{'disp': 'PK', 'name': 'Id', 'type': 'id'}, {'disp': 'FK', 'name': 'IdMaterial', 'type': 'reference Materiais'}, {'disp': ' ', 'name': 'Qtd', 'type': 'decimal(10,2)'}, {'disp': ' ', 'name': 'IdLocal', 'type': 'integer'}, {'disp': ' ', 'name': 'DataValidade', 'type': 'date'}, {'disp': ' ', 'name': 'DataReg', 'type': 'datetime'}], 'name': 'Estoque', 'type': 'table'}, {'fields': [{'disp': 'PK', 'name': 'Id', 'type': 'id'}, {'disp': ' ', 'name': 'Predio', 'type': 'text'}, {'disp': ' ', 'name': 'CodEnergia', 'type': 'integer'}, {'disp': ' ', 'name': 'CodAgua', 'type': 'integer'}, {'disp': 'FK', 'name': 'CodDepto', 'type': 'reference Dpto'}], 'name': 'Predios', 'type': 'table'}, {'fields': [{'disp': ' ', 'name': 'Departamento', 'type': 'text'}, {'disp': ' ', 'name': 'Idm', 'type': 'integer'}, {'disp': 'FK', 'name': 'Orgao', 'type': 'reference Dpto'}, {'disp': ' ', 'name': 'Telefone', 'type': 'text'}], 'name': 'Dpto', 'type': 'table'}, {'fields': [{'disp': 'PK', 'name': 'Id', 'type': 'id'}, {'disp': ' ', 'name': 'CodCPFL', 'type': 'integer'}, {'disp': ' ', 'name': 'Mes', 'type': 'date'}, {'disp': ' ', 'name': 'Valor', 'type': 'decimal(10,2)'}, {'disp': ' ', 'name': 'Kwh', 'type': 'integer'}], 'name': 'ContasEnergia', 'type': 'table'}, {'fields': [{'disp': 'PK', 'name': 'Id', 'type': 'id'}, {'disp': ' ', 'name': 'CodSemae', 'type': 'integer'}, {'disp': ' ', 'name': 'Data', 'type': 'date'}, {'disp': ' ', 'name': 'NDias', 'type': 'integer'}, {'disp': ' ', 'name': 'Consumo', 'type': 'integer'}, {'disp': ' ', 'name': 'Valor', 'type': 'decimal(7,2)'}], 'name': 'ContasAgua', 'type': 'table'}, {'fields': [{'disp': 'PK', 'name': 'Id', 'type': 'id'}, {'disp': ' ', 'name': 'IdPredio', 'type': 'integer'}, {'disp': ' ', 'name': 'Data', 'type': 'date'}, {'disp': ' ', 'name': 'Tipo', 'type': 'list:text'}, {'disp': ' ', 'name': 'Qtd', 'type': 'decimal(7,2)'}], 'name': 'A3pLixos', 'type': 'table'}, {'fields': [{'disp': 'PK', 'name': 'Id', 'type': 'id'}, {'disp': ' ', 'name': 'Idm', 'type': 'integer'}, {'disp': '115', 'name': 'Nome', 'type': 'string'}, {'disp': 512, 'name': 'CPF', 'type': 'string'}, {'disp': '22', 'name': 'CNPJ', 'type': 'string'}, {'disp': ' ', 'name': 'IdEndereco', 'type': 'list'}, {'disp': '22', 'name': 'Telefone', 'type': 'string'}, {'disp': '22', 'name': 'celular', 'type': 'string'}, {'disp': '75', 'name': 'Email', 'type': 'string'}, {'disp': ' ', 'name': 'Categoria', 'type': 'text'}], 'name': 'Pessoas', 'type': 'table'}]"
p145
sS'sort_keys'
p146
g129
sS'kw'
p147
g19
sS').encode'
p148
S'undefined'
p149
ssg72
I251
sg73
(dp150
I246
S'        cls = JSONEncoder'
p151
sI247
S'    return cls('
p152
sI248
S'        skipkeys=skipkeys, ensure_ascii=ensure_ascii,'
p153
sI249
S'        check_circular=check_circular, allow_nan=allow_nan, indent=indent,'
p154
sI250
S'        separators=separators, encoding=encoding, default=default,'
p155
sI251
S'        sort_keys=sort_keys, **kw).encode(obj)'
p156
sI252
S''
sI253
S''
sI254
S'_default_decoder = JSONDecoder(encoding=None, object_hook=None,'
p157
sI255
S'                               object_pairs_hook=None)'
p158
ssg85
S"(obj=[{'fields': [{'disp': 512, 'name': 'Cidade', 'type': 'string'}, {'disp': ' ', 'name': 'CEP', 'type': 'integer'}, {'disp': 'PK', 'name': 'Id', 'type': 'id'}], 'name': 'Cidades', 'type': 'table'}, {'fields': [{'disp': 'PK', 'name': 'Id', 'type': 'id'}, {'disp': 512, 'name': 'Bairro', 'type': 'string'}, {'disp': <gluon.validators.IS_IN_SET object>, 'name': 'Cor', 'type': 'string'}, {'disp': 'FK', 'name': 'IdCidade', 'type': 'reference Cidades'}, {'disp': ' ', 'name': 'Regiao', 'type': 'integer'}], 'name': 'Bairros', 'type': 'table'}, {'fields': [{'disp': 512, 'name': 'Logradouro', 'type': 'string'}, {'disp': ' ', 'name': 'Cep', 'type': 'integer'}, {'disp': 'PK', 'name': 'Id', 'type': 'id'}, {'disp': ' ', 'name': 'Denominacao', 'type': 'list:string'}, {'disp': ' ', 'name': 'Prefixo', 'type': 'list:string'}, {'disp': ' ', 'name': 'No', 'type': 'integer'}, {'disp': ' ', 'name': 'NoInicial', 'type': 'integer'}, {'disp': ' ', 'name': 'NoFinal', 'type': 'integer'}, {'disp': ' ', 'name': 'Lado', 'type': 'boolean'}, {'disp': 512, 'name': 'Complemento', 'type': 'string'}, {'disp': 'FK', 'name': 'IdBairro', 'type': 'reference Bairros'}, {'disp': 'FK', 'name': 'IdCidade', 'type': 'reference Cidades'}], 'name': 'Logradouros', 'type': 'table'}, {'fields': [{'disp': 'PK', 'name': 'Id', 'type': 'id'}, {'disp': 'FK', 'name': 'IdLogradouro', 'type': 'reference Logradouros'}, {'disp': ' ', 'name': 'Num', 'type': 'integer'}, {'disp': '8', 'name': 'Quadra', 'type': 'string'}, {'disp': '8', 'name': 'Lote', 'type': 'string'}, {'disp': <gluon.validators.IS_IN_SET object>, 'name': 'Tipo', 'type': 'string'}, {'disp': '18', 'name': 'Complemento', 'type': 'string'}, {'disp': <gluon.validators.IS_IN_SET object>, 'name': 'TipoB', 'type': 'string'}, {'disp': '18', 'name': 'ComplementoB', 'type': 'string'}], 'name': 'Enderecos', 'type': 'table'}, {'fields': [{'disp': 'PK', 'name': 'Id', 'type': 'id'}, {'disp': ' ', 'name': 'IdEstoque', 'type': 'list'}, {'disp': ' ', 'name': 'Qtd', 'type': 'decimal(10,2)'}, {'disp': ' ', 'name': 'DataReg', 'type': 'datetime'}, {'disp': ' ', 'name': 'IdPessoa', 'type': 'integer'}, {'disp': ' ', 'name': 'Uso', 'type': 'text'}, {'disp': ' ', 'name': 'QtdDevolvido', 'type': 'decimal(8,2)'}], 'name': 'ControleRetirada', 'type': 'table'}, {'fields': [{'disp': 'PK', 'name': 'Id', 'type': 'id'}, {'disp': ' ', 'name': 'Protocolo', 'type': 'integer'}, {'disp': ' ', 'name': 'IdMaterial', 'type': 'integer'}, {'disp': ' ', 'name': 'Qtd', 'type': 'integer'}, {'disp': ' ', 'name': 'DataReg', 'type': 'datetime'}], 'name': 'ListasCompra', 'type': 'table'}, {'fields': [{'disp': 'PK', 'name': 'id', 'type': 'id'}, {'disp': 255, 'name': 'title', 'type': 'string'}, {'disp': 255, 'name': 'filename', 'type': 'string'}, {'disp': ' ', 'name': 'flength', 'type': 'integer'}, {'disp': 128, 'name': 'mime_type', 'type': 'string'}, {'disp': ' ', 'name': 'upload', 'type': 'upload'}], 'name': 'plugin_ckeditor_upload', 'type': 'table'}, {'fields': [{'disp': 'PK', 'name': 'id', 'type': 'id'}, {'disp': '20', 'name': 'Tag', 'type': 'string'}], 'name': 'Tags', 'type': 'table'}, {'fields': [{'disp': 'PK', 'name': 'id', 'type': 'id'}, {'disp': 512, 'name': 'Titulo', 'type': 'string'}, {'disp': ' ', 'name': 'body', 'type': 'text'}, {'disp': 'FK', 'name': 'Tags', 'type': 'list:reference Tags'}], 'name': 'A3pDica', 'type': 'table'}, {'fields': [{'disp': 'PK', 'name': 'Id', 'type': 'id'}, {'disp': ' ', 'name': 'IdDof', 'type': 'text'}, {'disp': ' ', 'name': 'Item', 'type': 'decimal(2,0)'}, {'disp': ' ', 'name': 'Produto', 'type': 'text'}, {'disp': ' ', 'name': 'Especie', 'type': 'text'}, {'disp': ' ', 'name': 'Popular', 'type': 'text'}, {'disp': ' ', 'name': 'Qtd', 'type': 'decimal(7,4)'}, {'disp': ' ', 'name': 'Unidade', 'type': 'text'}, {'disp': ' ', 'name': 'Valor', 'type': 'text'}], 'name': 'MadeirasDof', 'type': 'table'}, {'fields': [{'disp': 'PK', 'name': 'Id', 'type': 'id'}, {'disp': ' ', 'name': 'IdCat', 'type': 'integer'}, {'disp': ' ', 'name': 'IdSub', 'type': 'integer'}, {'disp': ' ', 'name': 'Cod', 'type': 'integer'}, {'disp': ' ', 'name': 'Material', 'type': 'text'}, {'disp': ' ', 'name': 'Unidade', 'type': 'text'}], 'name': 'Materiais', 'type': 'table'}, {'fields': [{'disp': 'PK', 'name': 'Id', 'type': 'id'}, {'disp': 'FK', 'name': 'IdMaterial', 'type': 'reference Materiais'}, {'disp': ' ', 'name': 'Qtd', 'type': 'decimal(10,2)'}, {'disp': ' ', 'name': 'IdLocal', 'type': 'integer'}, {'disp': ' ', 'name': 'DataValidade', 'type': 'date'}, {'disp': ' ', 'name': 'DataReg', 'type': 'datetime'}], 'name': 'Estoque', 'type': 'table'}, {'fields': [{'disp': 'PK', 'name': 'Id', 'type': 'id'}, {'disp': ' ', 'name': 'Predio', 'type': 'text'}, {'disp': ' ', 'name': 'CodEnergia', 'type': 'integer'}, {'disp': ' ', 'name': 'CodAgua', 'type': 'integer'}, {'disp': 'FK', 'name': 'CodDepto', 'type': 'reference Dpto'}], 'name': 'Predios', 'type': 'table'}, {'fields': [{'disp': ' ', 'name': 'Departamento', 'type': 'text'}, {'disp': ' ', 'name': 'Idm', 'type': 'integer'}, {'disp': 'FK', 'name': 'Orgao', 'type': 'reference Dpto'}, {'disp': ' ', 'name': 'Telefone', 'type': 'text'}], 'name': 'Dpto', 'type': 'table'}, {'fields': [{'disp': 'PK', 'name': 'Id', 'type': 'id'}, {'disp': ' ', 'name': 'CodCPFL', 'type': 'integer'}, {'disp': ' ', 'name': 'Mes', 'type': 'date'}, {'disp': ' ', 'name': 'Valor', 'type': 'decimal(10,2)'}, {'disp': ' ', 'name': 'Kwh', 'type': 'integer'}], 'name': 'ContasEnergia', 'type': 'table'}, {'fields': [{'disp': 'PK', 'name': 'Id', 'type': 'id'}, {'disp': ' ', 'name': 'CodSemae', 'type': 'integer'}, {'disp': ' ', 'name': 'Data', 'type': 'date'}, {'disp': ' ', 'name': 'NDias', 'type': 'integer'}, {'disp': ' ', 'name': 'Consumo', 'type': 'integer'}, {'disp': ' ', 'name': 'Valor', 'type': 'decimal(7,2)'}], 'name': 'ContasAgua', 'type': 'table'}, {'fields': [{'disp': 'PK', 'name': 'Id', 'type': 'id'}, {'disp': ' ', 'name': 'IdPredio', 'type': 'integer'}, {'disp': ' ', 'name': 'Data', 'type': 'date'}, {'disp': ' ', 'name': 'Tipo', 'type': 'list:text'}, {'disp': ' ', 'name': 'Qtd', 'type': 'decimal(7,2)'}], 'name': 'A3pLixos', 'type': 'table'}, {'fields': [{'disp': 'PK', 'name': 'Id', 'type': 'id'}, {'disp': ' ', 'name': 'Idm', 'type': 'integer'}, {'disp': '115', 'name': 'Nome', 'type': 'string'}, {'disp': 512, 'name': 'CPF', 'type': 'string'}, {'disp': '22', 'name': 'CNPJ', 'type': 'string'}, {'disp': ' ', 'name': 'IdEndereco', 'type': 'list'}, {'disp': '22', 'name': 'Telefone', 'type': 'string'}, {'disp': '22', 'name': 'celular', 'type': 'string'}, {'disp': '75', 'name': 'Email', 'type': 'string'}, {'disp': ' ', 'name': 'Categoria', 'type': 'text'}], 'name': 'Pessoas', 'type': 'table'}], skipkeys=False, ensure_ascii=True, check_circular=True, allow_nan=True, cls=<class 'json.encoder.JSONEncoder'>, indent=None, separators=None, encoding='utf-8', default=<function custom_json>, sort_keys=False, **kw={})"
p159
sg87
S'dumps'
p160
sa(dp161
g64
S'/usr/lib/python2.7/json/encoder.py'
p162
sg66
(dp163
S'self'
p164
S'<json.encoder.JSONEncoder object>'
p165
sS'o'
S"[{'fields': [{'disp': 512, 'name': 'Cidade', 'type': 'string'}, {'disp': ' ', 'name': 'CEP', 'type': 'integer'}, {'disp': 'PK', 'name': 'Id', 'type': 'id'}], 'name': 'Cidades', 'type': 'table'}, {'fields': [{'disp': 'PK', 'name': 'Id', 'type': 'id'}, {'disp': 512, 'name': 'Bairro', 'type': 'string'}, {'disp': <gluon.validators.IS_IN_SET object>, 'name': 'Cor', 'type': 'string'}, {'disp': 'FK', 'name': 'IdCidade', 'type': 'reference Cidades'}, {'disp': ' ', 'name': 'Regiao', 'type': 'integer'}], 'name': 'Bairros', 'type': 'table'}, {'fields': [{'disp': 512, 'name': 'Logradouro', 'type': 'string'}, {'disp': ' ', 'name': 'Cep', 'type': 'integer'}, {'disp': 'PK', 'name': 'Id', 'type': 'id'}, {'disp': ' ', 'name': 'Denominacao', 'type': 'list:string'}, {'disp': ' ', 'name': 'Prefixo', 'type': 'list:string'}, {'disp': ' ', 'name': 'No', 'type': 'integer'}, {'disp': ' ', 'name': 'NoInicial', 'type': 'integer'}, {'disp': ' ', 'name': 'NoFinal', 'type': 'integer'}, {'disp': ' ', 'name': 'Lado', 'type': 'boolean'}, {'disp': 512, 'name': 'Complemento', 'type': 'string'}, {'disp': 'FK', 'name': 'IdBairro', 'type': 'reference Bairros'}, {'disp': 'FK', 'name': 'IdCidade', 'type': 'reference Cidades'}], 'name': 'Logradouros', 'type': 'table'}, {'fields': [{'disp': 'PK', 'name': 'Id', 'type': 'id'}, {'disp': 'FK', 'name': 'IdLogradouro', 'type': 'reference Logradouros'}, {'disp': ' ', 'name': 'Num', 'type': 'integer'}, {'disp': '8', 'name': 'Quadra', 'type': 'string'}, {'disp': '8', 'name': 'Lote', 'type': 'string'}, {'disp': <gluon.validators.IS_IN_SET object>, 'name': 'Tipo', 'type': 'string'}, {'disp': '18', 'name': 'Complemento', 'type': 'string'}, {'disp': <gluon.validators.IS_IN_SET object>, 'name': 'TipoB', 'type': 'string'}, {'disp': '18', 'name': 'ComplementoB', 'type': 'string'}], 'name': 'Enderecos', 'type': 'table'}, {'fields': [{'disp': 'PK', 'name': 'Id', 'type': 'id'}, {'disp': ' ', 'name': 'IdEstoque', 'type': 'list'}, {'disp': ' ', 'name': 'Qtd', 'type': 'decimal(10,2)'}, {'disp': ' ', 'name': 'DataReg', 'type': 'datetime'}, {'disp': ' ', 'name': 'IdPessoa', 'type': 'integer'}, {'disp': ' ', 'name': 'Uso', 'type': 'text'}, {'disp': ' ', 'name': 'QtdDevolvido', 'type': 'decimal(8,2)'}], 'name': 'ControleRetirada', 'type': 'table'}, {'fields': [{'disp': 'PK', 'name': 'Id', 'type': 'id'}, {'disp': ' ', 'name': 'Protocolo', 'type': 'integer'}, {'disp': ' ', 'name': 'IdMaterial', 'type': 'integer'}, {'disp': ' ', 'name': 'Qtd', 'type': 'integer'}, {'disp': ' ', 'name': 'DataReg', 'type': 'datetime'}], 'name': 'ListasCompra', 'type': 'table'}, {'fields': [{'disp': 'PK', 'name': 'id', 'type': 'id'}, {'disp': 255, 'name': 'title', 'type': 'string'}, {'disp': 255, 'name': 'filename', 'type': 'string'}, {'disp': ' ', 'name': 'flength', 'type': 'integer'}, {'disp': 128, 'name': 'mime_type', 'type': 'string'}, {'disp': ' ', 'name': 'upload', 'type': 'upload'}], 'name': 'plugin_ckeditor_upload', 'type': 'table'}, {'fields': [{'disp': 'PK', 'name': 'id', 'type': 'id'}, {'disp': '20', 'name': 'Tag', 'type': 'string'}], 'name': 'Tags', 'type': 'table'}, {'fields': [{'disp': 'PK', 'name': 'id', 'type': 'id'}, {'disp': 512, 'name': 'Titulo', 'type': 'string'}, {'disp': ' ', 'name': 'body', 'type': 'text'}, {'disp': 'FK', 'name': 'Tags', 'type': 'list:reference Tags'}], 'name': 'A3pDica', 'type': 'table'}, {'fields': [{'disp': 'PK', 'name': 'Id', 'type': 'id'}, {'disp': ' ', 'name': 'IdDof', 'type': 'text'}, {'disp': ' ', 'name': 'Item', 'type': 'decimal(2,0)'}, {'disp': ' ', 'name': 'Produto', 'type': 'text'}, {'disp': ' ', 'name': 'Especie', 'type': 'text'}, {'disp': ' ', 'name': 'Popular', 'type': 'text'}, {'disp': ' ', 'name': 'Qtd', 'type': 'decimal(7,4)'}, {'disp': ' ', 'name': 'Unidade', 'type': 'text'}, {'disp': ' ', 'name': 'Valor', 'type': 'text'}], 'name': 'MadeirasDof', 'type': 'table'}, {'fields': [{'disp': 'PK', 'name': 'Id', 'type': 'id'}, {'disp': ' ', 'name': 'IdCat', 'type': 'integer'}, {'disp': ' ', 'name': 'IdSub', 'type': 'integer'}, {'disp': ' ', 'name': 'Cod', 'type': 'integer'}, {'disp': ' ', 'name': 'Material', 'type': 'text'}, {'disp': ' ', 'name': 'Unidade', 'type': 'text'}], 'name': 'Materiais', 'type': 'table'}, {'fields': [{'disp': 'PK', 'name': 'Id', 'type': 'id'}, {'disp': 'FK', 'name': 'IdMaterial', 'type': 'reference Materiais'}, {'disp': ' ', 'name': 'Qtd', 'type': 'decimal(10,2)'}, {'disp': ' ', 'name': 'IdLocal', 'type': 'integer'}, {'disp': ' ', 'name': 'DataValidade', 'type': 'date'}, {'disp': ' ', 'name': 'DataReg', 'type': 'datetime'}], 'name': 'Estoque', 'type': 'table'}, {'fields': [{'disp': 'PK', 'name': 'Id', 'type': 'id'}, {'disp': ' ', 'name': 'Predio', 'type': 'text'}, {'disp': ' ', 'name': 'CodEnergia', 'type': 'integer'}, {'disp': ' ', 'name': 'CodAgua', 'type': 'integer'}, {'disp': 'FK', 'name': 'CodDepto', 'type': 'reference Dpto'}], 'name': 'Predios', 'type': 'table'}, {'fields': [{'disp': ' ', 'name': 'Departamento', 'type': 'text'}, {'disp': ' ', 'name': 'Idm', 'type': 'integer'}, {'disp': 'FK', 'name': 'Orgao', 'type': 'reference Dpto'}, {'disp': ' ', 'name': 'Telefone', 'type': 'text'}], 'name': 'Dpto', 'type': 'table'}, {'fields': [{'disp': 'PK', 'name': 'Id', 'type': 'id'}, {'disp': ' ', 'name': 'CodCPFL', 'type': 'integer'}, {'disp': ' ', 'name': 'Mes', 'type': 'date'}, {'disp': ' ', 'name': 'Valor', 'type': 'decimal(10,2)'}, {'disp': ' ', 'name': 'Kwh', 'type': 'integer'}], 'name': 'ContasEnergia', 'type': 'table'}, {'fields': [{'disp': 'PK', 'name': 'Id', 'type': 'id'}, {'disp': ' ', 'name': 'CodSemae', 'type': 'integer'}, {'disp': ' ', 'name': 'Data', 'type': 'date'}, {'disp': ' ', 'name': 'NDias', 'type': 'integer'}, {'disp': ' ', 'name': 'Consumo', 'type': 'integer'}, {'disp': ' ', 'name': 'Valor', 'type': 'decimal(7,2)'}], 'name': 'ContasAgua', 'type': 'table'}, {'fields': [{'disp': 'PK', 'name': 'Id', 'type': 'id'}, {'disp': ' ', 'name': 'IdPredio', 'type': 'integer'}, {'disp': ' ', 'name': 'Data', 'type': 'date'}, {'disp': ' ', 'name': 'Tipo', 'type': 'list:text'}, {'disp': ' ', 'name': 'Qtd', 'type': 'decimal(7,2)'}], 'name': 'A3pLixos', 'type': 'table'}, {'fields': [{'disp': 'PK', 'name': 'Id', 'type': 'id'}, {'disp': ' ', 'name': 'Idm', 'type': 'integer'}, {'disp': '115', 'name': 'Nome', 'type': 'string'}, {'disp': 512, 'name': 'CPF', 'type': 'string'}, {'disp': '22', 'name': 'CNPJ', 'type': 'string'}, {'disp': ' ', 'name': 'IdEndereco', 'type': 'list'}, {'disp': '22', 'name': 'Telefone', 'type': 'string'}, {'disp': '22', 'name': 'celular', 'type': 'string'}, {'disp': '75', 'name': 'Email', 'type': 'string'}, {'disp': ' ', 'name': 'Categoria', 'type': 'text'}], 'name': 'Pessoas', 'type': 'table'}]"
p166
sS'self.iterencode'
p167
S'<bound method JSONEncoder.iterencode of <json.encoder.JSONEncoder object>>'
p168
sS'_one_shot'
p169
g149
sS'chunks'
p170
g149
sS'builtinTrue'
p171
S'True'
p172
ssg72
I207
sg73
(dp173
I202
S'            else:'
p174
sI203
S'                return encode_basestring(o)'
p175
sI204
S"        # This doesn't pass the iterator directly to ''.join() because the"
p176
sI205
S"        # exceptions aren't as detailed.  The list call should be roughly"
p177
sI206
S"        # equivalent to the PySequence_Fast that ''.join() would do."
p178
sI207
S'        chunks = self.iterencode(o, _one_shot=True)'
p179
sI208
S'        if not isinstance(chunks, (list, tuple)):'
p180
sI209
S'            chunks = list(chunks)'
p181
sI210
S"        return ''.join(chunks)"
p182
sI211
S''
ssg85
S"(self=<json.encoder.JSONEncoder object>, o=[{'fields': [{'disp': 512, 'name': 'Cidade', 'type': 'string'}, {'disp': ' ', 'name': 'CEP', 'type': 'integer'}, {'disp': 'PK', 'name': 'Id', 'type': 'id'}], 'name': 'Cidades', 'type': 'table'}, {'fields': [{'disp': 'PK', 'name': 'Id', 'type': 'id'}, {'disp': 512, 'name': 'Bairro', 'type': 'string'}, {'disp': <gluon.validators.IS_IN_SET object>, 'name': 'Cor', 'type': 'string'}, {'disp': 'FK', 'name': 'IdCidade', 'type': 'reference Cidades'}, {'disp': ' ', 'name': 'Regiao', 'type': 'integer'}], 'name': 'Bairros', 'type': 'table'}, {'fields': [{'disp': 512, 'name': 'Logradouro', 'type': 'string'}, {'disp': ' ', 'name': 'Cep', 'type': 'integer'}, {'disp': 'PK', 'name': 'Id', 'type': 'id'}, {'disp': ' ', 'name': 'Denominacao', 'type': 'list:string'}, {'disp': ' ', 'name': 'Prefixo', 'type': 'list:string'}, {'disp': ' ', 'name': 'No', 'type': 'integer'}, {'disp': ' ', 'name': 'NoInicial', 'type': 'integer'}, {'disp': ' ', 'name': 'NoFinal', 'type': 'integer'}, {'disp': ' ', 'name': 'Lado', 'type': 'boolean'}, {'disp': 512, 'name': 'Complemento', 'type': 'string'}, {'disp': 'FK', 'name': 'IdBairro', 'type': 'reference Bairros'}, {'disp': 'FK', 'name': 'IdCidade', 'type': 'reference Cidades'}], 'name': 'Logradouros', 'type': 'table'}, {'fields': [{'disp': 'PK', 'name': 'Id', 'type': 'id'}, {'disp': 'FK', 'name': 'IdLogradouro', 'type': 'reference Logradouros'}, {'disp': ' ', 'name': 'Num', 'type': 'integer'}, {'disp': '8', 'name': 'Quadra', 'type': 'string'}, {'disp': '8', 'name': 'Lote', 'type': 'string'}, {'disp': <gluon.validators.IS_IN_SET object>, 'name': 'Tipo', 'type': 'string'}, {'disp': '18', 'name': 'Complemento', 'type': 'string'}, {'disp': <gluon.validators.IS_IN_SET object>, 'name': 'TipoB', 'type': 'string'}, {'disp': '18', 'name': 'ComplementoB', 'type': 'string'}], 'name': 'Enderecos', 'type': 'table'}, {'fields': [{'disp': 'PK', 'name': 'Id', 'type': 'id'}, {'disp': ' ', 'name': 'IdEstoque', 'type': 'list'}, {'disp': ' ', 'name': 'Qtd', 'type': 'decimal(10,2)'}, {'disp': ' ', 'name': 'DataReg', 'type': 'datetime'}, {'disp': ' ', 'name': 'IdPessoa', 'type': 'integer'}, {'disp': ' ', 'name': 'Uso', 'type': 'text'}, {'disp': ' ', 'name': 'QtdDevolvido', 'type': 'decimal(8,2)'}], 'name': 'ControleRetirada', 'type': 'table'}, {'fields': [{'disp': 'PK', 'name': 'Id', 'type': 'id'}, {'disp': ' ', 'name': 'Protocolo', 'type': 'integer'}, {'disp': ' ', 'name': 'IdMaterial', 'type': 'integer'}, {'disp': ' ', 'name': 'Qtd', 'type': 'integer'}, {'disp': ' ', 'name': 'DataReg', 'type': 'datetime'}], 'name': 'ListasCompra', 'type': 'table'}, {'fields': [{'disp': 'PK', 'name': 'id', 'type': 'id'}, {'disp': 255, 'name': 'title', 'type': 'string'}, {'disp': 255, 'name': 'filename', 'type': 'string'}, {'disp': ' ', 'name': 'flength', 'type': 'integer'}, {'disp': 128, 'name': 'mime_type', 'type': 'string'}, {'disp': ' ', 'name': 'upload', 'type': 'upload'}], 'name': 'plugin_ckeditor_upload', 'type': 'table'}, {'fields': [{'disp': 'PK', 'name': 'id', 'type': 'id'}, {'disp': '20', 'name': 'Tag', 'type': 'string'}], 'name': 'Tags', 'type': 'table'}, {'fields': [{'disp': 'PK', 'name': 'id', 'type': 'id'}, {'disp': 512, 'name': 'Titulo', 'type': 'string'}, {'disp': ' ', 'name': 'body', 'type': 'text'}, {'disp': 'FK', 'name': 'Tags', 'type': 'list:reference Tags'}], 'name': 'A3pDica', 'type': 'table'}, {'fields': [{'disp': 'PK', 'name': 'Id', 'type': 'id'}, {'disp': ' ', 'name': 'IdDof', 'type': 'text'}, {'disp': ' ', 'name': 'Item', 'type': 'decimal(2,0)'}, {'disp': ' ', 'name': 'Produto', 'type': 'text'}, {'disp': ' ', 'name': 'Especie', 'type': 'text'}, {'disp': ' ', 'name': 'Popular', 'type': 'text'}, {'disp': ' ', 'name': 'Qtd', 'type': 'decimal(7,4)'}, {'disp': ' ', 'name': 'Unidade', 'type': 'text'}, {'disp': ' ', 'name': 'Valor', 'type': 'text'}], 'name': 'MadeirasDof', 'type': 'table'}, {'fields': [{'disp': 'PK', 'name': 'Id', 'type': 'id'}, {'disp': ' ', 'name': 'IdCat', 'type': 'integer'}, {'disp': ' ', 'name': 'IdSub', 'type': 'integer'}, {'disp': ' ', 'name': 'Cod', 'type': 'integer'}, {'disp': ' ', 'name': 'Material', 'type': 'text'}, {'disp': ' ', 'name': 'Unidade', 'type': 'text'}], 'name': 'Materiais', 'type': 'table'}, {'fields': [{'disp': 'PK', 'name': 'Id', 'type': 'id'}, {'disp': 'FK', 'name': 'IdMaterial', 'type': 'reference Materiais'}, {'disp': ' ', 'name': 'Qtd', 'type': 'decimal(10,2)'}, {'disp': ' ', 'name': 'IdLocal', 'type': 'integer'}, {'disp': ' ', 'name': 'DataValidade', 'type': 'date'}, {'disp': ' ', 'name': 'DataReg', 'type': 'datetime'}], 'name': 'Estoque', 'type': 'table'}, {'fields': [{'disp': 'PK', 'name': 'Id', 'type': 'id'}, {'disp': ' ', 'name': 'Predio', 'type': 'text'}, {'disp': ' ', 'name': 'CodEnergia', 'type': 'integer'}, {'disp': ' ', 'name': 'CodAgua', 'type': 'integer'}, {'disp': 'FK', 'name': 'CodDepto', 'type': 'reference Dpto'}], 'name': 'Predios', 'type': 'table'}, {'fields': [{'disp': ' ', 'name': 'Departamento', 'type': 'text'}, {'disp': ' ', 'name': 'Idm', 'type': 'integer'}, {'disp': 'FK', 'name': 'Orgao', 'type': 'reference Dpto'}, {'disp': ' ', 'name': 'Telefone', 'type': 'text'}], 'name': 'Dpto', 'type': 'table'}, {'fields': [{'disp': 'PK', 'name': 'Id', 'type': 'id'}, {'disp': ' ', 'name': 'CodCPFL', 'type': 'integer'}, {'disp': ' ', 'name': 'Mes', 'type': 'date'}, {'disp': ' ', 'name': 'Valor', 'type': 'decimal(10,2)'}, {'disp': ' ', 'name': 'Kwh', 'type': 'integer'}], 'name': 'ContasEnergia', 'type': 'table'}, {'fields': [{'disp': 'PK', 'name': 'Id', 'type': 'id'}, {'disp': ' ', 'name': 'CodSemae', 'type': 'integer'}, {'disp': ' ', 'name': 'Data', 'type': 'date'}, {'disp': ' ', 'name': 'NDias', 'type': 'integer'}, {'disp': ' ', 'name': 'Consumo', 'type': 'integer'}, {'disp': ' ', 'name': 'Valor', 'type': 'decimal(7,2)'}], 'name': 'ContasAgua', 'type': 'table'}, {'fields': [{'disp': 'PK', 'name': 'Id', 'type': 'id'}, {'disp': ' ', 'name': 'IdPredio', 'type': 'integer'}, {'disp': ' ', 'name': 'Data', 'type': 'date'}, {'disp': ' ', 'name': 'Tipo', 'type': 'list:text'}, {'disp': ' ', 'name': 'Qtd', 'type': 'decimal(7,2)'}], 'name': 'A3pLixos', 'type': 'table'}, {'fields': [{'disp': 'PK', 'name': 'Id', 'type': 'id'}, {'disp': ' ', 'name': 'Idm', 'type': 'integer'}, {'disp': '115', 'name': 'Nome', 'type': 'string'}, {'disp': 512, 'name': 'CPF', 'type': 'string'}, {'disp': '22', 'name': 'CNPJ', 'type': 'string'}, {'disp': ' ', 'name': 'IdEndereco', 'type': 'list'}, {'disp': '22', 'name': 'Telefone', 'type': 'string'}, {'disp': '22', 'name': 'celular', 'type': 'string'}, {'disp': '75', 'name': 'Email', 'type': 'string'}, {'disp': ' ', 'name': 'Categoria', 'type': 'text'}], 'name': 'Pessoas', 'type': 'table'}])"
p183
sg87
S'encode'
p184
sa(dp185
g64
S'/usr/lib/python2.7/json/encoder.py'
p186
sg66
(dp187
S'_iterencode'
p188
S'<_json.Encoder object>'
p189
sS'o'
S"[{'fields': [{'disp': 512, 'name': 'Cidade', 'type': 'string'}, {'disp': ' ', 'name': 'CEP', 'type': 'integer'}, {'disp': 'PK', 'name': 'Id', 'type': 'id'}], 'name': 'Cidades', 'type': 'table'}, {'fields': [{'disp': 'PK', 'name': 'Id', 'type': 'id'}, {'disp': 512, 'name': 'Bairro', 'type': 'string'}, {'disp': <gluon.validators.IS_IN_SET object>, 'name': 'Cor', 'type': 'string'}, {'disp': 'FK', 'name': 'IdCidade', 'type': 'reference Cidades'}, {'disp': ' ', 'name': 'Regiao', 'type': 'integer'}], 'name': 'Bairros', 'type': 'table'}, {'fields': [{'disp': 512, 'name': 'Logradouro', 'type': 'string'}, {'disp': ' ', 'name': 'Cep', 'type': 'integer'}, {'disp': 'PK', 'name': 'Id', 'type': 'id'}, {'disp': ' ', 'name': 'Denominacao', 'type': 'list:string'}, {'disp': ' ', 'name': 'Prefixo', 'type': 'list:string'}, {'disp': ' ', 'name': 'No', 'type': 'integer'}, {'disp': ' ', 'name': 'NoInicial', 'type': 'integer'}, {'disp': ' ', 'name': 'NoFinal', 'type': 'integer'}, {'disp': ' ', 'name': 'Lado', 'type': 'boolean'}, {'disp': 512, 'name': 'Complemento', 'type': 'string'}, {'disp': 'FK', 'name': 'IdBairro', 'type': 'reference Bairros'}, {'disp': 'FK', 'name': 'IdCidade', 'type': 'reference Cidades'}], 'name': 'Logradouros', 'type': 'table'}, {'fields': [{'disp': 'PK', 'name': 'Id', 'type': 'id'}, {'disp': 'FK', 'name': 'IdLogradouro', 'type': 'reference Logradouros'}, {'disp': ' ', 'name': 'Num', 'type': 'integer'}, {'disp': '8', 'name': 'Quadra', 'type': 'string'}, {'disp': '8', 'name': 'Lote', 'type': 'string'}, {'disp': <gluon.validators.IS_IN_SET object>, 'name': 'Tipo', 'type': 'string'}, {'disp': '18', 'name': 'Complemento', 'type': 'string'}, {'disp': <gluon.validators.IS_IN_SET object>, 'name': 'TipoB', 'type': 'string'}, {'disp': '18', 'name': 'ComplementoB', 'type': 'string'}], 'name': 'Enderecos', 'type': 'table'}, {'fields': [{'disp': 'PK', 'name': 'Id', 'type': 'id'}, {'disp': ' ', 'name': 'IdEstoque', 'type': 'list'}, {'disp': ' ', 'name': 'Qtd', 'type': 'decimal(10,2)'}, {'disp': ' ', 'name': 'DataReg', 'type': 'datetime'}, {'disp': ' ', 'name': 'IdPessoa', 'type': 'integer'}, {'disp': ' ', 'name': 'Uso', 'type': 'text'}, {'disp': ' ', 'name': 'QtdDevolvido', 'type': 'decimal(8,2)'}], 'name': 'ControleRetirada', 'type': 'table'}, {'fields': [{'disp': 'PK', 'name': 'Id', 'type': 'id'}, {'disp': ' ', 'name': 'Protocolo', 'type': 'integer'}, {'disp': ' ', 'name': 'IdMaterial', 'type': 'integer'}, {'disp': ' ', 'name': 'Qtd', 'type': 'integer'}, {'disp': ' ', 'name': 'DataReg', 'type': 'datetime'}], 'name': 'ListasCompra', 'type': 'table'}, {'fields': [{'disp': 'PK', 'name': 'id', 'type': 'id'}, {'disp': 255, 'name': 'title', 'type': 'string'}, {'disp': 255, 'name': 'filename', 'type': 'string'}, {'disp': ' ', 'name': 'flength', 'type': 'integer'}, {'disp': 128, 'name': 'mime_type', 'type': 'string'}, {'disp': ' ', 'name': 'upload', 'type': 'upload'}], 'name': 'plugin_ckeditor_upload', 'type': 'table'}, {'fields': [{'disp': 'PK', 'name': 'id', 'type': 'id'}, {'disp': '20', 'name': 'Tag', 'type': 'string'}], 'name': 'Tags', 'type': 'table'}, {'fields': [{'disp': 'PK', 'name': 'id', 'type': 'id'}, {'disp': 512, 'name': 'Titulo', 'type': 'string'}, {'disp': ' ', 'name': 'body', 'type': 'text'}, {'disp': 'FK', 'name': 'Tags', 'type': 'list:reference Tags'}], 'name': 'A3pDica', 'type': 'table'}, {'fields': [{'disp': 'PK', 'name': 'Id', 'type': 'id'}, {'disp': ' ', 'name': 'IdDof', 'type': 'text'}, {'disp': ' ', 'name': 'Item', 'type': 'decimal(2,0)'}, {'disp': ' ', 'name': 'Produto', 'type': 'text'}, {'disp': ' ', 'name': 'Especie', 'type': 'text'}, {'disp': ' ', 'name': 'Popular', 'type': 'text'}, {'disp': ' ', 'name': 'Qtd', 'type': 'decimal(7,4)'}, {'disp': ' ', 'name': 'Unidade', 'type': 'text'}, {'disp': ' ', 'name': 'Valor', 'type': 'text'}], 'name': 'MadeirasDof', 'type': 'table'}, {'fields': [{'disp': 'PK', 'name': 'Id', 'type': 'id'}, {'disp': ' ', 'name': 'IdCat', 'type': 'integer'}, {'disp': ' ', 'name': 'IdSub', 'type': 'integer'}, {'disp': ' ', 'name': 'Cod', 'type': 'integer'}, {'disp': ' ', 'name': 'Material', 'type': 'text'}, {'disp': ' ', 'name': 'Unidade', 'type': 'text'}], 'name': 'Materiais', 'type': 'table'}, {'fields': [{'disp': 'PK', 'name': 'Id', 'type': 'id'}, {'disp': 'FK', 'name': 'IdMaterial', 'type': 'reference Materiais'}, {'disp': ' ', 'name': 'Qtd', 'type': 'decimal(10,2)'}, {'disp': ' ', 'name': 'IdLocal', 'type': 'integer'}, {'disp': ' ', 'name': 'DataValidade', 'type': 'date'}, {'disp': ' ', 'name': 'DataReg', 'type': 'datetime'}], 'name': 'Estoque', 'type': 'table'}, {'fields': [{'disp': 'PK', 'name': 'Id', 'type': 'id'}, {'disp': ' ', 'name': 'Predio', 'type': 'text'}, {'disp': ' ', 'name': 'CodEnergia', 'type': 'integer'}, {'disp': ' ', 'name': 'CodAgua', 'type': 'integer'}, {'disp': 'FK', 'name': 'CodDepto', 'type': 'reference Dpto'}], 'name': 'Predios', 'type': 'table'}, {'fields': [{'disp': ' ', 'name': 'Departamento', 'type': 'text'}, {'disp': ' ', 'name': 'Idm', 'type': 'integer'}, {'disp': 'FK', 'name': 'Orgao', 'type': 'reference Dpto'}, {'disp': ' ', 'name': 'Telefone', 'type': 'text'}], 'name': 'Dpto', 'type': 'table'}, {'fields': [{'disp': 'PK', 'name': 'Id', 'type': 'id'}, {'disp': ' ', 'name': 'CodCPFL', 'type': 'integer'}, {'disp': ' ', 'name': 'Mes', 'type': 'date'}, {'disp': ' ', 'name': 'Valor', 'type': 'decimal(10,2)'}, {'disp': ' ', 'name': 'Kwh', 'type': 'integer'}], 'name': 'ContasEnergia', 'type': 'table'}, {'fields': [{'disp': 'PK', 'name': 'Id', 'type': 'id'}, {'disp': ' ', 'name': 'CodSemae', 'type': 'integer'}, {'disp': ' ', 'name': 'Data', 'type': 'date'}, {'disp': ' ', 'name': 'NDias', 'type': 'integer'}, {'disp': ' ', 'name': 'Consumo', 'type': 'integer'}, {'disp': ' ', 'name': 'Valor', 'type': 'decimal(7,2)'}], 'name': 'ContasAgua', 'type': 'table'}, {'fields': [{'disp': 'PK', 'name': 'Id', 'type': 'id'}, {'disp': ' ', 'name': 'IdPredio', 'type': 'integer'}, {'disp': ' ', 'name': 'Data', 'type': 'date'}, {'disp': ' ', 'name': 'Tipo', 'type': 'list:text'}, {'disp': ' ', 'name': 'Qtd', 'type': 'decimal(7,2)'}], 'name': 'A3pLixos', 'type': 'table'}, {'fields': [{'disp': 'PK', 'name': 'Id', 'type': 'id'}, {'disp': ' ', 'name': 'Idm', 'type': 'integer'}, {'disp': '115', 'name': 'Nome', 'type': 'string'}, {'disp': 512, 'name': 'CPF', 'type': 'string'}, {'disp': '22', 'name': 'CNPJ', 'type': 'string'}, {'disp': ' ', 'name': 'IdEndereco', 'type': 'list'}, {'disp': '22', 'name': 'Telefone', 'type': 'string'}, {'disp': '22', 'name': 'celular', 'type': 'string'}, {'disp': '75', 'name': 'Email', 'type': 'string'}, {'disp': ' ', 'name': 'Categoria', 'type': 'text'}], 'name': 'Pessoas', 'type': 'table'}]"
p190
ssg72
I270
sg73
(dp191
I265
S'        else:'
p192
sI266
S'            _iterencode = _make_iterencode('
p193
sI267
S'                markers, self.default, _encoder, self.indent, floatstr,'
p194
sI268
S'                self.key_separator, self.item_separator, self.sort_keys,'
p195
sI269
S'                self.skipkeys, _one_shot)'
p196
sI270
S'        return _iterencode(o, 0)'
p197
sI271
S''
sI272
S'def _make_iterencode(markers, _default, _encoder, _indent, _floatstr,'
p198
sI273
S'        _key_separator, _item_separator, _sort_keys, _skipkeys, _one_shot,'
p199
sI274
S'        ## HACK: hand-optimized bytecode; turn globals into locals'
p200
ssg85
S"(self=<json.encoder.JSONEncoder object>, o=[{'fields': [{'disp': 512, 'name': 'Cidade', 'type': 'string'}, {'disp': ' ', 'name': 'CEP', 'type': 'integer'}, {'disp': 'PK', 'name': 'Id', 'type': 'id'}], 'name': 'Cidades', 'type': 'table'}, {'fields': [{'disp': 'PK', 'name': 'Id', 'type': 'id'}, {'disp': 512, 'name': 'Bairro', 'type': 'string'}, {'disp': <gluon.validators.IS_IN_SET object>, 'name': 'Cor', 'type': 'string'}, {'disp': 'FK', 'name': 'IdCidade', 'type': 'reference Cidades'}, {'disp': ' ', 'name': 'Regiao', 'type': 'integer'}], 'name': 'Bairros', 'type': 'table'}, {'fields': [{'disp': 512, 'name': 'Logradouro', 'type': 'string'}, {'disp': ' ', 'name': 'Cep', 'type': 'integer'}, {'disp': 'PK', 'name': 'Id', 'type': 'id'}, {'disp': ' ', 'name': 'Denominacao', 'type': 'list:string'}, {'disp': ' ', 'name': 'Prefixo', 'type': 'list:string'}, {'disp': ' ', 'name': 'No', 'type': 'integer'}, {'disp': ' ', 'name': 'NoInicial', 'type': 'integer'}, {'disp': ' ', 'name': 'NoFinal', 'type': 'integer'}, {'disp': ' ', 'name': 'Lado', 'type': 'boolean'}, {'disp': 512, 'name': 'Complemento', 'type': 'string'}, {'disp': 'FK', 'name': 'IdBairro', 'type': 'reference Bairros'}, {'disp': 'FK', 'name': 'IdCidade', 'type': 'reference Cidades'}], 'name': 'Logradouros', 'type': 'table'}, {'fields': [{'disp': 'PK', 'name': 'Id', 'type': 'id'}, {'disp': 'FK', 'name': 'IdLogradouro', 'type': 'reference Logradouros'}, {'disp': ' ', 'name': 'Num', 'type': 'integer'}, {'disp': '8', 'name': 'Quadra', 'type': 'string'}, {'disp': '8', 'name': 'Lote', 'type': 'string'}, {'disp': <gluon.validators.IS_IN_SET object>, 'name': 'Tipo', 'type': 'string'}, {'disp': '18', 'name': 'Complemento', 'type': 'string'}, {'disp': <gluon.validators.IS_IN_SET object>, 'name': 'TipoB', 'type': 'string'}, {'disp': '18', 'name': 'ComplementoB', 'type': 'string'}], 'name': 'Enderecos', 'type': 'table'}, {'fields': [{'disp': 'PK', 'name': 'Id', 'type': 'id'}, {'disp': ' ', 'name': 'IdEstoque', 'type': 'list'}, {'disp': ' ', 'name': 'Qtd', 'type': 'decimal(10,2)'}, {'disp': ' ', 'name': 'DataReg', 'type': 'datetime'}, {'disp': ' ', 'name': 'IdPessoa', 'type': 'integer'}, {'disp': ' ', 'name': 'Uso', 'type': 'text'}, {'disp': ' ', 'name': 'QtdDevolvido', 'type': 'decimal(8,2)'}], 'name': 'ControleRetirada', 'type': 'table'}, {'fields': [{'disp': 'PK', 'name': 'Id', 'type': 'id'}, {'disp': ' ', 'name': 'Protocolo', 'type': 'integer'}, {'disp': ' ', 'name': 'IdMaterial', 'type': 'integer'}, {'disp': ' ', 'name': 'Qtd', 'type': 'integer'}, {'disp': ' ', 'name': 'DataReg', 'type': 'datetime'}], 'name': 'ListasCompra', 'type': 'table'}, {'fields': [{'disp': 'PK', 'name': 'id', 'type': 'id'}, {'disp': 255, 'name': 'title', 'type': 'string'}, {'disp': 255, 'name': 'filename', 'type': 'string'}, {'disp': ' ', 'name': 'flength', 'type': 'integer'}, {'disp': 128, 'name': 'mime_type', 'type': 'string'}, {'disp': ' ', 'name': 'upload', 'type': 'upload'}], 'name': 'plugin_ckeditor_upload', 'type': 'table'}, {'fields': [{'disp': 'PK', 'name': 'id', 'type': 'id'}, {'disp': '20', 'name': 'Tag', 'type': 'string'}], 'name': 'Tags', 'type': 'table'}, {'fields': [{'disp': 'PK', 'name': 'id', 'type': 'id'}, {'disp': 512, 'name': 'Titulo', 'type': 'string'}, {'disp': ' ', 'name': 'body', 'type': 'text'}, {'disp': 'FK', 'name': 'Tags', 'type': 'list:reference Tags'}], 'name': 'A3pDica', 'type': 'table'}, {'fields': [{'disp': 'PK', 'name': 'Id', 'type': 'id'}, {'disp': ' ', 'name': 'IdDof', 'type': 'text'}, {'disp': ' ', 'name': 'Item', 'type': 'decimal(2,0)'}, {'disp': ' ', 'name': 'Produto', 'type': 'text'}, {'disp': ' ', 'name': 'Especie', 'type': 'text'}, {'disp': ' ', 'name': 'Popular', 'type': 'text'}, {'disp': ' ', 'name': 'Qtd', 'type': 'decimal(7,4)'}, {'disp': ' ', 'name': 'Unidade', 'type': 'text'}, {'disp': ' ', 'name': 'Valor', 'type': 'text'}], 'name': 'MadeirasDof', 'type': 'table'}, {'fields': [{'disp': 'PK', 'name': 'Id', 'type': 'id'}, {'disp': ' ', 'name': 'IdCat', 'type': 'integer'}, {'disp': ' ', 'name': 'IdSub', 'type': 'integer'}, {'disp': ' ', 'name': 'Cod', 'type': 'integer'}, {'disp': ' ', 'name': 'Material', 'type': 'text'}, {'disp': ' ', 'name': 'Unidade', 'type': 'text'}], 'name': 'Materiais', 'type': 'table'}, {'fields': [{'disp': 'PK', 'name': 'Id', 'type': 'id'}, {'disp': 'FK', 'name': 'IdMaterial', 'type': 'reference Materiais'}, {'disp': ' ', 'name': 'Qtd', 'type': 'decimal(10,2)'}, {'disp': ' ', 'name': 'IdLocal', 'type': 'integer'}, {'disp': ' ', 'name': 'DataValidade', 'type': 'date'}, {'disp': ' ', 'name': 'DataReg', 'type': 'datetime'}], 'name': 'Estoque', 'type': 'table'}, {'fields': [{'disp': 'PK', 'name': 'Id', 'type': 'id'}, {'disp': ' ', 'name': 'Predio', 'type': 'text'}, {'disp': ' ', 'name': 'CodEnergia', 'type': 'integer'}, {'disp': ' ', 'name': 'CodAgua', 'type': 'integer'}, {'disp': 'FK', 'name': 'CodDepto', 'type': 'reference Dpto'}], 'name': 'Predios', 'type': 'table'}, {'fields': [{'disp': ' ', 'name': 'Departamento', 'type': 'text'}, {'disp': ' ', 'name': 'Idm', 'type': 'integer'}, {'disp': 'FK', 'name': 'Orgao', 'type': 'reference Dpto'}, {'disp': ' ', 'name': 'Telefone', 'type': 'text'}], 'name': 'Dpto', 'type': 'table'}, {'fields': [{'disp': 'PK', 'name': 'Id', 'type': 'id'}, {'disp': ' ', 'name': 'CodCPFL', 'type': 'integer'}, {'disp': ' ', 'name': 'Mes', 'type': 'date'}, {'disp': ' ', 'name': 'Valor', 'type': 'decimal(10,2)'}, {'disp': ' ', 'name': 'Kwh', 'type': 'integer'}], 'name': 'ContasEnergia', 'type': 'table'}, {'fields': [{'disp': 'PK', 'name': 'Id', 'type': 'id'}, {'disp': ' ', 'name': 'CodSemae', 'type': 'integer'}, {'disp': ' ', 'name': 'Data', 'type': 'date'}, {'disp': ' ', 'name': 'NDias', 'type': 'integer'}, {'disp': ' ', 'name': 'Consumo', 'type': 'integer'}, {'disp': ' ', 'name': 'Valor', 'type': 'decimal(7,2)'}], 'name': 'ContasAgua', 'type': 'table'}, {'fields': [{'disp': 'PK', 'name': 'Id', 'type': 'id'}, {'disp': ' ', 'name': 'IdPredio', 'type': 'integer'}, {'disp': ' ', 'name': 'Data', 'type': 'date'}, {'disp': ' ', 'name': 'Tipo', 'type': 'list:text'}, {'disp': ' ', 'name': 'Qtd', 'type': 'decimal(7,2)'}], 'name': 'A3pLixos', 'type': 'table'}, {'fields': [{'disp': 'PK', 'name': 'Id', 'type': 'id'}, {'disp': ' ', 'name': 'Idm', 'type': 'integer'}, {'disp': '115', 'name': 'Nome', 'type': 'string'}, {'disp': 512, 'name': 'CPF', 'type': 'string'}, {'disp': '22', 'name': 'CNPJ', 'type': 'string'}, {'disp': ' ', 'name': 'IdEndereco', 'type': 'list'}, {'disp': '22', 'name': 'Telefone', 'type': 'string'}, {'disp': '22', 'name': 'celular', 'type': 'string'}, {'disp': '75', 'name': 'Email', 'type': 'string'}, {'disp': ' ', 'name': 'Categoria', 'type': 'text'}], 'name': 'Pessoas', 'type': 'table'}], _one_shot=True)"
p201
sg87
S'iterencode'
p202
sa(dp203
g64
S'/home/www-data/web2py/gluon/serializers.py'
p204
sg66
(dp205
S'builtinrepr'
p206
S'<built-in function repr>'
p207
sS'builtinTypeError'
p208
S"<type 'exceptions.TypeError'>"
p209
sS'o'
S'<gluon.validators.IS_IN_SET object>'
p210
ssg72
I99
sg73
(dp211
I96
S"    elif hasattr(o, 'as_dict') and callable(o.as_dict):"
p212
sI97
S'        return o.as_dict()'
p213
sI98
S'    else:'
p214
sI99
S'        raise TypeError(repr(o) + " is not JSON serializable")'
p215
sI100
S''
sI101
S''
sI102
S'def xml_rec(value, key, quote=True):'
p216
sI103
S"    if hasattr(value, 'custom_xml') and callable(value.custom_xml):"
p217
sI94
S"    elif hasattr(o, 'as_list') and callable(o.as_list):"
p218
sI95
S'        return o.as_list()'
p219
ssg85
S'(o=<gluon.validators.IS_IN_SET object>)'
p220
sg87
S'custom_json'
p221
sasS'pyver'
p222
S'Python 2.7.17: /usr/local/bin/uwsgi (prefix: /usr)'
p223
sS'session'
p224
g59
(S's\xb9\x01\x00\x00<div><table><tr><td style="font-weight:bold;vertical-align:top;">counter</td><td style="vertical-align:top;">:</td><td><div>2</div></td></tr><tr><td style="font-weight:bold;vertical-align:top;">last_orderby</td><td style="vertical-align:top;">:</td><td><div>None</div></td></tr><tr><td style="font-weight:bold;vertical-align:top;">last_query</td><td style="vertical-align:top;">:</td><td><div>db.A3pDica.id&gt;0</div></td></tr></table></div>'
tRp225
sS'etype'
p226
S"<type 'exceptions.TypeError'>"
p227
sS'date'
p228
S'Mon Jan 13 08:16:37 2020'
p229
sS'response'
p230
g59
(S's\r!\x00\x00<div><table><tr><td style="font-weight:bold;vertical-align:top;">body</td><td style="vertical-align:top;">:</td><td><div>&lt;cStringIO.StringO object at 0x7fb5a5081930&gt;</div></td></tr><tr><td style="font-weight:bold;vertical-align:top;">cookies</td><td style="vertical-align:top;">:</td><td><div><table><tr><td style="font-weight:bold;vertical-align:top;">session_id_meioambienterp</td><td style="vertical-align:top;">:</td><td><div>127.0.0.1-7149d612-f4cc-49f2-bbd6-544ca9b255c9<table><tr><td style="font-weight:bold;vertical-align:top;">comment</td><td style="vertical-align:top;">:</td><td><div></div></td></tr><tr><td style="font-weight:bold;vertical-align:top;">domain</td><td style="vertical-align:top;">:</td><td><div></div></td></tr><tr><td style="font-weight:bold;vertical-align:top;">expires</td><td style="vertical-align:top;">:</td><td><div></div></td></tr><tr><td style="font-weight:bold;vertical-align:top;">httponly</td><td style="vertical-align:top;">:</td><td><div></div></td></tr><tr><td style="font-weight:bold;vertical-align:top;">max-age</td><td style="vertical-align:top;">:</td><td><div></div></td></tr><tr><td style="font-weight:bold;vertical-align:top;">path</td><td style="vertical-align:top;">:</td><td><div>/</div></td></tr><tr><td style="font-weight:bold;vertical-align:top;">samesite</td><td style="vertical-align:top;">:</td><td><div></div></td></tr><tr><td style="font-weight:bold;vertical-align:top;">secure</td><td style="vertical-align:top;">:</td><td><div></div></td></tr><tr><td style="font-weight:bold;vertical-align:top;">version</td><td style="vertical-align:top;">:</td><td><div></div></td></tr></table></div></td></tr></table></div></td></tr><tr><td style="font-weight:bold;vertical-align:top;">delimiters</td><td style="vertical-align:top;">:</td><td><div><table><tr><td><div>{{</div></td></tr><tr><td><div>}}</div></td></tr></table></div></td></tr><tr><td style="font-weight:bold;vertical-align:top;">files</td><td style="vertical-align:top;">:</td><td><div><table><tr><td><div>/MeioAmbienteRP/static/js/jquery.js</div></td></tr><tr><td><div>/MeioAmbienteRP/static/css/calendar.css</div></td></tr><tr><td><div>/MeioAmbienteRP/static/js/calendar.js</div></td></tr><tr><td><div>/MeioAmbienteRP/static/js/web2py.js</div></td></tr><tr><td><div>/admin/static/js/d3.min.js</div></td></tr><tr><td><div>/admin/static/js/d3_graph.js</div></td></tr></table></div></td></tr><tr><td style="font-weight:bold;vertical-align:top;">flash</td><td style="vertical-align:top;">:</td><td><div></div></td></tr><tr><td style="font-weight:bold;vertical-align:top;">form_label_separator</td><td style="vertical-align:top;">:</td><td><div></div></td></tr><tr><td style="font-weight:bold;vertical-align:top;">formstyle</td><td style="vertical-align:top;">:</td><td><div>bootstrap4_inline</div></td></tr><tr><td style="font-weight:bold;vertical-align:top;">generic_patterns</td><td style="vertical-align:top;">:</td><td><div><table><tr><td><div>*</div></td></tr></table></div></td></tr><tr><td style="font-weight:bold;vertical-align:top;">google_analytics_id</td><td style="vertical-align:top;">:</td><td><div>None</div></td></tr><tr><td style="font-weight:bold;vertical-align:top;">headers</td><td style="vertical-align:top;">:</td><td><div><table><tr><td style="font-weight:bold;vertical-align:top;">X-Powered-By</td><td style="vertical-align:top;">:</td><td><div>web2py</div></td></tr></table></div></td></tr><tr><td style="font-weight:bold;vertical-align:top;">menu</td><td style="vertical-align:top;">:</td><td><div><table><tr><td><div><table><tr><td><div>projeto</div></td></tr><tr><td><div>False</div></td></tr><tr><td><div>/admin/default/design/MeioAmbienteRP</div></td></tr></table></div></td></tr><tr><td><div><table><tr><td><div>bd</div></td></tr><tr><td><div>False</div></td></tr><tr><td><div>/MeioAmbienteRP/appadmin/index</div></td></tr></table></div></td></tr><tr><td><div><table><tr><td><div>estado</div></td></tr><tr><td><div>False</div></td></tr><tr><td><div>/MeioAmbienteRP/appadmin/state</div></td></tr></table></div></td></tr><tr><td><div><table><tr><td><div>cache</div></td></tr><tr><td><div>False</div></td></tr><tr><td><div>/MeioAmbienteRP/appadmin/ccache</div></td></tr></table></div></td></tr></table></div></td></tr><tr><td style="font-weight:bold;vertical-align:top;">meta</td><td style="vertical-align:top;">:</td><td><div><table><tr><td style="font-weight:bold;vertical-align:top;">author</td><td style="vertical-align:top;">:</td><td><div>Carlos A Locatelli Jr &lt;call.jmail@gmail.com&gt;</div></td></tr><tr><td style="font-weight:bold;vertical-align:top;">description</td><td style="vertical-align:top;">:</td><td><div>Sistema Python Web2py e Banco Mysql Desenvolvido para gest\xc3\xa3o da SMAURB</div></td></tr><tr><td style="font-weight:bold;vertical-align:top;">generator</td><td style="vertical-align:top;">:</td><td><div>Web2py Web Framework</div></td></tr><tr><td style="font-weight:bold;vertical-align:top;">keywords</td><td style="vertical-align:top;">:</td><td><div><table><tr><td><div>web2py</div></td></tr><tr><td><div>python</div></td></tr><tr><td><div>framework</div></td></tr></table></div></td></tr></table></div></td></tr><tr><td style="font-weight:bold;vertical-align:top;">models_to_run</td><td style="vertical-align:top;">:</td><td><div><table><tr><td><div>^\\w+\\.py$</div></td></tr><tr><td><div>^appadmin/\\w+\\.py$</div></td></tr><tr><td><div>^appadmin/d3_graph_model/\\w+\\.py$</div></td></tr></table></div></td></tr><tr><td style="font-weight:bold;vertical-align:top;">postprocessing</td><td style="vertical-align:top;">:</td><td><div><table></table></div></td></tr><tr><td style="font-weight:bold;vertical-align:top;">session_client</td><td style="vertical-align:top;">:</td><td><div>127.0.0.1</div></td></tr><tr><td style="font-weight:bold;vertical-align:top;">session_cookie_compression_level</td><td style="vertical-align:top;">:</td><td><div>None</div></td></tr><tr><td style="font-weight:bold;vertical-align:top;">session_cookie_expires</td><td style="vertical-align:top;">:</td><td><div>None</div></td></tr><tr><td style="font-weight:bold;vertical-align:top;">session_data_name</td><td style="vertical-align:top;">:</td><td><div>session_data_meioambienterp</div></td></tr><tr><td style="font-weight:bold;vertical-align:top;">session_file</td><td style="vertical-align:top;">:</td><td><div>&lt;open file &#x27;/home/www-data/web2py/applications/MeioAmbienteRP/sessions/1f9/1bb/127.0.0.1-7149d612-f4cc-49f2-bbd6-544ca9b255c9&#x27;, mode &#x27;rb+&#x27; at 0x7fb5a58eac00&gt;</div></td></tr><tr><td style="font-weight:bold;vertical-align:top;">session_filename</td><td style="vertical-align:top;">:</td><td><div>/home/www-data/web2py/applications/MeioAmbienteRP/sessions/127.0.0.1-7149d612-f4cc-49f2-bbd6-544ca9b255c9</div></td></tr><tr><td style="font-weight:bold;vertical-align:top;">session_hash</td><td style="vertical-align:top;">:</td><td><div>c0105afdd34db9b9b58b967e1a640632</div></td></tr><tr><td style="font-weight:bold;vertical-align:top;">session_id</td><td style="vertical-align:top;">:</td><td><div>127.0.0.1-7149d612-f4cc-49f2-bbd6-544ca9b255c9</div></td></tr><tr><td style="font-weight:bold;vertical-align:top;">session_id_name</td><td style="vertical-align:top;">:</td><td><div>session_id_meioambienterp</div></td></tr><tr><td style="font-weight:bold;vertical-align:top;">session_locked</td><td style="vertical-align:top;">:</td><td><div>True</div></td></tr><tr><td style="font-weight:bold;vertical-align:top;">session_masterapp</td><td style="vertical-align:top;">:</td><td><div>MeioAmbienteRP</div></td></tr><tr><td style="font-weight:bold;vertical-align:top;">session_new</td><td style="vertical-align:top;">:</td><td><div>False</div></td></tr><tr><td style="font-weight:bold;vertical-align:top;">session_storage_type</td><td style="vertical-align:top;">:</td><td><div>file</div></td></tr><tr><td style="font-weight:bold;vertical-align:top;">show_toolbar</td><td style="vertical-align:top;">:</td><td><div>False</div></td></tr><tr><td style="font-weight:bold;vertical-align:top;">status</td><td style="vertical-align:top;">:</td><td><div>200</div></td></tr><tr><td style="font-weight:bold;vertical-align:top;">subtitle</td><td style="vertical-align:top;">:</td><td><div>Database Administration (appadmin)</div></td></tr><tr><td style="font-weight:bold;vertical-align:top;">view</td><td style="vertical-align:top;">:</td><td><div>appadmin.html</div></td></tr></table></div>'
tRp231
sS'locals'
p232
(dp233
S'o'
S'<gluon.validators.IS_IN_SET object>'
p234
sssS'traceback'
p235
S'Traceback (most recent call last):\n  File "/home/www-data/web2py/gluon/restricted.py", line 219, in restricted\n    exec(ccode, environment)\n  File "/home/www-data/web2py/applications/MeioAmbienteRP/views/appadmin.html", line 457, in <module>\n  File "/home/www-data/web2py/gluon/serializers.py", line 123, in json\n    value = json_parser.dumps(value, default=default, sort_keys=sort_keys, indent=indent)\n  File "/usr/lib/python2.7/json/__init__.py", line 251, in dumps\n    sort_keys=sort_keys, **kw).encode(obj)\n  File "/usr/lib/python2.7/json/encoder.py", line 207, in encode\n    chunks = self.iterencode(o, _one_shot=True)\n  File "/usr/lib/python2.7/json/encoder.py", line 270, in iterencode\n    return _iterencode(o, 0)\n  File "/home/www-data/web2py/gluon/serializers.py", line 99, in custom_json\n    raise TypeError(repr(o) + " is not JSON serializable")\nTypeError: <gluon.validators.IS_IN_SET object at 0x7fb5a5342790> is not JSON serializable\n'
p236
s.