(dp1
S'output'
p2
S'<class \'_mysql_exceptions.ProgrammingError\'> (1146, "Table \'Tconect.Predios\' doesn\'t exist")'
p3
sS'layer'
p4
S'/home/smmau/Downloads/Programador/web2py/applications/MeioAmbienteRP/controllers/graficos.py'
p5
sS'code'
p6
S'<code object <module> at 0x7f35381c9530, file "/home/smmau/Downloads/Programador/web2py/applications/MeioAmbienteRP/controllers/graficos.py", line 4>'
p7
sS'snapshot'
p8
(dp9
sS'traceback'
p10
S'Traceback (most recent call last):\n  File "/home/smmau/Downloads/Programador/web2py/gluon/restricted.py", line 219, in restricted\n    exec(ccode, environment)\n  File "/home/smmau/Downloads/Programador/web2py/applications/MeioAmbienteRP/controllers/graficos.py", line 80, in <module>\n  File "/home/smmau/Downloads/Programador/web2py/gluon/globals.py", line 421, in <lambda>\n    self._caller = lambda f: f()\n  File "/home/smmau/Downloads/Programador/web2py/gluon/tools.py", line 3867, in f\n    return action(*a, **b)\n  File "/home/smmau/Downloads/Programador/web2py/applications/MeioAmbienteRP/controllers/graficos.py", line 76, in plotA3P\n    predio_p_cod = db((dbentidades.Predios.Id == session.IdPredio)).select(dbentidades.Predios.Predio)\n  File "/home/smmau/Downloads/Programador/web2py/gluon/packages/dal/pydal/objects.py", line 2275, in select\n    return adapter.select(self.query, fields, attributes)\n  File "/home/smmau/Downloads/Programador/web2py/gluon/packages/dal/pydal/adapters/base.py", line 763, in select\n    return self._select_aux(sql, fields, attributes, colnames)\n  File "/home/smmau/Downloads/Programador/web2py/gluon/packages/dal/pydal/adapters/base.py", line 719, in _select_aux\n    rows = self._select_aux_execute(sql)\n  File "/home/smmau/Downloads/Programador/web2py/gluon/packages/dal/pydal/adapters/base.py", line 713, in _select_aux_execute\n    self.execute(sql)\n  File "/home/smmau/Downloads/Programador/web2py/gluon/packages/dal/pydal/adapters/__init__.py", line 67, in wrap\n    return f(*args, **kwargs)\n  File "/home/smmau/Downloads/Programador/web2py/gluon/packages/dal/pydal/adapters/base.py", line 413, in execute\n    rv = self.cursor.execute(command, *args[1:], **kwargs)\n  File "/usr/lib/python2.7/dist-packages/MySQLdb/cursors.py", line 250, in execute\n    self.errorhandler(self, exc, value)\n  File "/usr/lib/python2.7/dist-packages/MySQLdb/connections.py", line 50, in defaulterrorhandler\n    raise errorvalue\nProgrammingError: (1146, "Table \'Tconect.Predios\' doesn\'t exist")\n'
p11
s.