(dp1
S'output'
p2
S"<type 'exceptions.IndexError'> list index out of range"
p3
sS'layer'
p4
S'/home/www-data/web2py/applications/Qualidade_Ambiental/controllers/plotdados.py'
p5
sS'code'
p6
S'<code object <module> at 0x7f310ba4af30, file "/home/www-data/web2py/applications/Qualidade_Ambiental/controllers/plotdados.py", line 26>'
p7
sS'snapshot'
p8
(dp9
S'exception'
p10
(dp11
S'__getslice__'
p12
S"<method-wrapper '__getslice__' of exceptions.IndexError object>"
p13
sS'__str__'
p14
S"<method-wrapper '__str__' of exceptions.IndexError object>"
p15
sS'__reduce__'
p16
S'<built-in method __reduce__ of exceptions.IndexError object>'
p17
sS'__dict__'
p18
S'{}'
p19
sS'message'
p20
S"'list index out of range'"
p21
sS'__sizeof__'
p22
S'<built-in method __sizeof__ of exceptions.IndexError object>'
p23
sS'__init__'
p24
S"<method-wrapper '__init__' of exceptions.IndexError object>"
p25
sS'__setattr__'
p26
S"<method-wrapper '__setattr__' of exceptions.IndexError object>"
p27
sS'__reduce_ex__'
p28
S'<built-in method __reduce_ex__ of exceptions.IndexError object>'
p29
sS'__new__'
p30
S'<built-in method __new__ of type object>'
p31
sS'__format__'
p32
S'<built-in method __format__ of exceptions.IndexError object>'
p33
sS'__class__'
p34
S"<type 'exceptions.IndexError'>"
p35
sS'__doc__'
p36
S"'Sequence index out of range.'"
p37
sS'__getitem__'
p38
S"<method-wrapper '__getitem__' of exceptions.IndexError object>"
p39
sS'__setstate__'
p40
S'<built-in method __setstate__ of exceptions.IndexError object>'
p41
sS'__getattribute__'
p42
S"<method-wrapper '__getattribute__' of exceptions.IndexError object>"
p43
sS'args'
p44
S"('list index out of range',)"
p45
sS'__subclasshook__'
p46
S'<built-in method __subclasshook__ of type object>'
p47
sS'__unicode__'
p48
S'<built-in method __unicode__ of exceptions.IndexError object>'
p49
sS'__delattr__'
p50
S"<method-wrapper '__delattr__' of exceptions.IndexError object>"
p51
sS'__repr__'
p52
S"<method-wrapper '__repr__' of exceptions.IndexError object>"
p53
sS'__hash__'
p54
S"<method-wrapper '__hash__' of exceptions.IndexError object>"
p55
ssS'evalue'
p56
S'list index out of range'
p57
sS'request'
p58
cgluon.html
XML_unpickle
p59
(S's5f\x00\x00<div><table><tr><td style="font-weight:bold;vertical-align:top;">ajax</td><td style="vertical-align:top;">:</td><td><div>False</div></td></tr><tr><td style="font-weight:bold;vertical-align:top;">application</td><td style="vertical-align:top;">:</td><td><div>Qualidade_Ambiental</div></td></tr><tr><td style="font-weight:bold;vertical-align:top;">args</td><td style="vertical-align:top;">:</td><td><div><table></table></div></td></tr><tr><td style="font-weight:bold;vertical-align:top;">cid</td><td style="vertical-align:top;">:</td><td><div>None</div></td></tr><tr><td style="font-weight:bold;vertical-align:top;">client</td><td style="vertical-align:top;">:</td><td><div>10.34.7.44</div></td></tr><tr><td style="font-weight:bold;vertical-align:top;">controller</td><td style="vertical-align:top;">:</td><td><div>plotdados</div></td></tr><tr><td style="font-weight:bold;vertical-align:top;">cookies</td><td style="vertical-align:top;">:</td><td><div><table><tr><td style="font-weight:bold;vertical-align:top;">session_id_admin</td><td style="vertical-align:top;">:</td><td><div>10.34.7.44-b455aed9-2aee-4a70-9bd9-339b39b137c6<table><tr><td style="font-weight:bold;vertical-align:top;">comment</td><td style="vertical-align:top;">:</td><td><div></div></td></tr><tr><td style="font-weight:bold;vertical-align:top;">domain</td><td style="vertical-align:top;">:</td><td><div></div></td></tr><tr><td style="font-weight:bold;vertical-align:top;">expires</td><td style="vertical-align:top;">:</td><td><div></div></td></tr><tr><td style="font-weight:bold;vertical-align:top;">httponly</td><td style="vertical-align:top;">:</td><td><div></div></td></tr><tr><td style="font-weight:bold;vertical-align:top;">max-age</td><td style="vertical-align:top;">:</td><td><div></div></td></tr><tr><td style="font-weight:bold;vertical-align:top;">path</td><td style="vertical-align:top;">:</td><td><div></div></td></tr><tr><td style="font-weight:bold;vertical-align:top;">samesite</td><td style="vertical-align:top;">:</td><td><div></div></td></tr><tr><td style="font-weight:bold;vertical-align:top;">secure</td><td style="vertical-align:top;">:</td><td><div></div></td></tr><tr><td style="font-weight:bold;vertical-align:top;">version</td><td style="vertical-align:top;">:</td><td><div></div></td></tr></table></div></td></tr><tr><td style="font-weight:bold;vertical-align:top;">session_id_designer</td><td style="vertical-align:top;">:</td><td><div>10.34.7.44-390170f7-cd6f-4938-8bf9-4b9a385cbc7c<table><tr><td style="font-weight:bold;vertical-align:top;">comment</td><td style="vertical-align:top;">:</td><td><div></div></td></tr><tr><td style="font-weight:bold;vertical-align:top;">domain</td><td style="vertical-align:top;">:</td><td><div></div></td></tr><tr><td style="font-weight:bold;vertical-align:top;">expires</td><td style="vertical-align:top;">:</td><td><div></div></td></tr><tr><td style="font-weight:bold;vertical-align:top;">httponly</td><td style="vertical-align:top;">:</td><td><div></div></td></tr><tr><td style="font-weight:bold;vertical-align:top;">max-age</td><td style="vertical-align:top;">:</td><td><div></div></td></tr><tr><td style="font-weight:bold;vertical-align:top;">path</td><td style="vertical-align:top;">:</td><td><div></div></td></tr><tr><td style="font-weight:bold;vertical-align:top;">samesite</td><td style="vertical-align:top;">:</td><td><div></div></td></tr><tr><td style="font-weight:bold;vertical-align:top;">secure</td><td style="vertical-align:top;">:</td><td><div></div></td></tr><tr><td style="font-weight:bold;vertical-align:top;">version</td><td style="vertical-align:top;">:</td><td><div></div></td></tr></table></div></td></tr><tr><td style="font-weight:bold;vertical-align:top;">session_id_qualidade_ambiental</td><td style="vertical-align:top;">:</td><td><div>10.34.7.44-9551b7fa-43de-450b-99e9-f5afa2ea5146<table><tr><td style="font-weight:bold;vertical-align:top;">comment</td><td style="vertical-align:top;">:</td><td><div></div></td></tr><tr><td style="font-weight:bold;vertical-align:top;">domain</td><td style="vertical-align:top;">:</td><td><div></div></td></tr><tr><td style="font-weight:bold;vertical-align:top;">expires</td><td style="vertical-align:top;">:</td><td><div></div></td></tr><tr><td style="font-weight:bold;vertical-align:top;">httponly</td><td style="vertical-align:top;">:</td><td><div></div></td></tr><tr><td style="font-weight:bold;vertical-align:top;">max-age</td><td style="vertical-align:top;">:</td><td><div></div></td></tr><tr><td style="font-weight:bold;vertical-align:top;">path</td><td style="vertical-align:top;">:</td><td><div></div></td></tr><tr><td style="font-weight:bold;vertical-align:top;">samesite</td><td style="vertical-align:top;">:</td><td><div></div></td></tr><tr><td style="font-weight:bold;vertical-align:top;">secure</td><td style="vertical-align:top;">:</td><td><div></div></td></tr><tr><td style="font-weight:bold;vertical-align:top;">version</td><td style="vertical-align:top;">:</td><td><div></div></td></tr></table></div></td></tr><tr><td style="font-weight:bold;vertical-align:top;">session_id_welcome</td><td style="vertical-align:top;">:</td><td><div>10.34.7.44-78b259a9-b7a1-4150-845d-130cb9163ec2<table><tr><td style="font-weight:bold;vertical-align:top;">comment</td><td style="vertical-align:top;">:</td><td><div></div></td></tr><tr><td style="font-weight:bold;vertical-align:top;">domain</td><td style="vertical-align:top;">:</td><td><div></div></td></tr><tr><td style="font-weight:bold;vertical-align:top;">expires</td><td style="vertical-align:top;">:</td><td><div></div></td></tr><tr><td style="font-weight:bold;vertical-align:top;">httponly</td><td style="vertical-align:top;">:</td><td><div></div></td></tr><tr><td style="font-weight:bold;vertical-align:top;">max-age</td><td style="vertical-align:top;">:</td><td><div></div></td></tr><tr><td style="font-weight:bold;vertical-align:top;">path</td><td style="vertical-align:top;">:</td><td><div></div></td></tr><tr><td style="font-weight:bold;vertical-align:top;">samesite</td><td style="vertical-align:top;">:</td><td><div></div></td></tr><tr><td style="font-weight:bold;vertical-align:top;">secure</td><td style="vertical-align:top;">:</td><td><div></div></td></tr><tr><td style="font-weight:bold;vertical-align:top;">version</td><td style="vertical-align:top;">:</td><td><div></div></td></tr></table></div></td></tr><tr><td style="font-weight:bold;vertical-align:top;">wwwsqldesigner</td><td style="vertical-align:top;">:</td><td><div>{locale:&#x27;pt_BR&#x27;,db:&#x27;mysql&#x27;,snap:&#x27;0&#x27;,pattern:&#x27;%R_%T&#x27;,hide:&#x27;&#x27;,vector:&#x27;1&#x27;,showsize:&#x27;&#x27;,showtype:&#x27;&#x27;}<table><tr><td style="font-weight:bold;vertical-align:top;">comment</td><td style="vertical-align:top;">:</td><td><div></div></td></tr><tr><td style="font-weight:bold;vertical-align:top;">domain</td><td style="vertical-align:top;">:</td><td><div></div></td></tr><tr><td style="font-weight:bold;vertical-align:top;">expires</td><td style="vertical-align:top;">:</td><td><div></div></td></tr><tr><td style="font-weight:bold;vertical-align:top;">httponly</td><td style="vertical-align:top;">:</td><td><div></div></td></tr><tr><td style="font-weight:bold;vertical-align:top;">max-age</td><td style="vertical-align:top;">:</td><td><div></div></td></tr><tr><td style="font-weight:bold;vertical-align:top;">path</td><td style="vertical-align:top;">:</td><td><div></div></td></tr><tr><td style="font-weight:bold;vertical-align:top;">samesite</td><td style="vertical-align:top;">:</td><td><div></div></td></tr><tr><td style="font-weight:bold;vertical-align:top;">secure</td><td style="vertical-align:top;">:</td><td><div></div></td></tr><tr><td style="font-weight:bold;vertical-align:top;">version</td><td style="vertical-align:top;">:</td><td><div></div></td></tr></table></div></td></tr></table></div></td></tr><tr><td style="font-weight:bold;vertical-align:top;">env</td><td style="vertical-align:top;">:</td><td><div><table><tr><td style="font-weight:bold;vertical-align:top;">CONTENT_LENGTH</td><td style="vertical-align:top;">:</td><td><div></div></td></tr><tr><td style="font-weight:bold;vertical-align:top;">CONTENT_TYPE</td><td style="vertical-align:top;">:</td><td><div></div></td></tr><tr><td style="font-weight:bold;vertical-align:top;">DOCUMENT_ROOT</td><td style="vertical-align:top;">:</td><td><div>/usr/share/nginx/html</div></td></tr><tr><td style="font-weight:bold;vertical-align:top;">HTTPS</td><td style="vertical-align:top;">:</td><td><div>on</div></td></tr><tr><td style="font-weight:bold;vertical-align:top;">HTTP_ACCEPT</td><td style="vertical-align:top;">:</td><td><div>image/webp,*/*</div></td></tr><tr><td style="font-weight:bold;vertical-align:top;">HTTP_ACCEPT_ENCODING</td><td style="vertical-align:top;">:</td><td><div>gzip, deflate, br</div></td></tr><tr><td style="font-weight:bold;vertical-align:top;">HTTP_ACCEPT_LANGUAGE</td><td style="vertical-align:top;">:</td><td><div>pt-BR</div></td></tr><tr><td style="font-weight:bold;vertical-align:top;">HTTP_CONNECTION</td><td style="vertical-align:top;">:</td><td><div>keep-alive</div></td></tr><tr><td style="font-weight:bold;vertical-align:top;">HTTP_COOKIE</td><td style="vertical-align:top;">:</td><td><div>_xsrf=2|69891a86|1f0099a7accd226071828a16a3196571|1572447762; session_id_welcome=10.34.7.44-78b259a9-b7a1-4150-845d-130cb9163ec2; session_id_admin=10.34.7.44-b455aed9-2aee-4a70-9bd9-339b39b137c6; session_id_qualidade_ambiental=10.34.7.44-9551b7fa-43de-450b-99e9-f5afa2ea5146; session_id_designer=10.34.7.44-390170f7-cd6f-4938-8bf9-4b9a385cbc7c; wwwsqldesigner={locale:&#x27;pt_BR&#x27;,db:&#x27;mysql&#x27;,snap:&#x27;0&#x27;,pattern:&#x27;%R_%T&#x27;,hide:&#x27;&#x27;,vector:&#x27;1&#x27;,showsize:&#x27;&#x27;,showtype:&#x27;&#x27;}</div></td></tr><tr><td style="font-weight:bold;vertical-align:top;">HTTP_DNT</td><td style="vertical-align:top;">:</td><td><div>1</div></td></tr><tr><td style="font-weight:bold;vertical-align:top;">HTTP_HOST</td><td style="vertical-align:top;">:</td><td><div>10.34.7.37</div></td></tr><tr><td style="font-weight:bold;vertical-align:top;">HTTP_REFERER</td><td style="vertical-align:top;">:</td><td><div>https://10.34.7.37/Qualidade_Ambiental/PontosApoio/grafico_por_residuo</div></td></tr><tr><td style="font-weight:bold;vertical-align:top;">HTTP_USER_AGENT</td><td style="vertical-align:top;">:</td><td><div>Mozilla/5.0 (Windows NT 10.0; Win64; x64; rv:67.0) Gecko/20100101 Firefox/67.0</div></td></tr><tr><td style="font-weight:bold;vertical-align:top;">PATH_INFO</td><td style="vertical-align:top;">:</td><td><div>/Qualidade_Ambiental/plotdados/respontos.png</div></td></tr><tr><td style="font-weight:bold;vertical-align:top;">QUERY_STRING</td><td style="vertical-align:top;">:</td><td><div></div></td></tr><tr><td style="font-weight:bold;vertical-align:top;">REMOTE_ADDR</td><td style="vertical-align:top;">:</td><td><div>10.34.7.44</div></td></tr><tr><td style="font-weight:bold;vertical-align:top;">REMOTE_PORT</td><td style="vertical-align:top;">:</td><td><div>62428</div></td></tr><tr><td style="font-weight:bold;vertical-align:top;">REQUEST_METHOD</td><td style="vertical-align:top;">:</td><td><div>GET</div></td></tr><tr><td style="font-weight:bold;vertical-align:top;">REQUEST_SCHEME</td><td style="vertical-align:top;">:</td><td><div>https</div></td></tr><tr><td style="font-weight:bold;vertical-align:top;">REQUEST_URI</td><td style="vertical-align:top;">:</td><td><div>/Qualidade_Ambiental/plotdados/respontos.png</div></td></tr><tr><td style="font-weight:bold;vertical-align:top;">SERVER_NAME</td><td style="vertical-align:top;">:</td><td><div>smmau-004-pc004</div></td></tr><tr><td style="font-weight:bold;vertical-align:top;">SERVER_PORT</td><td style="vertical-align:top;">:</td><td><div>443</div></td></tr><tr><td style="font-weight:bold;vertical-align:top;">SERVER_PROTOCOL</td><td style="vertical-align:top;">:</td><td><div>HTTP/1.1</div></td></tr><tr><td style="font-weight:bold;vertical-align:top;">SERVER_SOFTWARE</td><td style="vertical-align:top;">:</td><td><div>nginx/1.14.0</div></td></tr><tr><td style="font-weight:bold;vertical-align:top;">UWSGI_SCHEME</td><td style="vertical-align:top;">:</td><td><div>https</div></td></tr><tr><td style="font-weight:bold;vertical-align:top;">app_folders</td><td style="vertical-align:top;">:</td><td><div>set([&#x27;/home/www-data/web2py/applications/Qualidade_Ambiental/&#x27;, &#x27;/home/www-data/web2py/applications/admin/&#x27;])</div></td></tr><tr><td style="font-weight:bold;vertical-align:top;">applications_parent</td><td style="vertical-align:top;">:</td><td><div>/home/www-data/web2py</div></td></tr><tr><td style="font-weight:bold;vertical-align:top;">content_length</td><td style="vertical-align:top;">:</td><td><div></div></td></tr><tr><td style="font-weight:bold;vertical-align:top;">content_type</td><td style="vertical-align:top;">:</td><td><div></div></td></tr><tr><td style="font-weight:bold;vertical-align:top;">db_sessions</td><td style="vertical-align:top;">:</td><td><div>set([])</div></td></tr><tr><td style="font-weight:bold;vertical-align:top;">debugging</td><td style="vertical-align:top;">:</td><td><div>False</div></td></tr><tr><td style="font-weight:bold;vertical-align:top;">document_root</td><td style="vertical-align:top;">:</td><td><div>/usr/share/nginx/html</div></td></tr><tr><td style="font-weight:bold;vertical-align:top;">gluon_parent</td><td style="vertical-align:top;">:</td><td><div>/home/www-data/web2py</div></td></tr><tr><td style="font-weight:bold;vertical-align:top;">http_accept</td><td style="vertical-align:top;">:</td><td><div>image/webp,*/*</div></td></tr><tr><td style="font-weight:bold;vertical-align:top;">http_accept_encoding</td><td style="vertical-align:top;">:</td><td><div>gzip, deflate, br</div></td></tr><tr><td style="font-weight:bold;vertical-align:top;">http_accept_language</td><td style="vertical-align:top;">:</td><td><div>pt-BR</div></td></tr><tr><td style="font-weight:bold;vertical-align:top;">http_connection</td><td style="vertical-align:top;">:</td><td><div>keep-alive</div></td></tr><tr><td style="font-weight:bold;vertical-align:top;">http_cookie</td><td style="vertical-align:top;">:</td><td><div>_xsrf=2|69891a86|1f0099a7accd226071828a16a3196571|1572447762; session_id_welcome=10.34.7.44-78b259a9-b7a1-4150-845d-130cb9163ec2; session_id_admin=10.34.7.44-b455aed9-2aee-4a70-9bd9-339b39b137c6; session_id_qualidade_ambiental=10.34.7.44-9551b7fa-43de-450b-99e9-f5afa2ea5146; session_id_designer=10.34.7.44-390170f7-cd6f-4938-8bf9-4b9a385cbc7c; wwwsqldesigner={locale:&#x27;pt_BR&#x27;,db:&#x27;mysql&#x27;,snap:&#x27;0&#x27;,pattern:&#x27;%R_%T&#x27;,hide:&#x27;&#x27;,vector:&#x27;1&#x27;,showsize:&#x27;&#x27;,showtype:&#x27;&#x27;}</div></td></tr><tr><td style="font-weight:bold;vertical-align:top;">http_dnt</td><td style="vertical-align:top;">:</td><td><div>1</div></td></tr><tr><td style="font-weight:bold;vertical-align:top;">http_host</td><td style="vertical-align:top;">:</td><td><div>10.34.7.37</div></td></tr><tr><td style="font-weight:bold;vertical-align:top;">http_referer</td><td style="vertical-align:top;">:</td><td><div>https://10.34.7.37/Qualidade_Ambiental/PontosApoio/grafico_por_residuo</div></td></tr><tr><td style="font-weight:bold;vertical-align:top;">http_user_agent</td><td style="vertical-align:top;">:</td><td><div>Mozilla/5.0 (Windows NT 10.0; Win64; x64; rv:67.0) Gecko/20100101 Firefox/67.0</div></td></tr><tr><td style="font-weight:bold;vertical-align:top;">https</td><td style="vertical-align:top;">:</td><td><div>on</div></td></tr><tr><td style="font-weight:bold;vertical-align:top;">is_jython</td><td style="vertical-align:top;">:</td><td><div>False</div></td></tr><tr><td style="font-weight:bold;vertical-align:top;">is_py2</td><td style="vertical-align:top;">:</td><td><div>True</div></td></tr><tr><td style="font-weight:bold;vertical-align:top;">is_pypy</td><td style="vertical-align:top;">:</td><td><div>False</div></td></tr><tr><td style="font-weight:bold;vertical-align:top;">is_source</td><td style="vertical-align:top;">:</td><td><div>True</div></td></tr><tr><td style="font-weight:bold;vertical-align:top;">local_hosts</td><td style="vertical-align:top;">:</td><td><div><table><tr><td><div>smmau-004-pc004</div></td></tr><tr><td><div>::1</div></td></tr><tr><td><div>::ffff:127.0.0.1</div></td></tr><tr><td><div>127.0.0.1</div></td></tr><tr><td><div>smmau-004-pc004.REDE-EMPRO.empro.com.br</div></td></tr></table></div></td></tr><tr><td style="font-weight:bold;vertical-align:top;">path_info</td><td style="vertical-align:top;">:</td><td><div>/Qualidade_Ambiental/plotdados/respontos.png</div></td></tr><tr><td style="font-weight:bold;vertical-align:top;">query_string</td><td style="vertical-align:top;">:</td><td><div></div></td></tr><tr><td style="font-weight:bold;vertical-align:top;">remote_addr</td><td style="vertical-align:top;">:</td><td><div>10.34.7.44</div></td></tr><tr><td style="font-weight:bold;vertical-align:top;">remote_port</td><td style="vertical-align:top;">:</td><td><div>62428</div></td></tr><tr><td style="font-weight:bold;vertical-align:top;">request_method</td><td style="vertical-align:top;">:</td><td><div>GET</div></td></tr><tr><td style="font-weight:bold;vertical-align:top;">request_scheme</td><td style="vertical-align:top;">:</td><td><div>https</div></td></tr><tr><td style="font-weight:bold;vertical-align:top;">request_uri</td><td style="vertical-align:top;">:</td><td><div>/Qualidade_Ambiental/plotdados/respontos.png</div></td></tr><tr><td style="font-weight:bold;vertical-align:top;">server_name</td><td style="vertical-align:top;">:</td><td><div>smmau-004-pc004</div></td></tr><tr><td style="font-weight:bold;vertical-align:top;">server_port</td><td style="vertical-align:top;">:</td><td><div>443</div></td></tr><tr><td style="font-weight:bold;vertical-align:top;">server_protocol</td><td style="vertical-align:top;">:</td><td><div>HTTP/1.1</div></td></tr><tr><td style="font-weight:bold;vertical-align:top;">server_software</td><td style="vertical-align:top;">:</td><td><div>nginx/1.14.0</div></td></tr><tr><td style="font-weight:bold;vertical-align:top;">uwsgi.node</td><td style="vertical-align:top;">:</td><td><div>smmau-004-pc004</div></td></tr><tr><td style="font-weight:bold;vertical-align:top;">uwsgi.version</td><td style="vertical-align:top;">:</td><td><div>2.0.18</div></td></tr><tr><td style="font-weight:bold;vertical-align:top;">uwsgi_node</td><td style="vertical-align:top;">:</td><td><div>smmau-004-pc004</div></td></tr><tr><td style="font-weight:bold;vertical-align:top;">uwsgi_scheme</td><td style="vertical-align:top;">:</td><td><div>https</div></td></tr><tr><td style="font-weight:bold;vertical-align:top;">uwsgi_version</td><td style="vertical-align:top;">:</td><td><div>2.0.18</div></td></tr><tr><td style="font-weight:bold;vertical-align:top;">web2py_path</td><td style="vertical-align:top;">:</td><td><div>/home/www-data/web2py</div></td></tr><tr><td style="font-weight:bold;vertical-align:top;">web2py_version</td><td style="vertical-align:top;">:</td><td><div>2.17.2-stable+timestamp.2018.10.06.18.54.02</div></td></tr><tr><td style="font-weight:bold;vertical-align:top;">wsgi.errors</td><td style="vertical-align:top;">:</td><td><div>&lt;open file &#x27;wsgi_errors&#x27;, mode &#x27;w&#x27; at 0x7f311696f270&gt;</div></td></tr><tr><td style="font-weight:bold;vertical-align:top;">wsgi.file_wrapper</td><td style="vertical-align:top;">:</td><td><div>&lt;built-in function uwsgi_sendfile&gt;</div></td></tr><tr><td style="font-weight:bold;vertical-align:top;">wsgi.input</td><td style="vertical-align:top;">:</td><td><div>&lt;uwsgi._Input object at 0x7f311d317ca8&gt;</div></td></tr><tr><td style="font-weight:bold;vertical-align:top;">wsgi.multiprocess</td><td style="vertical-align:top;">:</td><td><div>True</div></td></tr><tr><td style="font-weight:bold;vertical-align:top;">wsgi.multithread</td><td style="vertical-align:top;">:</td><td><div>False</div></td></tr><tr><td style="font-weight:bold;vertical-align:top;">wsgi.run_once</td><td style="vertical-align:top;">:</td><td><div>False</div></td></tr><tr><td style="font-weight:bold;vertical-align:top;">wsgi.url_scheme</td><td style="vertical-align:top;">:</td><td><div>https</div></td></tr><tr><td style="font-weight:bold;vertical-align:top;">wsgi.version</td><td style="vertical-align:top;">:</td><td><div><table><tr><td><div>1</div></td></tr><tr><td><div>0</div></td></tr></table></div></td></tr><tr><td style="font-weight:bold;vertical-align:top;">wsgi_errors</td><td style="vertical-align:top;">:</td><td><div>&lt;open file &#x27;wsgi_errors&#x27;, mode &#x27;w&#x27; at 0x7f311696f270&gt;</div></td></tr><tr><td style="font-weight:bold;vertical-align:top;">wsgi_file_wrapper</td><td style="vertical-align:top;">:</td><td><div>&lt;built-in function uwsgi_sendfile&gt;</div></td></tr><tr><td style="font-weight:bold;vertical-align:top;">wsgi_input</td><td style="vertical-align:top;">:</td><td><div>&lt;uwsgi._Input object at 0x7f311d317ca8&gt;</div></td></tr><tr><td style="font-weight:bold;vertical-align:top;">wsgi_multiprocess</td><td style="vertical-align:top;">:</td><td><div>True</div></td></tr><tr><td style="font-weight:bold;vertical-align:top;">wsgi_multithread</td><td style="vertical-align:top;">:</td><td><div>False</div></td></tr><tr><td style="font-weight:bold;vertical-align:top;">wsgi_run_once</td><td style="vertical-align:top;">:</td><td><div>False</div></td></tr><tr><td style="font-weight:bold;vertical-align:top;">wsgi_url_scheme</td><td style="vertical-align:top;">:</td><td><div>https</div></td></tr><tr><td style="font-weight:bold;vertical-align:top;">wsgi_version</td><td style="vertical-align:top;">:</td><td><div><table><tr><td><div>1</div></td></tr><tr><td><div>0</div></td></tr></table></div></td></tr></table></div></td></tr><tr><td style="font-weight:bold;vertical-align:top;">extension</td><td style="vertical-align:top;">:</td><td><div>png</div></td></tr><tr><td style="font-weight:bold;vertical-align:top;">folder</td><td style="vertical-align:top;">:</td><td><div>/home/www-data/web2py/applications/Qualidade_Ambiental/</div></td></tr><tr><td style="font-weight:bold;vertical-align:top;">function</td><td style="vertical-align:top;">:</td><td><div>respontos</div></td></tr><tr><td style="font-weight:bold;vertical-align:top;">global_settings</td><td style="vertical-align:top;">:</td><td><div><table><tr><td style="font-weight:bold;vertical-align:top;">app_folders</td><td style="vertical-align:top;">:</td><td><div>set([&#x27;/home/www-data/web2py/applications/Qualidade_Ambiental/&#x27;, &#x27;/home/www-data/web2py/applications/admin/&#x27;])</div></td></tr><tr><td style="font-weight:bold;vertical-align:top;">applications_parent</td><td style="vertical-align:top;">:</td><td><div>/home/www-data/web2py</div></td></tr><tr><td style="font-weight:bold;vertical-align:top;">db_sessions</td><td style="vertical-align:top;">:</td><td><div>set([])</div></td></tr><tr><td style="font-weight:bold;vertical-align:top;">debugging</td><td style="vertical-align:top;">:</td><td><div>False</div></td></tr><tr><td style="font-weight:bold;vertical-align:top;">gluon_parent</td><td style="vertical-align:top;">:</td><td><div>/home/www-data/web2py</div></td></tr><tr><td style="font-weight:bold;vertical-align:top;">is_jython</td><td style="vertical-align:top;">:</td><td><div>False</div></td></tr><tr><td style="font-weight:bold;vertical-align:top;">is_py2</td><td style="vertical-align:top;">:</td><td><div>True</div></td></tr><tr><td style="font-weight:bold;vertical-align:top;">is_pypy</td><td style="vertical-align:top;">:</td><td><div>False</div></td></tr><tr><td style="font-weight:bold;vertical-align:top;">is_source</td><td style="vertical-align:top;">:</td><td><div>True</div></td></tr><tr><td style="font-weight:bold;vertical-align:top;">local_hosts</td><td style="vertical-align:top;">:</td><td><div><table><tr><td><div>smmau-004-pc004</div></td></tr><tr><td><div>::1</div></td></tr><tr><td><div>::ffff:127.0.0.1</div></td></tr><tr><td><div>127.0.0.1</div></td></tr><tr><td><div>smmau-004-pc004.REDE-EMPRO.empro.com.br</div></td></tr></table></div></td></tr><tr><td style="font-weight:bold;vertical-align:top;">web2py_version</td><td style="vertical-align:top;">:</td><td><div>2.17.2-stable+timestamp.2018.10.06.18.54.02</div></td></tr></table></div></td></tr><tr><td style="font-weight:bold;vertical-align:top;">is_https</td><td style="vertical-align:top;">:</td><td><div>True</div></td></tr><tr><td style="font-weight:bold;vertical-align:top;">is_local</td><td style="vertical-align:top;">:</td><td><div>False</div></td></tr><tr><td style="font-weight:bold;vertical-align:top;">is_restful</td><td style="vertical-align:top;">:</td><td><div>False</div></td></tr><tr><td style="font-weight:bold;vertical-align:top;">is_scheduler</td><td style="vertical-align:top;">:</td><td><div>False</div></td></tr><tr><td style="font-weight:bold;vertical-align:top;">is_shell</td><td style="vertical-align:top;">:</td><td><div>False</div></td></tr><tr><td style="font-weight:bold;vertical-align:top;">method</td><td style="vertical-align:top;">:</td><td><div>GET</div></td></tr><tr><td style="font-weight:bold;vertical-align:top;">now</td><td style="vertical-align:top;">:</td><td><div>datetime.datetime(2019, 12, 13, 15, 3, 16, 961064)</div></td></tr><tr><td style="font-weight:bold;vertical-align:top;">raw_args</td><td style="vertical-align:top;">:</td><td><div></div></td></tr><tr><td style="font-weight:bold;vertical-align:top;">raw_extension</td><td style="vertical-align:top;">:</td><td><div>png</div></td></tr><tr><td style="font-weight:bold;vertical-align:top;">url</td><td style="vertical-align:top;">:</td><td><div>/Qualidade_Ambiental/plotdados/respontos.png</div></td></tr><tr><td style="font-weight:bold;vertical-align:top;">utcnow</td><td style="vertical-align:top;">:</td><td><div>datetime.datetime(2019, 12, 13, 18, 3, 16, 961084)</div></td></tr><tr><td style="font-weight:bold;vertical-align:top;">wsgi</td><td style="vertical-align:top;">:</td><td><div>&lt;gluon.main.LazyWSGI object at 0x7f310bd45e50&gt;</div></td></tr></table></div>'
tRp60
sS'frames'
p61
(lp62
(dp63
S'file'
p64
S'/home/www-data/web2py/gluon/restricted.py'
p65
sS'dump'
p66
(dp67
S'environment'
p68
S"{'A': <class 'gluon.html.A'>, 'ANY_OF': <class 'gluon.validators.ANY_OF'>, 'ASSIGNJS': <function ASSIGNJS>, 'Affine2D': <class 'matplotlib.transforms.Affine2D'>, 'AppConfig': <function AppConfig>, 'Artist': <class 'matplotlib.artist.Artist'>, 'Auth': <class 'gluon.tools.Auth'>, 'Axes': <class 'matplotlib.axes._axes.Axes'>, 'AxesStack': <class 'matplotlib.figure.AxesStack'>, 'B': <class 'gluon.html.B'>, ...}"
p69
sS'ccode'
p70
S'<code object <module> at 0x7f310ba4af30, file "/...ade_Ambiental/controllers/plotdados.py", line 26>'
p71
ssS'lnum'
p72
I219
sS'lines'
p73
(dp74
I214
S'    if environment is None:'
p75
sI215
S'        environment = {}'
p76
sI216
S"    environment['__file__'] = layer"
p77
sI217
S"    environment['__name__'] = '__restricted__'"
p78
sI218
S'    try:'
p79
sI219
S'        exec(ccode, environment)'
p80
sI220
S'    except HTTP:'
p81
sI221
S'        raise'
p82
sI222
S'    except RestrictedError:'
p83
sI223
S'        # do not encapsulate (obfuscate) the original RestrictedError'
p84
ssS'call'
p85
S'(ccode=<code object <module> at 0x7f310ba4af30, file "/...ade_Ambiental/controllers/plotdados.py", line 26>, environment={\'A\': <class \'gluon.html.A\'>, \'ANY_OF\': <class \'gluon.validators.ANY_OF\'>, \'ASSIGNJS\': <function ASSIGNJS>, \'Affine2D\': <class \'matplotlib.transforms.Affine2D\'>, \'AppConfig\': <function AppConfig>, \'Artist\': <class \'matplotlib.artist.Artist\'>, \'Auth\': <class \'gluon.tools.Auth\'>, \'Axes\': <class \'matplotlib.axes._axes.Axes\'>, \'AxesStack\': <class \'matplotlib.figure.AxesStack\'>, \'B\': <class \'gluon.html.B\'>, ...}, layer=\'/home/www-data/web2py/applications/Qualidade_Ambiental/controllers/plotdados.py\', scode=<code object <module> at 0x7f310ba4af30, file "/...ade_Ambiental/controllers/plotdados.py", line 26>)'
p86
sS'func'
p87
S'restricted'
p88
sa(dp89
g64
S'/home/www-data/web2py/applications/Qualidade_Ambiental/controllers/plotdados.py'
p90
sg66
(dp91
sg72
I122
sg73
(dp92
I112
S'\tfor i in query:'
p93
sI113
S"\t\tx.append(i['Atividade'].replace('Ponto de Apoio - ','')) #.encode('utf-8'))"
p94
sI114
S'\t\tfor k,v in i.items():'
p95
sI115
S"\t\t\tif k != 'Atividade':"
p96
sI116
S'\t\t\t\tif v != None:'
p97
sI117
S'\t\t\t\t\ty.append(v)'
p98
sI118
S'\tfor i in zip(x,y):'
p99
sI119
S'\t\tlxy.append(i)'
p100
sI120
S'\tlegendgrau = 340'
p101
sI121
S"\treturn plot( title=title, xlab=xlab, ylab=ylab,  mode='bar', data={u'Volume por P.A.': lxy}, legendgrau=legendgrau)"
p102
ssg85
S'()'
p103
sg87
S'<module>'
p104
sa(dp105
g64
S'/home/www-data/web2py/gluon/globals.py'
p106
sg66
(dp107
S'self'
p108
S'undefined'
p109
sS'f'
S'<function respontos>'
p110
ssg72
I421
sg73
(dp111
I416
S"        self.flash = ''            # used by the default view layout"
p112
sI417
S'        self.meta = Storage()      # used by web2py_ajax.html'
p113
sI418
S'        self.menu = []             # used by the default view layout'
p114
sI419
S'        self.files = []            # used by web2py_ajax.html'
p115
sI420
S'        self._vars = None'
p116
sI421
S'        self._caller = lambda f: f()'
p117
sI422
S'        self._view_environment = None'
p118
sI423
S'        self._custom_commit = None'
p119
sI424
S'        self._custom_rollback = None'
p120
sI425
S"        self.generic_patterns = ['*']"
p121
ssg85
S'(f=<function respontos>)'
p122
sg87
S'<lambda>'
p123
sa(dp124
g64
S'/home/www-data/web2py/applications/Qualidade_Ambiental/controllers/plotdados.py'
p125
sg66
(dp126
S'xlab'
p127
S"u'Pontos de Apoio'"
p128
sS'title'
p129
S"u'Volume de None nos Pontos de Apoio.'"
p130
sS'legendgrau'
p131
S'340'
p132
sS'global plot'
p133
S'<function plot>'
p134
sS'lxy'
p135
S'[]'
p136
sS'mode'
p137
g109
sS'ylab'
p138
S"u'Vol. em metros c\\xfabicos (m3)'"
p139
sS'data'
p140
g109
ssg72
I121
sg73
(dp141
I112
S'\tfor i in query:'
p142
sI113
S"\t\tx.append(i['Atividade'].replace('Ponto de Apoio - ','')) #.encode('utf-8'))"
p143
sI114
S'\t\tfor k,v in i.items():'
p144
sI115
S"\t\t\tif k != 'Atividade':"
p145
sI116
S'\t\t\t\tif v != None:'
p146
sI117
S'\t\t\t\t\ty.append(v)'
p147
sI118
S'\tfor i in zip(x,y):'
p148
sI119
S'\t\tlxy.append(i)'
p149
sI120
S'\tlegendgrau = 340'
p150
sI121
S"\treturn plot( title=title, xlab=xlab, ylab=ylab,  mode='bar', data={u'Volume por P.A.': lxy}, legendgrau=legendgrau)"
p151
ssg85
S'()'
p152
sg87
S'respontos'
p153
sa(dp154
g64
S'/home/www-data/web2py/applications/Qualidade_Ambiental/modules/plotador.py'
p155
sg66
(dp156
S'y'
S"u'Volume por P.A.'"
p157
sS'ax'
p158
S'<matplotlib.axes._subplots.AxesSubplot object>'
p159
sS'legend'
p160
S"[(<Container object of 0 artists>, u'Volume por P.A.')]"
p161
sS'ax.legend'
p162
S'<bound method AxesSubplot.legend of <matplotlib.axes._subplots.AxesSubplot object>>'
p163
sS'x'
S'<Container object of 0 artists>'
p164
ssg72
I58
sg73
(dp165
I53
S'            ell = ax.plot(x, y)'
p166
sI54
S'            legend.append((ell,key))'
p167
sI55
S'        else:'
p168
sI56
S'            ell = ax.hist(y,35)'
p169
sI57
S'    if legend:'
p170
sI58
S'        ax.legend([x for (x,y) in legend], [y for (x,y) in legend])'
p171
sI59
S'    ax.tick_params(labelrotation=legendgrau,width=0.4, length=2   , labelsize=9)'
p172
sI60
S"    ax.grid(color='#95a5a6', linestyle='--', linewidth=1, axis='y', alpha=0.6)"
p173
sI61
S'    canvas=FigureCanvas(fig)'
p174
sI62
S'    stream= BytesIO()'
p175
ssg85
S"(title=u'Volume de None nos Pontos de Apoio.', xlab=u'Pontos de Apoio', ylab=u'Vol. em metros c\\xfabicos (m3)', mode='bar', data={u'Volume por P.A.': []}, legendgrau=340)"
p176
sg87
S'plot'
p177
sa(dp178
g64
S'/usr/lib/python2.7/dist-packages/matplotlib/axes/_axes.py'
p179
sg66
(dp180
S'self'
p181
S'<matplotlib.axes._subplots.AxesSubplot object>'
p182
sS'labels'
p183
S"[u'Volume por P.A.']"
p184
sS'mlegend.Legend'
p185
S"<class 'matplotlib.legend.Legend'>"
p186
sS'handles'
p187
S'[<Container object of 0 artists>]'
p188
sS'kwargs'
p189
g19
sS'global mlegend'
p190
S"<module 'matplotlib.legend' from '/usr/lib/python2.7/dist-packages/matplotlib/legend.pyc'>"
p191
sS'self.legend_'
p192
S'None'
p193
ssg72
I500
sg73
(dp194
I495
S'                [self],'
p195
sI496
S'                *args,'
p196
sI497
S'                **kwargs)'
p197
sI498
S'        if len(extra_args):'
p198
sI499
S"            raise TypeError('legend only accepts two non-keyword arguments')"
p199
sI500
S'        self.legend_ = mlegend.Legend(self, handles, labels, **kwargs)'
p200
sI501
S"        self.legend_._remove_method = lambda h: setattr(self, 'legend_', None)"
p201
sI502
S'        return self.legend_'
p202
sI503
S''
sI504
S'    def text(self, x, y, s, fontdict=None, withdash=False, **kwargs):'
p203
ssg85
S"(self=<matplotlib.axes._subplots.AxesSubplot object>, *args=([<Container object of 0 artists>], [u'Volume por P.A.']), **kwargs={})"
p204
sg87
S'legend'
p205
sa(dp206
g64
S'/usr/lib/python2.7/dist-packages/matplotlib/legend.py'
p207
sg66
(dp208
S'self._init_legend_box'
p209
S'<bound method Legend._init_legend_box of <matplotlib.legend.Legend object>>'
p210
sS'self'
p211
S'<matplotlib.legend.Legend object>'
p212
sS'labels'
p213
S"[u'Volume por P.A.']"
p214
sS'handles'
p215
S'[<Container object of 0 artists>]'
p216
sS'markerfirst'
p217
S'True'
p218
ssg72
I693
sg73
(dp219
I688
S'        self._drawFrame = frameon'
p220
sI689
S'        if frameon is None:'
p221
sI690
S'            self._drawFrame = rcParams["legend.frameon"]'
p222
sI691
S''
sI692
S'        # init with null renderer'
p223
sI693
S'        self._init_legend_box(handles, labels, markerfirst)'
p224
sI694
S''
sI695
S'        # If shadow is activated use framealpha if not'
p225
sI696
S'        # explicitly passed. See Issue 8943'
p226
sI697
S'        if framealpha is None:'
p227
ssg85
S"(self=<matplotlib.legend.Legend object>, parent=<matplotlib.axes._subplots.AxesSubplot object>, handles=[<Container object of 0 artists>], labels=[u'Volume por P.A.'], loc=0, numpoints=None, markerscale=None, markerfirst=True, scatterpoints=None, scatteryoffsets=None, prop=None, fontsize=None, borderpad=None, labelspacing=None, handlelength=None, handleheight=None, handletextpad=None, borderaxespad=None, columnspacing=None, ncol=1, mode=None, fancybox=True, shadow=None, title=None, framealpha=None, edgecolor=u'0.8', facecolor=u'w', bbox_to_anchor=None, bbox_transform=None, frameon=None, handler_map=None)"
p228
sg87
g24
sa(dp229
g64
S'/usr/lib/python2.7/dist-packages/matplotlib/legend.py'
p230
sg66
(dp231
S'handlebox'
p232
S'<matplotlib.offsetbox.DrawingArea object>'
p233
sS'fontsize'
p234
S'10.0'
p235
ssg72
I953
sg73
(dp236
I948
S'                handleboxes.append(handlebox)'
p237
sI949
S''
sI950
S'                # Create the artist for the legend which represents the'
p238
sI951
S'                # original artist/handle.'
p239
sI952
S'                handle_list.append(handler.legend_artist(self, orig_handle,'
p240
sI953
S'                                                         fontsize, handlebox))'
p241
sI954
S''
sI955
S'        if handleboxes:'
p242
sI956
S'            # We calculate number of rows in each column. The first'
p243
sI957
S'            # (num_largecol) columns will have (nrows+1) rows, and remaining'
p244
ssg85
S"(self=<matplotlib.legend.Legend object>, handles=[<Container object of 0 artists>], labels=[u'Volume por P.A.'], markerfirst=True)"
p245
sg87
S'_init_legend_box'
p246
sa(dp247
g64
S'/usr/lib/python2.7/dist-packages/matplotlib/legend_handler.py'
p248
sg66
(dp249
S'handlebox'
p250
S'<matplotlib.offsetbox.DrawingArea object>'
p251
sS'handlebox.get_transform'
p252
S'<bound method DrawingArea.get_transform of <matplotlib.offsetbox.DrawingArea object>>'
p253
sS'fontsize'
p254
S'10.0'
p255
ssg72
I120
sg73
(dp256
I115
S'                 handlebox.xdescent, handlebox.ydescent,'
p257
sI116
S'                 handlebox.width, handlebox.height,'
p258
sI117
S'                 fontsize)'
p259
sI118
S'        artists = self.create_artists(legend, orig_handle,'
p260
sI119
S'                                      xdescent, ydescent, width, height,'
p261
sI120
S'                                      fontsize, handlebox.get_transform())'
p262
sI121
S''
sI122
S'        # create_artists will return a list of artists.'
p263
sI123
S'        for a in artists:'
p264
sI124
S'            handlebox.add_artist(a)'
p265
ssg85
S'(self=<matplotlib.legend_handler.HandlerPatch object>, legend=<matplotlib.legend.Legend object>, orig_handle=<Container object of 0 artists>, fontsize=10.0, handlebox=<matplotlib.offsetbox.DrawingArea object>)'
p266
sg87
S'legend_artist'
p267
sa(dp268
g64
S'/usr/lib/python2.7/dist-packages/matplotlib/legend_handler.py'
p269
sg66
(dp270
S'p'
S'<matplotlib.patches.Rectangle object>'
p271
sS'self'
p272
S'<matplotlib.legend_handler.HandlerPatch object>'
p273
sS'legend'
p274
S'<matplotlib.legend.Legend object>'
p275
sS'self.update_prop'
p276
S'<bound method HandlerPatch.update_prop of <matplotlib.legend_handler.HandlerPatch object>>'
p277
sS'orig_handle'
p278
S'<Container object of 0 artists>'
p279
ssg72
I252
sg73
(dp280
I256
S''
sI247
S''
sI248
S'    def create_artists(self, legend, orig_handle,'
p281
sI249
S'                       xdescent, ydescent, width, height, fontsize, trans):'
p282
sI250
S'        p = self._create_patch(legend, orig_handle,'
p283
sI251
S'                               xdescent, ydescent, width, height, fontsize)'
p284
sI252
S'        self.update_prop(p, orig_handle, legend)'
p285
sI253
S'        p.set_transform(trans)'
p286
sI254
S'        return [p]'
p287
sI255
S''
ssg85
S'(self=<matplotlib.legend_handler.HandlerPatch object>, legend=<matplotlib.legend.Legend object>, orig_handle=<Container object of 0 artists>, xdescent=0.0, ydescent=0.0, width=20.0, height=7.0, fontsize=10.0, trans=CompositeAffine2D(Affine2D(array([[ 1.,  0.,  0....      [ 0.,  1.,  0.],\n       [ 0.,  0.,  1.]]))))'
p288
sg87
S'create_artists'
p289
sa(dp290
g64
S'/usr/lib/python2.7/dist-packages/matplotlib/legend_handler.py'
p291
sg66
(dp292
S'self._update_prop'
p293
S'<bound method HandlerPatch._update_prop of <matplotlib.legend_handler.HandlerPatch object>>'
p294
sS'self'
p295
S'<matplotlib.legend_handler.HandlerPatch object>'
p296
sS'orig_handle'
p297
S'<Container object of 0 artists>'
p298
sS'legend_handle'
p299
S'<matplotlib.patches.Rectangle object>'
p300
ssg72
I77
sg73
(dp301
I72
S'    def _default_update_prop(self, legend_handle, orig_handle):'
p302
sI73
S'        legend_handle.update_from(orig_handle)'
p303
sI74
S''
sI75
S'    def update_prop(self, legend_handle, orig_handle, legend):'
p304
sI76
S''
sI77
S'        self._update_prop(legend_handle, orig_handle)'
p305
sI78
S''
sI79
S'        legend._set_artist_props(legend_handle)'
p306
sI80
S'        legend_handle.set_clip_box(None)'
p307
sI81
S'        legend_handle.set_clip_path(None)'
p308
ssg85
S'(self=<matplotlib.legend_handler.HandlerPatch object>, legend_handle=<matplotlib.patches.Rectangle object>, orig_handle=<Container object of 0 artists>, legend=<matplotlib.legend.Legend object>)'
p309
sg87
S'update_prop'
p310
sa(dp311
g64
S'/usr/lib/python2.7/dist-packages/matplotlib/legend_handler.py'
p312
sg66
(dp313
S'legend_handle'
p314
S'<matplotlib.patches.Rectangle object>'
p315
sS'self'
p316
S'<matplotlib.legend_handler.HandlerPatch object>'
p317
sS'self._update_prop_func'
p318
S'<function update_from_first_child>'
p319
sS'orig_handle'
p320
S'<Container object of 0 artists>'
p321
ssg72
I70
sg73
(dp322
I65
S''
sI66
S'    def _update_prop(self, legend_handle, orig_handle):'
p323
sI67
S'        if self._update_prop_func is None:'
p324
sI68
S'            self._default_update_prop(legend_handle, orig_handle)'
p325
sI69
S'        else:'
p326
sI70
S'            self._update_prop_func(legend_handle, orig_handle)'
p327
sI71
S''
sI72
S'    def _default_update_prop(self, legend_handle, orig_handle):'
p328
sI73
S'        legend_handle.update_from(orig_handle)'
p329
sI74
S''
ssg85
S'(self=<matplotlib.legend_handler.HandlerPatch object>, legend_handle=<matplotlib.patches.Rectangle object>, orig_handle=<Container object of 0 artists>)'
p330
sg87
S'_update_prop'
p331
sa(dp332
g64
S'/usr/lib/python2.7/dist-packages/matplotlib/legend_handler.py'
p333
sg66
(dp334
S'src'
p335
S'<Container object of 0 artists>'
p336
sS'src.get_children'
p337
S'<bound method BarContainer.get_children of <Container object of 0 artists>>'
p338
sS'tgt.update_from'
p339
S'<bound method Rectangle.update_from of <matplotlib.patches.Rectangle object>>'
p340
sS'tgt'
p341
S'<matplotlib.patches.Rectangle object>'
p342
ssg72
I43
sg73
(dp343
I38
S'import matplotlib.collections as mcoll'
p344
sI39
S'import matplotlib.colors as mcolors'
p345
sI40
S''
sI41
S''
sI42
S'def update_from_first_child(tgt, src):'
p346
sI43
S'    tgt.update_from(src.get_children()[0])'
p347
sI44
S''
sI45
S''
sI46
S'class HandlerBase(object):'
p348
sI47
S'    """'
p349
ssg85
S'(tgt=<matplotlib.patches.Rectangle object>, src=<Container object of 0 artists>)'
p350
sg87
S'update_from_first_child'
p351
sasS'pyver'
p352
S'Python 2.7.15+: /usr/local/bin/uwsgi (prefix: /usr)'
p353
sS'session'
p354
g59
(S's\xd2\x01\x00\x00<div><table><tr><td style="font-weight:bold;vertical-align:top;">Placa</td><td style="vertical-align:top;">:</td><td><div>None</div></td></tr><tr><td style="font-weight:bold;vertical-align:top;">last_orderby</td><td style="vertical-align:top;">:</td><td><div>None</div></td></tr><tr><td style="font-weight:bold;vertical-align:top;">last_query</td><td style="vertical-align:top;">:</td><td><div>db.EntradaPonto.Placa==&#x27;EYQ1665&#x27;</div></td></tr></table></div>'
tRp355
sS'etype'
p356
S"<type 'exceptions.IndexError'>"
p357
sS'date'
p358
S'Fri Dec 13 15:03:19 2019'
p359
sS'response'
p360
g59
(S'sI@\x00\x00<div><table><tr><td style="font-weight:bold;vertical-align:top;">body</td><td style="vertical-align:top;">:</td><td><div>&lt;cStringIO.StringO object at 0x7f310b81d3e8&gt;</div></td></tr><tr><td style="font-weight:bold;vertical-align:top;">cookies</td><td style="vertical-align:top;">:</td><td><div><table><tr><td style="font-weight:bold;vertical-align:top;">session_id_qualidade_ambiental</td><td style="vertical-align:top;">:</td><td><div>10.34.7.44-9551b7fa-43de-450b-99e9-f5afa2ea5146<table><tr><td style="font-weight:bold;vertical-align:top;">comment</td><td style="vertical-align:top;">:</td><td><div></div></td></tr><tr><td style="font-weight:bold;vertical-align:top;">domain</td><td style="vertical-align:top;">:</td><td><div></div></td></tr><tr><td style="font-weight:bold;vertical-align:top;">expires</td><td style="vertical-align:top;">:</td><td><div></div></td></tr><tr><td style="font-weight:bold;vertical-align:top;">httponly</td><td style="vertical-align:top;">:</td><td><div></div></td></tr><tr><td style="font-weight:bold;vertical-align:top;">max-age</td><td style="vertical-align:top;">:</td><td><div></div></td></tr><tr><td style="font-weight:bold;vertical-align:top;">path</td><td style="vertical-align:top;">:</td><td><div>/</div></td></tr><tr><td style="font-weight:bold;vertical-align:top;">samesite</td><td style="vertical-align:top;">:</td><td><div></div></td></tr><tr><td style="font-weight:bold;vertical-align:top;">secure</td><td style="vertical-align:top;">:</td><td><div></div></td></tr><tr><td style="font-weight:bold;vertical-align:top;">version</td><td style="vertical-align:top;">:</td><td><div></div></td></tr></table></div></td></tr></table></div></td></tr><tr><td style="font-weight:bold;vertical-align:top;">delimiters</td><td style="vertical-align:top;">:</td><td><div><table><tr><td><div>{{</div></td></tr><tr><td><div>}}</div></td></tr></table></div></td></tr><tr><td style="font-weight:bold;vertical-align:top;">files</td><td style="vertical-align:top;">:</td><td><div><table></table></div></td></tr><tr><td style="font-weight:bold;vertical-align:top;">flash</td><td style="vertical-align:top;">:</td><td><div></div></td></tr><tr><td style="font-weight:bold;vertical-align:top;">form_label_separator</td><td style="vertical-align:top;">:</td><td><div></div></td></tr><tr><td style="font-weight:bold;vertical-align:top;">formstyle</td><td style="vertical-align:top;">:</td><td><div>bootstrap4_inline</div></td></tr><tr><td style="font-weight:bold;vertical-align:top;">generic_patterns</td><td style="vertical-align:top;">:</td><td><div><table></table></div></td></tr><tr><td style="font-weight:bold;vertical-align:top;">google_analytics_id</td><td style="vertical-align:top;">:</td><td><div>None</div></td></tr><tr><td style="font-weight:bold;vertical-align:top;">headers</td><td style="vertical-align:top;">:</td><td><div><table><tr><td style="font-weight:bold;vertical-align:top;">Content-Type</td><td style="vertical-align:top;">:</td><td><div>image/png</div></td></tr><tr><td style="font-weight:bold;vertical-align:top;">X-Powered-By</td><td style="vertical-align:top;">:</td><td><div>web2py</div></td></tr></table></div></td></tr><tr><td style="font-weight:bold;vertical-align:top;">menu</td><td style="vertical-align:top;">:</td><td><div><table><tr><td><div><table><tr><td><div>Principal</div></td></tr><tr><td><div>False</div></td></tr><tr><td><div>/Qualidade_Ambiental/default/index.png</div></td></tr><tr><td><div><table></table></div></td></tr></table></div></td></tr><tr><td><div><table><tr><td><div>Meus sites</div></td></tr><tr><td><div>False</div></td></tr><tr><td><div>/admin/default/site.png</div></td></tr></table></div></td></tr><tr><td><div><table><tr><td><div>Esta aplica\xc3\xa7\xc3\xa3o</div></td></tr><tr><td><div>False</div></td></tr><tr><td><div>#</div></td></tr><tr><td><div><table><tr><td><div><table><tr><td><div>Design</div></td></tr><tr><td><div>False</div></td></tr><tr><td><div>/admin/default/design.png/Qualidade_Ambiental</div></td></tr></table></div></td></tr><tr><td><div><table><tr><td><div>Controlador</div></td></tr><tr><td><div>False</div></td></tr><tr><td><div>/admin/default/edit.png/Qualidade_Ambiental/controllers/plotdados.py</div></td></tr></table></div></td></tr><tr><td><div><table><tr><td><div>Visualiza\xc3\xa7\xc3\xa3o</div></td></tr><tr><td><div>False</div></td></tr><tr><td><div>/admin/default/edit.png/Qualidade_Ambiental/views/plotdados/respontos.png</div></td></tr></table></div></td></tr><tr><td><div><table><tr><td><div>Modelo BD</div></td></tr><tr><td><div>False</div></td></tr><tr><td><div>/admin/default/edit.png/Qualidade_Ambiental/models/db.py</div></td></tr></table></div></td></tr><tr><td><div><table><tr><td><div>Modelo de Menu</div></td></tr><tr><td><div>False</div></td></tr><tr><td><div>/admin/default/edit.png/Qualidade_Ambiental/models/menu.py</div></td></tr></table></div></td></tr><tr><td><div><table><tr><td><div>Config.ini</div></td></tr><tr><td><div>False</div></td></tr><tr><td><div>/admin/default/edit.png/Qualidade_Ambiental/private/appconfig.ini</div></td></tr></table></div></td></tr><tr><td><div><table><tr><td><div>Layout</div></td></tr><tr><td><div>False</div></td></tr><tr><td><div>/admin/default/edit.png/Qualidade_Ambiental/views/layout.html</div></td></tr></table></div></td></tr><tr><td><div><table><tr><td><div>Folha de estilo</div></td></tr><tr><td><div>False</div></td></tr><tr><td><div>/admin/default/edit.png/Qualidade_Ambiental/static/css/web2py-bootstrap3.css</div></td></tr></table></div></td></tr><tr><td><div><table><tr><td><div>banco de dados</div></td></tr><tr><td><div>False</div></td></tr><tr><td><div>/Qualidade_Ambiental/appadmin/index.png</div></td></tr></table></div></td></tr><tr><td><div><table><tr><td><div>Erros</div></td></tr><tr><td><div>False</div></td></tr><tr><td><div>/admin/default/errors.png/Qualidade_Ambiental</div></td></tr></table></div></td></tr><tr><td><div><table><tr><td><div>Sobre</div></td></tr><tr><td><div>False</div></td></tr><tr><td><div>/admin/default/about.png/Qualidade_Ambiental</div></td></tr></table></div></td></tr></table></div></td></tr></table></div></td></tr><tr><td><div><table><tr><td><div>web2py.com</div></td></tr><tr><td><div>False</div></td></tr><tr><td><div>#</div></td></tr><tr><td><div><table><tr><td><div><table><tr><td><div>Download</div></td></tr><tr><td><div>False</div></td></tr><tr><td><div>http://www.web2py.com/examples/default/download</div></td></tr></table></div></td></tr><tr><td><div><table><tr><td><div>Suporte</div></td></tr><tr><td><div>False</div></td></tr><tr><td><div>http://www.web2py.com/examples/default/support</div></td></tr></table></div></td></tr><tr><td><div><table><tr><td><div>Demo</div></td></tr><tr><td><div>False</div></td></tr><tr><td><div>http://web2py.com/demo_admin</div></td></tr></table></div></td></tr><tr><td><div><table><tr><td><div>Exemplos r\xc3\xa1pidos</div></td></tr><tr><td><div>False</div></td></tr><tr><td><div>http://web2py.com/examples/default/examples</div></td></tr></table></div></td></tr><tr><td><div><table><tr><td><div>Perguntas frequentes</div></td></tr><tr><td><div>False</div></td></tr><tr><td><div>http://web2py.com/AlterEgo</div></td></tr></table></div></td></tr><tr><td><div><table><tr><td><div>V\xc3\xaddeos</div></td></tr><tr><td><div>False</div></td></tr><tr><td><div>http://www.web2py.com/examples/default/videos/</div></td></tr></table></div></td></tr><tr><td><div><table><tr><td><div>Aplica\xc3\xa7\xc3\xb5es gratuitas</div></td></tr><tr><td><div>False</div></td></tr><tr><td><div>http://web2py.com/appliances</div></td></tr></table></div></td></tr><tr><td><div><table><tr><td><div>Plugins</div></td></tr><tr><td><div>False</div></td></tr><tr><td><div>http://web2py.com/plugins</div></td></tr></table></div></td></tr><tr><td><div><table><tr><td><div>Receitas</div></td></tr><tr><td><div>False</div></td></tr><tr><td><div>http://web2pyslices.com/</div></td></tr></table></div></td></tr></table></div></td></tr></table></div></td></tr><tr><td><div><table><tr><td><div>Documenta\xc3\xa7\xc3\xa3o</div></td></tr><tr><td><div>False</div></td></tr><tr><td><div>#</div></td></tr><tr><td><div><table><tr><td><div><table><tr><td><div>Online book</div></td></tr><tr><td><div>False</div></td></tr><tr><td><div>http://www.web2py.com/book</div></td></tr></table></div></td></tr><tr><td><div><table><tr><td><div>Pref\xc3\xa1cio</div></td></tr><tr><td><div>False</div></td></tr><tr><td><div>http://www.web2py.com/book/default/chapter/00</div></td></tr></table></div></td></tr><tr><td><div><table><tr><td><div>Introdu\xc3\xa7\xc3\xa3o</div></td></tr><tr><td><div>False</div></td></tr><tr><td><div>http://www.web2py.com/book/default/chapter/01</div></td></tr></table></div></td></tr><tr><td><div><table><tr><td><div>Python</div></td></tr><tr><td><div>False</div></td></tr><tr><td><div>http://www.web2py.com/book/default/chapter/02</div></td></tr></table></div></td></tr><tr><td><div><table><tr><td><div>Vis\xc3\xa3o Geral</div></td></tr><tr><td><div>False</div></td></tr><tr><td><div>http://www.web2py.com/book/default/chapter/03</div></td></tr></table></div></td></tr><tr><td><div><table><tr><td><div>The Core</div></td></tr><tr><td><div>False</div></td></tr><tr><td><div>http://www.web2py.com/book/default/chapter/04</div></td></tr></table></div></td></tr><tr><td><div><table><tr><td><div>As views</div></td></tr><tr><td><div>False</div></td></tr><tr><td><div>http://www.web2py.com/book/default/chapter/05</div></td></tr></table></div></td></tr><tr><td><div><table><tr><td><div>banco de dados</div></td></tr><tr><td><div>False</div></td></tr><tr><td><div>http://www.web2py.com/book/default/chapter/06</div></td></tr></table></div></td></tr><tr><td><div><table><tr><td><div>Formul\xc3\xa1rios e Validadores</div></td></tr><tr><td><div>False</div></td></tr><tr><td><div>http://www.web2py.com/book/default/chapter/07</div></td></tr></table></div></td></tr><tr><td><div><table><tr><td><div>Email e SMS</div></td></tr><tr><td><div>False</div></td></tr><tr><td><div>http://www.web2py.com/book/default/chapter/08</div></td></tr></table></div></td></tr><tr><td><div><table><tr><td><div>Controle de Acesso</div></td></tr><tr><td><div>False</div></td></tr><tr><td><div>http://www.web2py.com/book/default/chapter/09</div></td></tr></table></div></td></tr><tr><td><div><table><tr><td><div>Servi\xc3\xa7o</div></td></tr><tr><td><div>False</div></td></tr><tr><td><div>http://www.web2py.com/book/default/chapter/10</div></td></tr></table></div></td></tr><tr><td><div><table><tr><td><div>Receitas de Ajax</div></td></tr><tr><td><div>False</div></td></tr><tr><td><div>http://www.web2py.com/book/default/chapter/11</div></td></tr></table></div></td></tr><tr><td><div><table><tr><td><div>Componentes e Plugins</div></td></tr><tr><td><div>False</div></td></tr><tr><td><div>http://www.web2py.com/book/default/chapter/12</div></td></tr></table></div></td></tr><tr><td><div><table><tr><td><div>Receitas de deploy</div></td></tr><tr><td><div>False</div></td></tr><tr><td><div>http://www.web2py.com/book/default/chapter/13</div></td></tr></table></div></td></tr><tr><td><div><table><tr><td><div>Outras Receitas</div></td></tr><tr><td><div>False</div></td></tr><tr><td><div>http://www.web2py.com/book/default/chapter/14</div></td></tr></table></div></td></tr><tr><td><div><table><tr><td><div>Helping web2py</div></td></tr><tr><td><div>False</div></td></tr><tr><td><div>http://www.web2py.com/book/default/chapter/15</div></td></tr></table></div></td></tr><tr><td><div><table><tr><td><div>Compre o livro do web2py</div></td></tr><tr><td><div>False</div></td></tr><tr><td><div>http://stores.lulu.com/web2py</div></td></tr></table></div></td></tr></table></div></td></tr></table></div></td></tr><tr><td><div><table><tr><td><div>Comunidade</div></td></tr><tr><td><div>False</div></td></tr><tr><td><div>None</div></td></tr><tr><td><div><table><tr><td><div><table><tr><td><div>Grupos</div></td></tr><tr><td><div>False</div></td></tr><tr><td><div>http://www.web2py.com/examples/default/usergroups</div></td></tr></table></div></td></tr><tr><td><div><table><tr><td><div>Twitter</div></td></tr><tr><td><div>False</div></td></tr><tr><td><div>http://twitter.com/web2py</div></td></tr></table></div></td></tr><tr><td><div><table><tr><td><div>Chat ao vivo</div></td></tr><tr><td><div>False</div></td></tr><tr><td><div>http://webchat.freenode.net/?channels=web2py</div></td></tr></table></div></td></tr></table></div></td></tr></table></div></td></tr></table></div></td></tr><tr><td style="font-weight:bold;vertical-align:top;">meta</td><td style="vertical-align:top;">:</td><td><div><table><tr><td style="font-weight:bold;vertical-align:top;">author</td><td style="vertical-align:top;">:</td><td><div>Carlos A Locatelli Jr &lt;call.jmail@gmail.com&gt;</div></td></tr><tr><td style="font-weight:bold;vertical-align:top;">description</td><td style="vertical-align:top;">:</td><td><div>Sistema Python Web2py e Banco Mysql Desenvolvido para gest\xc3\xa3o da SMAURB</div></td></tr><tr><td style="font-weight:bold;vertical-align:top;">generator</td><td style="vertical-align:top;">:</td><td><div>Web2py Web Framework</div></td></tr><tr><td style="font-weight:bold;vertical-align:top;">keywords</td><td style="vertical-align:top;">:</td><td><div><table><tr><td><div>web2py</div></td></tr><tr><td><div>python</div></td></tr><tr><td><div>framework</div></td></tr></table></div></td></tr></table></div></td></tr><tr><td style="font-weight:bold;vertical-align:top;">models_to_run</td><td style="vertical-align:top;">:</td><td><div><table><tr><td><div>^\\w+\\.py$</div></td></tr><tr><td><div>^plotdados/\\w+\\.py$</div></td></tr><tr><td><div>^plotdados/respontos/\\w+\\.py$</div></td></tr></table></div></td></tr><tr><td style="font-weight:bold;vertical-align:top;">postprocessing</td><td style="vertical-align:top;">:</td><td><div><table></table></div></td></tr><tr><td style="font-weight:bold;vertical-align:top;">session_client</td><td style="vertical-align:top;">:</td><td><div>10.34.7.44</div></td></tr><tr><td style="font-weight:bold;vertical-align:top;">session_cookie_compression_level</td><td style="vertical-align:top;">:</td><td><div>None</div></td></tr><tr><td style="font-weight:bold;vertical-align:top;">session_cookie_expires</td><td style="vertical-align:top;">:</td><td><div>None</div></td></tr><tr><td style="font-weight:bold;vertical-align:top;">session_data_name</td><td style="vertical-align:top;">:</td><td><div>session_data_qualidade_ambiental</div></td></tr><tr><td style="font-weight:bold;vertical-align:top;">session_file</td><td style="vertical-align:top;">:</td><td><div>&lt;open file &#x27;/home/www-data/web2py/applications/Qualidade_Ambiental/sessions/17b/0c5/10.34.7.44-9551b7fa-43de-450b-99e9-f5afa2ea5146&#x27;, mode &#x27;rb+&#x27; at 0x7f310be25e40&gt;</div></td></tr><tr><td style="font-weight:bold;vertical-align:top;">session_filename</td><td style="vertical-align:top;">:</td><td><div>/home/www-data/web2py/applications/Qualidade_Ambiental/sessions/10.34.7.44-9551b7fa-43de-450b-99e9-f5afa2ea5146</div></td></tr><tr><td style="font-weight:bold;vertical-align:top;">session_hash</td><td style="vertical-align:top;">:</td><td><div>6af9836ebe0e1afe42e98d1f9c1a3049</div></td></tr><tr><td style="font-weight:bold;vertical-align:top;">session_id</td><td style="vertical-align:top;">:</td><td><div>10.34.7.44-9551b7fa-43de-450b-99e9-f5afa2ea5146</div></td></tr><tr><td style="font-weight:bold;vertical-align:top;">session_id_name</td><td style="vertical-align:top;">:</td><td><div>session_id_qualidade_ambiental</div></td></tr><tr><td style="font-weight:bold;vertical-align:top;">session_locked</td><td style="vertical-align:top;">:</td><td><div>True</div></td></tr><tr><td style="font-weight:bold;vertical-align:top;">session_masterapp</td><td style="vertical-align:top;">:</td><td><div>Qualidade_Ambiental</div></td></tr><tr><td style="font-weight:bold;vertical-align:top;">session_new</td><td style="vertical-align:top;">:</td><td><div>False</div></td></tr><tr><td style="font-weight:bold;vertical-align:top;">session_storage_type</td><td style="vertical-align:top;">:</td><td><div>file</div></td></tr><tr><td style="font-weight:bold;vertical-align:top;">show_toolbar</td><td style="vertical-align:top;">:</td><td><div>False</div></td></tr><tr><td style="font-weight:bold;vertical-align:top;">status</td><td style="vertical-align:top;">:</td><td><div>200</div></td></tr><tr><td style="font-weight:bold;vertical-align:top;">view</td><td style="vertical-align:top;">:</td><td><div>plotdados/respontos.png</div></td></tr></table></div>'
tRp361
sS'locals'
p362
(dp363
S'src'
p364
S'<Container object of 0 artists>'
p365
sS'tgt'
p366
S'<matplotlib.patches.Rectangle object>'
p367
sssS'traceback'
p368
S'Traceback (most recent call last):\n  File "/home/www-data/web2py/gluon/restricted.py", line 219, in restricted\n    exec(ccode, environment)\n  File "/home/www-data/web2py/applications/Qualidade_Ambiental/controllers/plotdados.py", line 122, in <module>\n  File "/home/www-data/web2py/gluon/globals.py", line 421, in <lambda>\n    self._caller = lambda f: f()\n  File "/home/www-data/web2py/applications/Qualidade_Ambiental/controllers/plotdados.py", line 121, in respontos\n    return plot( title=title, xlab=xlab, ylab=ylab,  mode=\'bar\', data={u\'Volume por P.A.\': lxy}, legendgrau=legendgrau)\n  File "applications/Qualidade_Ambiental/modules/plotador.py", line 58, in plot\n    ax.legend([x for (x,y) in legend], [y for (x,y) in legend])\n  File "/usr/lib/python2.7/dist-packages/matplotlib/axes/_axes.py", line 500, in legend\n    self.legend_ = mlegend.Legend(self, handles, labels, **kwargs)\n  File "/usr/lib/python2.7/dist-packages/matplotlib/legend.py", line 693, in __init__\n    self._init_legend_box(handles, labels, markerfirst)\n  File "/usr/lib/python2.7/dist-packages/matplotlib/legend.py", line 953, in _init_legend_box\n    fontsize, handlebox))\n  File "/usr/lib/python2.7/dist-packages/matplotlib/legend_handler.py", line 120, in legend_artist\n    fontsize, handlebox.get_transform())\n  File "/usr/lib/python2.7/dist-packages/matplotlib/legend_handler.py", line 252, in create_artists\n    self.update_prop(p, orig_handle, legend)\n  File "/usr/lib/python2.7/dist-packages/matplotlib/legend_handler.py", line 77, in update_prop\n    self._update_prop(legend_handle, orig_handle)\n  File "/usr/lib/python2.7/dist-packages/matplotlib/legend_handler.py", line 70, in _update_prop\n    self._update_prop_func(legend_handle, orig_handle)\n  File "/usr/lib/python2.7/dist-packages/matplotlib/legend_handler.py", line 43, in update_from_first_child\n    tgt.update_from(src.get_children()[0])\nIndexError: list index out of range\n'
p369
s.