(dp1
S'output'
p2
S"<type 'exceptions.IndexError'> list index out of range"
p3
sS'layer'
p4
S'/home/www-data/web2py/applications/Qualidade_Ambiental/controllers/plotdados.py'
p5
sS'code'
p6
S'<code object <module> at 0x7f1a98902cb0, file "/home/www-data/web2py/applications/Qualidade_Ambiental/controllers/plotdados.py", line 26>'
p7
sS'snapshot'
p8
(dp9
S'exception'
p10
(dp11
S'__getslice__'
p12
S"<method-wrapper '__getslice__' of exceptions.IndexError object>"
p13
sS'__str__'
p14
S"<method-wrapper '__str__' of exceptions.IndexError object>"
p15
sS'__reduce__'
p16
S'<built-in method __reduce__ of exceptions.IndexError object>'
p17
sS'__dict__'
p18
S'{}'
p19
sS'message'
p20
S"'list index out of range'"
p21
sS'__sizeof__'
p22
S'<built-in method __sizeof__ of exceptions.IndexError object>'
p23
sS'__init__'
p24
S"<method-wrapper '__init__' of exceptions.IndexError object>"
p25
sS'__setattr__'
p26
S"<method-wrapper '__setattr__' of exceptions.IndexError object>"
p27
sS'__reduce_ex__'
p28
S'<built-in method __reduce_ex__ of exceptions.IndexError object>'
p29
sS'__new__'
p30
S'<built-in method __new__ of type object>'
p31
sS'__format__'
p32
S'<built-in method __format__ of exceptions.IndexError object>'
p33
sS'__class__'
p34
S"<type 'exceptions.IndexError'>"
p35
sS'__doc__'
p36
S"'Sequence index out of range.'"
p37
sS'__getitem__'
p38
S"<method-wrapper '__getitem__' of exceptions.IndexError object>"
p39
sS'__setstate__'
p40
S'<built-in method __setstate__ of exceptions.IndexError object>'
p41
sS'__getattribute__'
p42
S"<method-wrapper '__getattribute__' of exceptions.IndexError object>"
p43
sS'args'
p44
S"('list index out of range',)"
p45
sS'__subclasshook__'
p46
S'<built-in method __subclasshook__ of type object>'
p47
sS'__unicode__'
p48
S'<built-in method __unicode__ of exceptions.IndexError object>'
p49
sS'__delattr__'
p50
S"<method-wrapper '__delattr__' of exceptions.IndexError object>"
p51
sS'__repr__'
p52
S"<method-wrapper '__repr__' of exceptions.IndexError object>"
p53
sS'__hash__'
p54
S"<method-wrapper '__hash__' of exceptions.IndexError object>"
p55
ssS'evalue'
p56
S'list index out of range'
p57
sS'request'
p58
cgluon.html
XML_unpickle
p59
(S's\x0b`\x00\x00<div><table><tr><td style="font-weight:bold;vertical-align:top;">ajax</td><td style="vertical-align:top;">:</td><td><div>False</div></td></tr><tr><td style="font-weight:bold;vertical-align:top;">application</td><td style="vertical-align:top;">:</td><td><div>Qualidade_Ambiental</div></td></tr><tr><td style="font-weight:bold;vertical-align:top;">args</td><td style="vertical-align:top;">:</td><td><div><table></table></div></td></tr><tr><td style="font-weight:bold;vertical-align:top;">cid</td><td style="vertical-align:top;">:</td><td><div>None</div></td></tr><tr><td style="font-weight:bold;vertical-align:top;">client</td><td style="vertical-align:top;">:</td><td><div>127.0.0.1</div></td></tr><tr><td style="font-weight:bold;vertical-align:top;">controller</td><td style="vertical-align:top;">:</td><td><div>plotdados</div></td></tr><tr><td style="font-weight:bold;vertical-align:top;">cookies</td><td style="vertical-align:top;">:</td><td><div><table><tr><td style="font-weight:bold;vertical-align:top;">session_id_admin</td><td style="vertical-align:top;">:</td><td><div>127.0.0.1-3a49723e-43ec-4749-ba05-8e59b10f7e85<table><tr><td style="font-weight:bold;vertical-align:top;">comment</td><td style="vertical-align:top;">:</td><td><div></div></td></tr><tr><td style="font-weight:bold;vertical-align:top;">domain</td><td style="vertical-align:top;">:</td><td><div></div></td></tr><tr><td style="font-weight:bold;vertical-align:top;">expires</td><td style="vertical-align:top;">:</td><td><div></div></td></tr><tr><td style="font-weight:bold;vertical-align:top;">httponly</td><td style="vertical-align:top;">:</td><td><div></div></td></tr><tr><td style="font-weight:bold;vertical-align:top;">max-age</td><td style="vertical-align:top;">:</td><td><div></div></td></tr><tr><td style="font-weight:bold;vertical-align:top;">path</td><td style="vertical-align:top;">:</td><td><div></div></td></tr><tr><td style="font-weight:bold;vertical-align:top;">samesite</td><td style="vertical-align:top;">:</td><td><div></div></td></tr><tr><td style="font-weight:bold;vertical-align:top;">secure</td><td style="vertical-align:top;">:</td><td><div></div></td></tr><tr><td style="font-weight:bold;vertical-align:top;">version</td><td style="vertical-align:top;">:</td><td><div></div></td></tr></table></div></td></tr><tr><td style="font-weight:bold;vertical-align:top;">session_id_qualidade_ambiental</td><td style="vertical-align:top;">:</td><td><div>127.0.0.1-3220a474-40cc-4adc-b8f4-e61d0663bb51<table><tr><td style="font-weight:bold;vertical-align:top;">comment</td><td style="vertical-align:top;">:</td><td><div></div></td></tr><tr><td style="font-weight:bold;vertical-align:top;">domain</td><td style="vertical-align:top;">:</td><td><div></div></td></tr><tr><td style="font-weight:bold;vertical-align:top;">expires</td><td style="vertical-align:top;">:</td><td><div></div></td></tr><tr><td style="font-weight:bold;vertical-align:top;">httponly</td><td style="vertical-align:top;">:</td><td><div></div></td></tr><tr><td style="font-weight:bold;vertical-align:top;">max-age</td><td style="vertical-align:top;">:</td><td><div></div></td></tr><tr><td style="font-weight:bold;vertical-align:top;">path</td><td style="vertical-align:top;">:</td><td><div></div></td></tr><tr><td style="font-weight:bold;vertical-align:top;">samesite</td><td style="vertical-align:top;">:</td><td><div></div></td></tr><tr><td style="font-weight:bold;vertical-align:top;">secure</td><td style="vertical-align:top;">:</td><td><div></div></td></tr><tr><td style="font-weight:bold;vertical-align:top;">version</td><td style="vertical-align:top;">:</td><td><div></div></td></tr></table></div></td></tr><tr><td style="font-weight:bold;vertical-align:top;">session_id_welcome</td><td style="vertical-align:top;">:</td><td><div>127.0.0.1-8d1cc212-6ec7-41e2-81d3-430e407ef099<table><tr><td style="font-weight:bold;vertical-align:top;">comment</td><td style="vertical-align:top;">:</td><td><div></div></td></tr><tr><td style="font-weight:bold;vertical-align:top;">domain</td><td style="vertical-align:top;">:</td><td><div></div></td></tr><tr><td style="font-weight:bold;vertical-align:top;">expires</td><td style="vertical-align:top;">:</td><td><div></div></td></tr><tr><td style="font-weight:bold;vertical-align:top;">httponly</td><td style="vertical-align:top;">:</td><td><div></div></td></tr><tr><td style="font-weight:bold;vertical-align:top;">max-age</td><td style="vertical-align:top;">:</td><td><div></div></td></tr><tr><td style="font-weight:bold;vertical-align:top;">path</td><td style="vertical-align:top;">:</td><td><div></div></td></tr><tr><td style="font-weight:bold;vertical-align:top;">samesite</td><td style="vertical-align:top;">:</td><td><div></div></td></tr><tr><td style="font-weight:bold;vertical-align:top;">secure</td><td style="vertical-align:top;">:</td><td><div></div></td></tr><tr><td style="font-weight:bold;vertical-align:top;">version</td><td style="vertical-align:top;">:</td><td><div></div></td></tr></table></div></td></tr><tr><td style="font-weight:bold;vertical-align:top;">username-smmau-004-pc004-8888</td><td style="vertical-align:top;">:</td><td><div>2|1:0|10:1576153233|29:username-smmau-004-pc004-8888|44:ZGM4ZTMyYjVlYTE5NGE0YmFhNjExZTNhOWU2NWQ1NTI=|3cc8569f34d26f9746b5d9bdbe3de1dc7eea7528b5843e1b9aab5e1ef6eb2b31<table><tr><td style="font-weight:bold;vertical-align:top;">comment</td><td style="vertical-align:top;">:</td><td><div></div></td></tr><tr><td style="font-weight:bold;vertical-align:top;">domain</td><td style="vertical-align:top;">:</td><td><div></div></td></tr><tr><td style="font-weight:bold;vertical-align:top;">expires</td><td style="vertical-align:top;">:</td><td><div></div></td></tr><tr><td style="font-weight:bold;vertical-align:top;">httponly</td><td style="vertical-align:top;">:</td><td><div></div></td></tr><tr><td style="font-weight:bold;vertical-align:top;">max-age</td><td style="vertical-align:top;">:</td><td><div></div></td></tr><tr><td style="font-weight:bold;vertical-align:top;">path</td><td style="vertical-align:top;">:</td><td><div></div></td></tr><tr><td style="font-weight:bold;vertical-align:top;">samesite</td><td style="vertical-align:top;">:</td><td><div></div></td></tr><tr><td style="font-weight:bold;vertical-align:top;">secure</td><td style="vertical-align:top;">:</td><td><div></div></td></tr><tr><td style="font-weight:bold;vertical-align:top;">version</td><td style="vertical-align:top;">:</td><td><div></div></td></tr></table></div></td></tr></table></div></td></tr><tr><td style="font-weight:bold;vertical-align:top;">env</td><td style="vertical-align:top;">:</td><td><div><table><tr><td style="font-weight:bold;vertical-align:top;">CONTENT_LENGTH</td><td style="vertical-align:top;">:</td><td><div></div></td></tr><tr><td style="font-weight:bold;vertical-align:top;">CONTENT_TYPE</td><td style="vertical-align:top;">:</td><td><div></div></td></tr><tr><td style="font-weight:bold;vertical-align:top;">DOCUMENT_ROOT</td><td style="vertical-align:top;">:</td><td><div>/usr/share/nginx/html</div></td></tr><tr><td style="font-weight:bold;vertical-align:top;">HTTPS</td><td style="vertical-align:top;">:</td><td><div>on</div></td></tr><tr><td style="font-weight:bold;vertical-align:top;">HTTP_ACCEPT</td><td style="vertical-align:top;">:</td><td><div>image/webp,*/*</div></td></tr><tr><td style="font-weight:bold;vertical-align:top;">HTTP_ACCEPT_ENCODING</td><td style="vertical-align:top;">:</td><td><div>gzip, deflate, br</div></td></tr><tr><td style="font-weight:bold;vertical-align:top;">HTTP_ACCEPT_LANGUAGE</td><td style="vertical-align:top;">:</td><td><div>pt-BR</div></td></tr><tr><td style="font-weight:bold;vertical-align:top;">HTTP_CONNECTION</td><td style="vertical-align:top;">:</td><td><div>keep-alive</div></td></tr><tr><td style="font-weight:bold;vertical-align:top;">HTTP_COOKIE</td><td style="vertical-align:top;">:</td><td><div>username-smmau-004-pc004-8888=&quot;2|1:0|10:1576153233|29:username-smmau-004-pc004-8888|44:ZGM4ZTMyYjVlYTE5NGE0YmFhNjExZTNhOWU2NWQ1NTI=|3cc8569f34d26f9746b5d9bdbe3de1dc7eea7528b5843e1b9aab5e1ef6eb2b31&quot;; session_id_qualidade_ambiental=127.0.0.1-3220a474-40cc-4adc-b8f4-e61d0663bb51; session_id_welcome=127.0.0.1-8d1cc212-6ec7-41e2-81d3-430e407ef099; _xsrf=2|e4af2d7d|4e87312c03b6f06245bddee51b4d3388|1576147839; session_id_admin=127.0.0.1-3a49723e-43ec-4749-ba05-8e59b10f7e85</div></td></tr><tr><td style="font-weight:bold;vertical-align:top;">HTTP_DNT</td><td style="vertical-align:top;">:</td><td><div>1</div></td></tr><tr><td style="font-weight:bold;vertical-align:top;">HTTP_HOST</td><td style="vertical-align:top;">:</td><td><div>smmau-004-pc004</div></td></tr><tr><td style="font-weight:bold;vertical-align:top;">HTTP_REFERER</td><td style="vertical-align:top;">:</td><td><div>https://smmau-004-pc004/Qualidade_Ambiental/PontosApoio/grafico_por_ponto</div></td></tr><tr><td style="font-weight:bold;vertical-align:top;">HTTP_USER_AGENT</td><td style="vertical-align:top;">:</td><td><div>Mozilla/5.0 (X11; Ubuntu; Linux x86_64; rv:71.0) Gecko/20100101 Firefox/71.0</div></td></tr><tr><td style="font-weight:bold;vertical-align:top;">PATH_INFO</td><td style="vertical-align:top;">:</td><td><div>/Qualidade_Ambiental/plotdados/voldia.png</div></td></tr><tr><td style="font-weight:bold;vertical-align:top;">QUERY_STRING</td><td style="vertical-align:top;">:</td><td><div></div></td></tr><tr><td style="font-weight:bold;vertical-align:top;">REMOTE_ADDR</td><td style="vertical-align:top;">:</td><td><div>127.0.0.1</div></td></tr><tr><td style="font-weight:bold;vertical-align:top;">REMOTE_PORT</td><td style="vertical-align:top;">:</td><td><div>60058</div></td></tr><tr><td style="font-weight:bold;vertical-align:top;">REQUEST_METHOD</td><td style="vertical-align:top;">:</td><td><div>GET</div></td></tr><tr><td style="font-weight:bold;vertical-align:top;">REQUEST_SCHEME</td><td style="vertical-align:top;">:</td><td><div>https</div></td></tr><tr><td style="font-weight:bold;vertical-align:top;">REQUEST_URI</td><td style="vertical-align:top;">:</td><td><div>/Qualidade_Ambiental/plotdados/voldia.png</div></td></tr><tr><td style="font-weight:bold;vertical-align:top;">SERVER_NAME</td><td style="vertical-align:top;">:</td><td><div>smmau-004-pc004</div></td></tr><tr><td style="font-weight:bold;vertical-align:top;">SERVER_PORT</td><td style="vertical-align:top;">:</td><td><div>443</div></td></tr><tr><td style="font-weight:bold;vertical-align:top;">SERVER_PROTOCOL</td><td style="vertical-align:top;">:</td><td><div>HTTP/1.1</div></td></tr><tr><td style="font-weight:bold;vertical-align:top;">SERVER_SOFTWARE</td><td style="vertical-align:top;">:</td><td><div>nginx/1.14.0</div></td></tr><tr><td style="font-weight:bold;vertical-align:top;">UWSGI_SCHEME</td><td style="vertical-align:top;">:</td><td><div>https</div></td></tr><tr><td style="font-weight:bold;vertical-align:top;">app_folders</td><td style="vertical-align:top;">:</td><td><div>set([&#x27;/home/www-data/web2py/applications/Qualidade_Ambiental/&#x27;])</div></td></tr><tr><td style="font-weight:bold;vertical-align:top;">applications_parent</td><td style="vertical-align:top;">:</td><td><div>/home/www-data/web2py</div></td></tr><tr><td style="font-weight:bold;vertical-align:top;">content_length</td><td style="vertical-align:top;">:</td><td><div></div></td></tr><tr><td style="font-weight:bold;vertical-align:top;">content_type</td><td style="vertical-align:top;">:</td><td><div></div></td></tr><tr><td style="font-weight:bold;vertical-align:top;">db_sessions</td><td style="vertical-align:top;">:</td><td><div>set([])</div></td></tr><tr><td style="font-weight:bold;vertical-align:top;">debugging</td><td style="vertical-align:top;">:</td><td><div>False</div></td></tr><tr><td style="font-weight:bold;vertical-align:top;">document_root</td><td style="vertical-align:top;">:</td><td><div>/usr/share/nginx/html</div></td></tr><tr><td style="font-weight:bold;vertical-align:top;">gluon_parent</td><td style="vertical-align:top;">:</td><td><div>/home/www-data/web2py</div></td></tr><tr><td style="font-weight:bold;vertical-align:top;">http_accept</td><td style="vertical-align:top;">:</td><td><div>image/webp,*/*</div></td></tr><tr><td style="font-weight:bold;vertical-align:top;">http_accept_encoding</td><td style="vertical-align:top;">:</td><td><div>gzip, deflate, br</div></td></tr><tr><td style="font-weight:bold;vertical-align:top;">http_accept_language</td><td style="vertical-align:top;">:</td><td><div>pt-BR</div></td></tr><tr><td style="font-weight:bold;vertical-align:top;">http_connection</td><td style="vertical-align:top;">:</td><td><div>keep-alive</div></td></tr><tr><td style="font-weight:bold;vertical-align:top;">http_cookie</td><td style="vertical-align:top;">:</td><td><div>username-smmau-004-pc004-8888=&quot;2|1:0|10:1576153233|29:username-smmau-004-pc004-8888|44:ZGM4ZTMyYjVlYTE5NGE0YmFhNjExZTNhOWU2NWQ1NTI=|3cc8569f34d26f9746b5d9bdbe3de1dc7eea7528b5843e1b9aab5e1ef6eb2b31&quot;; session_id_qualidade_ambiental=127.0.0.1-3220a474-40cc-4adc-b8f4-e61d0663bb51; session_id_welcome=127.0.0.1-8d1cc212-6ec7-41e2-81d3-430e407ef099; _xsrf=2|e4af2d7d|4e87312c03b6f06245bddee51b4d3388|1576147839; session_id_admin=127.0.0.1-3a49723e-43ec-4749-ba05-8e59b10f7e85</div></td></tr><tr><td style="font-weight:bold;vertical-align:top;">http_dnt</td><td style="vertical-align:top;">:</td><td><div>1</div></td></tr><tr><td style="font-weight:bold;vertical-align:top;">http_host</td><td style="vertical-align:top;">:</td><td><div>smmau-004-pc004</div></td></tr><tr><td style="font-weight:bold;vertical-align:top;">http_referer</td><td style="vertical-align:top;">:</td><td><div>https://smmau-004-pc004/Qualidade_Ambiental/PontosApoio/grafico_por_ponto</div></td></tr><tr><td style="font-weight:bold;vertical-align:top;">http_user_agent</td><td style="vertical-align:top;">:</td><td><div>Mozilla/5.0 (X11; Ubuntu; Linux x86_64; rv:71.0) Gecko/20100101 Firefox/71.0</div></td></tr><tr><td style="font-weight:bold;vertical-align:top;">https</td><td style="vertical-align:top;">:</td><td><div>on</div></td></tr><tr><td style="font-weight:bold;vertical-align:top;">is_jython</td><td style="vertical-align:top;">:</td><td><div>False</div></td></tr><tr><td style="font-weight:bold;vertical-align:top;">is_py2</td><td style="vertical-align:top;">:</td><td><div>True</div></td></tr><tr><td style="font-weight:bold;vertical-align:top;">is_pypy</td><td style="vertical-align:top;">:</td><td><div>False</div></td></tr><tr><td style="font-weight:bold;vertical-align:top;">is_source</td><td style="vertical-align:top;">:</td><td><div>True</div></td></tr><tr><td style="font-weight:bold;vertical-align:top;">local_hosts</td><td style="vertical-align:top;">:</td><td><div><table><tr><td><div>smmau-004-pc004</div></td></tr><tr><td><div>::1</div></td></tr><tr><td><div>::ffff:127.0.0.1</div></td></tr><tr><td><div>127.0.0.1</div></td></tr><tr><td><div>smmau-004-pc004.REDE-EMPRO.empro.com.br</div></td></tr></table></div></td></tr><tr><td style="font-weight:bold;vertical-align:top;">path_info</td><td style="vertical-align:top;">:</td><td><div>/Qualidade_Ambiental/plotdados/voldia.png</div></td></tr><tr><td style="font-weight:bold;vertical-align:top;">query_string</td><td style="vertical-align:top;">:</td><td><div></div></td></tr><tr><td style="font-weight:bold;vertical-align:top;">remote_addr</td><td style="vertical-align:top;">:</td><td><div>127.0.0.1</div></td></tr><tr><td style="font-weight:bold;vertical-align:top;">remote_port</td><td style="vertical-align:top;">:</td><td><div>60058</div></td></tr><tr><td style="font-weight:bold;vertical-align:top;">request_method</td><td style="vertical-align:top;">:</td><td><div>GET</div></td></tr><tr><td style="font-weight:bold;vertical-align:top;">request_scheme</td><td style="vertical-align:top;">:</td><td><div>https</div></td></tr><tr><td style="font-weight:bold;vertical-align:top;">request_uri</td><td style="vertical-align:top;">:</td><td><div>/Qualidade_Ambiental/plotdados/voldia.png</div></td></tr><tr><td style="font-weight:bold;vertical-align:top;">server_name</td><td style="vertical-align:top;">:</td><td><div>smmau-004-pc004</div></td></tr><tr><td style="font-weight:bold;vertical-align:top;">server_port</td><td style="vertical-align:top;">:</td><td><div>443</div></td></tr><tr><td style="font-weight:bold;vertical-align:top;">server_protocol</td><td style="vertical-align:top;">:</td><td><div>HTTP/1.1</div></td></tr><tr><td style="font-weight:bold;vertical-align:top;">server_software</td><td style="vertical-align:top;">:</td><td><div>nginx/1.14.0</div></td></tr><tr><td style="font-weight:bold;vertical-align:top;">uwsgi.node</td><td style="vertical-align:top;">:</td><td><div>smmau-004-pc004</div></td></tr><tr><td style="font-weight:bold;vertical-align:top;">uwsgi.version</td><td style="vertical-align:top;">:</td><td><div>2.0.18</div></td></tr><tr><td style="font-weight:bold;vertical-align:top;">uwsgi_node</td><td style="vertical-align:top;">:</td><td><div>smmau-004-pc004</div></td></tr><tr><td style="font-weight:bold;vertical-align:top;">uwsgi_scheme</td><td style="vertical-align:top;">:</td><td><div>https</div></td></tr><tr><td style="font-weight:bold;vertical-align:top;">uwsgi_version</td><td style="vertical-align:top;">:</td><td><div>2.0.18</div></td></tr><tr><td style="font-weight:bold;vertical-align:top;">web2py_path</td><td style="vertical-align:top;">:</td><td><div>/home/www-data/web2py</div></td></tr><tr><td style="font-weight:bold;vertical-align:top;">web2py_version</td><td style="vertical-align:top;">:</td><td><div>2.17.2-stable+timestamp.2018.10.06.18.54.02</div></td></tr><tr><td style="font-weight:bold;vertical-align:top;">wsgi.errors</td><td style="vertical-align:top;">:</td><td><div>&lt;open file &#x27;wsgi_errors&#x27;, mode &#x27;w&#x27; at 0x7f1aa1402930&gt;</div></td></tr><tr><td style="font-weight:bold;vertical-align:top;">wsgi.file_wrapper</td><td style="vertical-align:top;">:</td><td><div>&lt;built-in function uwsgi_sendfile&gt;</div></td></tr><tr><td style="font-weight:bold;vertical-align:top;">wsgi.input</td><td style="vertical-align:top;">:</td><td><div>&lt;uwsgi._Input object at 0x7f1aa198dc10&gt;</div></td></tr><tr><td style="font-weight:bold;vertical-align:top;">wsgi.multiprocess</td><td style="vertical-align:top;">:</td><td><div>True</div></td></tr><tr><td style="font-weight:bold;vertical-align:top;">wsgi.multithread</td><td style="vertical-align:top;">:</td><td><div>False</div></td></tr><tr><td style="font-weight:bold;vertical-align:top;">wsgi.run_once</td><td style="vertical-align:top;">:</td><td><div>False</div></td></tr><tr><td style="font-weight:bold;vertical-align:top;">wsgi.url_scheme</td><td style="vertical-align:top;">:</td><td><div>https</div></td></tr><tr><td style="font-weight:bold;vertical-align:top;">wsgi.version</td><td style="vertical-align:top;">:</td><td><div><table><tr><td><div>1</div></td></tr><tr><td><div>0</div></td></tr></table></div></td></tr><tr><td style="font-weight:bold;vertical-align:top;">wsgi_errors</td><td style="vertical-align:top;">:</td><td><div>&lt;open file &#x27;wsgi_errors&#x27;, mode &#x27;w&#x27; at 0x7f1aa1402930&gt;</div></td></tr><tr><td style="font-weight:bold;vertical-align:top;">wsgi_file_wrapper</td><td style="vertical-align:top;">:</td><td><div>&lt;built-in function uwsgi_sendfile&gt;</div></td></tr><tr><td style="font-weight:bold;vertical-align:top;">wsgi_input</td><td style="vertical-align:top;">:</td><td><div>&lt;uwsgi._Input object at 0x7f1aa198dc10&gt;</div></td></tr><tr><td style="font-weight:bold;vertical-align:top;">wsgi_multiprocess</td><td style="vertical-align:top;">:</td><td><div>True</div></td></tr><tr><td style="font-weight:bold;vertical-align:top;">wsgi_multithread</td><td style="vertical-align:top;">:</td><td><div>False</div></td></tr><tr><td style="font-weight:bold;vertical-align:top;">wsgi_run_once</td><td style="vertical-align:top;">:</td><td><div>False</div></td></tr><tr><td style="font-weight:bold;vertical-align:top;">wsgi_url_scheme</td><td style="vertical-align:top;">:</td><td><div>https</div></td></tr><tr><td style="font-weight:bold;vertical-align:top;">wsgi_version</td><td style="vertical-align:top;">:</td><td><div><table><tr><td><div>1</div></td></tr><tr><td><div>0</div></td></tr></table></div></td></tr></table></div></td></tr><tr><td style="font-weight:bold;vertical-align:top;">extension</td><td style="vertical-align:top;">:</td><td><div>png</div></td></tr><tr><td style="font-weight:bold;vertical-align:top;">folder</td><td style="vertical-align:top;">:</td><td><div>/home/www-data/web2py/applications/Qualidade_Ambiental/</div></td></tr><tr><td style="font-weight:bold;vertical-align:top;">function</td><td style="vertical-align:top;">:</td><td><div>voldia</div></td></tr><tr><td style="font-weight:bold;vertical-align:top;">global_settings</td><td style="vertical-align:top;">:</td><td><div><table><tr><td style="font-weight:bold;vertical-align:top;">app_folders</td><td style="vertical-align:top;">:</td><td><div>set([&#x27;/home/www-data/web2py/applications/Qualidade_Ambiental/&#x27;])</div></td></tr><tr><td style="font-weight:bold;vertical-align:top;">applications_parent</td><td style="vertical-align:top;">:</td><td><div>/home/www-data/web2py</div></td></tr><tr><td style="font-weight:bold;vertical-align:top;">db_sessions</td><td style="vertical-align:top;">:</td><td><div>set([])</div></td></tr><tr><td style="font-weight:bold;vertical-align:top;">debugging</td><td style="vertical-align:top;">:</td><td><div>False</div></td></tr><tr><td style="font-weight:bold;vertical-align:top;">gluon_parent</td><td style="vertical-align:top;">:</td><td><div>/home/www-data/web2py</div></td></tr><tr><td style="font-weight:bold;vertical-align:top;">is_jython</td><td style="vertical-align:top;">:</td><td><div>False</div></td></tr><tr><td style="font-weight:bold;vertical-align:top;">is_py2</td><td style="vertical-align:top;">:</td><td><div>True</div></td></tr><tr><td style="font-weight:bold;vertical-align:top;">is_pypy</td><td style="vertical-align:top;">:</td><td><div>False</div></td></tr><tr><td style="font-weight:bold;vertical-align:top;">is_source</td><td style="vertical-align:top;">:</td><td><div>True</div></td></tr><tr><td style="font-weight:bold;vertical-align:top;">local_hosts</td><td style="vertical-align:top;">:</td><td><div><table><tr><td><div>smmau-004-pc004</div></td></tr><tr><td><div>::1</div></td></tr><tr><td><div>::ffff:127.0.0.1</div></td></tr><tr><td><div>127.0.0.1</div></td></tr><tr><td><div>smmau-004-pc004.REDE-EMPRO.empro.com.br</div></td></tr></table></div></td></tr><tr><td style="font-weight:bold;vertical-align:top;">web2py_version</td><td style="vertical-align:top;">:</td><td><div>2.17.2-stable+timestamp.2018.10.06.18.54.02</div></td></tr></table></div></td></tr><tr><td style="font-weight:bold;vertical-align:top;">is_https</td><td style="vertical-align:top;">:</td><td><div>True</div></td></tr><tr><td style="font-weight:bold;vertical-align:top;">is_local</td><td style="vertical-align:top;">:</td><td><div>True</div></td></tr><tr><td style="font-weight:bold;vertical-align:top;">is_restful</td><td style="vertical-align:top;">:</td><td><div>False</div></td></tr><tr><td style="font-weight:bold;vertical-align:top;">is_scheduler</td><td style="vertical-align:top;">:</td><td><div>False</div></td></tr><tr><td style="font-weight:bold;vertical-align:top;">is_shell</td><td style="vertical-align:top;">:</td><td><div>False</div></td></tr><tr><td style="font-weight:bold;vertical-align:top;">method</td><td style="vertical-align:top;">:</td><td><div>GET</div></td></tr><tr><td style="font-weight:bold;vertical-align:top;">now</td><td style="vertical-align:top;">:</td><td><div>datetime.datetime(2019, 12, 19, 8, 27, 42, 826275)</div></td></tr><tr><td style="font-weight:bold;vertical-align:top;">raw_args</td><td style="vertical-align:top;">:</td><td><div></div></td></tr><tr><td style="font-weight:bold;vertical-align:top;">raw_extension</td><td style="vertical-align:top;">:</td><td><div>png</div></td></tr><tr><td style="font-weight:bold;vertical-align:top;">url</td><td style="vertical-align:top;">:</td><td><div>/Qualidade_Ambiental/plotdados/voldia.png</div></td></tr><tr><td style="font-weight:bold;vertical-align:top;">utcnow</td><td style="vertical-align:top;">:</td><td><div>datetime.datetime(2019, 12, 19, 11, 27, 42, 826301)</div></td></tr><tr><td style="font-weight:bold;vertical-align:top;">wsgi</td><td style="vertical-align:top;">:</td><td><div>&lt;gluon.main.LazyWSGI object at 0x7f1a987d4f50&gt;</div></td></tr></table></div>'
tRp60
sS'frames'
p61
(lp62
(dp63
S'file'
p64
S'/home/www-data/web2py/gluon/restricted.py'
p65
sS'dump'
p66
(dp67
S'environment'
p68
S"{'A': <class 'gluon.html.A'>, 'ANY_OF': <class 'gluon.validators.ANY_OF'>, 'ASSIGNJS': <function ASSIGNJS>, 'Affine2D': <class 'matplotlib.transforms.Affine2D'>, 'AppConfig': <function AppConfig>, 'Artist': <class 'matplotlib.artist.Artist'>, 'Auth': <class 'gluon.tools.Auth'>, 'Axes': <class 'matplotlib.axes._axes.Axes'>, 'AxesStack': <class 'matplotlib.figure.AxesStack'>, 'B': <class 'gluon.html.B'>, ...}"
p69
sS'ccode'
p70
S'<code object <module> at 0x7f1a98902cb0, file "/...ade_Ambiental/controllers/plotdados.py", line 26>'
p71
ssS'lnum'
p72
I219
sS'lines'
p73
(dp74
I214
S'    if environment is None:'
p75
sI215
S'        environment = {}'
p76
sI216
S"    environment['__file__'] = layer"
p77
sI217
S"    environment['__name__'] = '__restricted__'"
p78
sI218
S'    try:'
p79
sI219
S'        exec(ccode, environment)'
p80
sI220
S'    except HTTP:'
p81
sI221
S'        raise'
p82
sI222
S'    except RestrictedError:'
p83
sI223
S'        # do not encapsulate (obfuscate) the original RestrictedError'
p84
ssS'call'
p85
S'(ccode=<code object <module> at 0x7f1a98902cb0, file "/...ade_Ambiental/controllers/plotdados.py", line 26>, environment={\'A\': <class \'gluon.html.A\'>, \'ANY_OF\': <class \'gluon.validators.ANY_OF\'>, \'ASSIGNJS\': <function ASSIGNJS>, \'Affine2D\': <class \'matplotlib.transforms.Affine2D\'>, \'AppConfig\': <function AppConfig>, \'Artist\': <class \'matplotlib.artist.Artist\'>, \'Auth\': <class \'gluon.tools.Auth\'>, \'Axes\': <class \'matplotlib.axes._axes.Axes\'>, \'AxesStack\': <class \'matplotlib.figure.AxesStack\'>, \'B\': <class \'gluon.html.B\'>, ...}, layer=\'/home/www-data/web2py/applications/Qualidade_Ambiental/controllers/plotdados.py\', scode=<code object <module> at 0x7f1a98902cb0, file "/...ade_Ambiental/controllers/plotdados.py", line 26>)'
p86
sS'func'
p87
S'restricted'
p88
sa(dp89
g64
S'/home/www-data/web2py/applications/Qualidade_Ambiental/controllers/plotdados.py'
p90
sg66
(dp91
sg72
I122
sg73
(dp92
I112
S'\tfor i in query:'
p93
sI113
S"\t\tx.append(i['Atividade'].replace('Ponto de Apoio - ','')) #.encode('utf-8'))"
p94
sI114
S'\t\tfor k,v in i.items():'
p95
sI115
S"\t\t\tif k != 'Atividade':"
p96
sI116
S'\t\t\t\tif v != None:'
p97
sI117
S'\t\t\t\t\ty.append(v)'
p98
sI118
S'\tfor i in zip(x,y):'
p99
sI119
S'\t\tlxy.append(i)'
p100
sI120
S'\tlegendgrau = 340'
p101
sI121
S"\treturn plot( title=title, xlab=xlab, ylab=ylab,  mode='bar', data={u'Volume por P.A.': lxy}, legendgrau=legendgrau)"
p102
ssg85
S'()'
p103
sg87
S'<module>'
p104
sa(dp105
g64
S'/home/www-data/web2py/gluon/globals.py'
p106
sg66
(dp107
S'self'
p108
S'undefined'
p109
sS'f'
S'<function voldia>'
p110
ssg72
I421
sg73
(dp111
I416
S"        self.flash = ''            # used by the default view layout"
p112
sI417
S'        self.meta = Storage()      # used by web2py_ajax.html'
p113
sI418
S'        self.menu = []             # used by the default view layout'
p114
sI419
S'        self.files = []            # used by web2py_ajax.html'
p115
sI420
S'        self._vars = None'
p116
sI421
S'        self._caller = lambda f: f()'
p117
sI422
S'        self._view_environment = None'
p118
sI423
S'        self._custom_commit = None'
p119
sI424
S'        self._custom_rollback = None'
p120
sI425
S"        self.generic_patterns = ['*']"
p121
ssg85
S'(f=<function voldia>)'
p122
sg87
S'<lambda>'
p123
sa(dp124
g64
S'/home/www-data/web2py/gluon/cache.py'
p125
sg66
(dp126
S'cache_key'
p127
S"'62efd153639825c0f8d7b438d40a0b9b'"
p128
sS'rtn'
p129
g109
sS'time_expire'
p130
S'18'
p131
sS'func'
p132
S'<function voldia>'
p133
sS'cache_model'
p134
S'<gluon.cache.CacheOnDisk object>'
p135
ssg72
I632
sg73
(dp136
I627
S"                    cache_key = hashlib_md5('__'.join(cache_key)).hexdigest()"
p137
sI628
S'                    if prefix:'
p138
sI629
S'                        cache_key = prefix + cache_key'
p139
sI630
S'                    try:'
p140
sI631
S'                        # action returns something'
p141
sI632
S'                        rtn = cache_model(cache_key, lambda: func(), time_expire=time_expire)'
p142
sI633
S'                        http, status = None, current.response.status'
p143
sI634
S'                    except HTTP as e:'
p144
sI635
S'                        # action raises HTTP (can still be valid)'
p145
sI636
S'                        rtn = cache_model(cache_key, lambda: e.body, time_expire=time_expire)'
p146
ssg85
S'()'
p147
sg87
S'wrapped_f'
p148
sa(dp149
g64
S'/home/www-data/web2py/gluon/cache.py'
p150
sg66
(dp151
S'value'
p152
g109
sS'f'
S'<function <lambda>>'
p153
ssg72
I462
sg73
(dp154
I457
S''
sI458
S'        if item and ((dt is None) or (item[0] > now - dt)):'
p155
sI459
S'            value = item[1]'
p156
sI460
S'        else:'
p157
sI461
S'            try:'
p158
sI462
S'                value = f()'
p159
sI463
S'            except:'
p160
sI464
S'                self.storage.release(CacheAbstract.cache_stats_name)'
p161
sI465
S'                self.storage.release(key)'
p162
sI466
S'                raise'
p163
ssg85
S"(self=<gluon.cache.CacheOnDisk object>, key='62efd153639825c0f8d7b438d40a0b9b', f=<function <lambda>>, time_expire=18)"
p164
sg87
S'__call__'
p165
sa(dp166
g64
S'/home/www-data/web2py/gluon/cache.py'
p167
sg66
(dp168
S'cache_key'
p169
g109
sS'rtn'
p170
g109
sS'time_expire'
p171
g109
sS'func'
p172
S'<function voldia>'
p173
sS'cache_model'
p174
g109
ssg72
I632
sg73
(dp175
I627
S"                    cache_key = hashlib_md5('__'.join(cache_key)).hexdigest()"
p176
sI628
S'                    if prefix:'
p177
sI629
S'                        cache_key = prefix + cache_key'
p178
sI630
S'                    try:'
p179
sI631
S'                        # action returns something'
p180
sI632
S'                        rtn = cache_model(cache_key, lambda: func(), time_expire=time_expire)'
p181
sI633
S'                        http, status = None, current.response.status'
p182
sI634
S'                    except HTTP as e:'
p183
sI635
S'                        # action raises HTTP (can still be valid)'
p184
sI636
S'                        rtn = cache_model(cache_key, lambda: e.body, time_expire=time_expire)'
p185
ssg85
S'()'
p186
sg87
g123
sa(dp187
g64
S'/home/www-data/web2py/applications/Qualidade_Ambiental/controllers/plotdados.py'
p188
sg66
(dp189
S'xlab'
p190
S"u'dia do m\\xeas'"
p191
sS'title'
p192
S"u'Volume de res\\xedduos por dia no Ponto de Apoio - Eng. Schmitt'"
p193
sS'legendgrau'
p194
S'300'
p195
sS'global plot'
p196
S'<function plot>'
p197
sS'lxy'
p198
S'[]'
p199
sS'mode'
p200
g109
sS'ylab'
p201
S"u'Vol. em metros c\\xfabicos (m3)'"
p202
sS'data'
p203
g109
ssg72
I67
sg73
(dp204
I64
S'\tfor i in zip(x,y):'
p205
sI65
S'\t\tlxy.append(i)'
p206
sI66
S'\tlegendgrau = 300'
p207
sI67
S"\treturn plot( title=title, xlab=xlab, ylab=ylab,  mode='bar', data={'soma do volume informados': lxy}, legendgrau=legendgrau)"
p208
sI68
S''
sI69
S'def pontores(): #Grafico de res\xc3\xadduos no ponto selecionado'
p209
sI70
S''
sI71
S'\tquery = db.executesql("SELECT SUM( ( `Volume` * `Entulho` ) / ( `Moveis` + `Ferro` + `Entulho` + `PlastPapel` + `Eletron` + `Poda` ) ) AS `Entulho`, SUM( ( `Volume` * `Poda` ) / ( `Moveis` + `Ferro` + `Entulho` + `PlastPapel` + `Eletron` + `Poda` ) ) AS `Poda`, SUM( ( `Volume` * `Moveis` ) / ( `Moveis` + `Ferro` + `Entulho` + `PlastPapel` + `Eletron` + `Poda` ) ) AS `Moveis`, SUM( ( `Volume` * `Ferro` ) / ( `Moveis` + `Ferro` + `Entulho` + `PlastPapel` + `Eletron` + `Poda` ) ) AS `Ferro`,  SUM( ( `Volume` * `PlastPapel` ) / ( `Moveis` + `Ferro` + `Entulho` + `PlastPapel` + `Eletron` + `Poda` ) ) AS `Plast.Papel`, SUM( ( `Volume` * `Eletron` ) / ( `Moveis` + `Ferro` + `Entulho` + `PlastPapel` + `Eletron` + `Poda` ) ) AS `Eletron.` FROM `DBResiduos`.`UnidadeDestino` AS `UnidadeDestino`, `Tconect`.`EntradaPonto` AS `EntradaPonto` WHERE `UnidadeDestino`.`Id` = `EntradaPonto`.`IdPonto` AND `EntradaPonto`.`Data` BETWEEN \'{}\' AND \'{}\' AND `EntradaPonto`.`IdPonto` = \'{}\'".format(session.Inicio,session.Fim,session.IdPonto), as_dict=True)'
p210
sI62
S"\t\ty.append(int(query[v]['Volume']))"
p211
sI63
S'\tlxy = []'
p212
ssg85
S'()'
p213
sg87
S'voldia'
p214
sa(dp215
g64
S'/home/www-data/web2py/applications/Qualidade_Ambiental/modules/plotador.py'
p216
sg66
(dp217
S'y'
S"'soma do volume informados'"
p218
sS'ax'
p219
S'<matplotlib.axes._subplots.AxesSubplot object>'
p220
sS'legend'
p221
S"[(<Container object of 0 artists>, 'soma do volume informados')]"
p222
sS'ax.legend'
p223
S'<bound method AxesSubplot.legend of <matplotlib.axes._subplots.AxesSubplot object>>'
p224
sS'x'
S'<Container object of 0 artists>'
p225
ssg72
I58
sg73
(dp226
I53
S'            ell = ax.plot(x, y)'
p227
sI54
S'            legend.append((ell,key))'
p228
sI55
S'        else:'
p229
sI56
S'            ell = ax.hist(y,35)'
p230
sI57
S'    if legend:'
p231
sI58
S'        ax.legend([x for (x,y) in legend], [y for (x,y) in legend])'
p232
sI59
S'    ax.tick_params(labelrotation=legendgrau,width=0.4, length=2   , labelsize=9)'
p233
sI60
S"    ax.grid(color='#95a5a6', linestyle='--', linewidth=1, axis='y', alpha=0.6)"
p234
sI61
S'    canvas=FigureCanvas(fig)'
p235
sI62
S'    stream= BytesIO()'
p236
ssg85
S"(title=u'Volume de res\\xedduos por dia no Ponto de Apoio - Eng. Schmitt', xlab=u'dia do m\\xeas', ylab=u'Vol. em metros c\\xfabicos (m3)', mode='bar', data={'soma do volume informados': []}, legendgrau=300)"
p237
sg87
S'plot'
p238
sa(dp239
g64
S'/usr/lib/python2.7/dist-packages/matplotlib/axes/_axes.py'
p240
sg66
(dp241
S'self'
p242
S'<matplotlib.axes._subplots.AxesSubplot object>'
p243
sS'labels'
p244
S"['soma do volume informados']"
p245
sS'mlegend.Legend'
p246
S"<class 'matplotlib.legend.Legend'>"
p247
sS'handles'
p248
S'[<Container object of 0 artists>]'
p249
sS'kwargs'
p250
g19
sS'global mlegend'
p251
S"<module 'matplotlib.legend' from '/usr/lib/python2.7/dist-packages/matplotlib/legend.pyc'>"
p252
sS'self.legend_'
p253
S'None'
p254
ssg72
I500
sg73
(dp255
I495
S'                [self],'
p256
sI496
S'                *args,'
p257
sI497
S'                **kwargs)'
p258
sI498
S'        if len(extra_args):'
p259
sI499
S"            raise TypeError('legend only accepts two non-keyword arguments')"
p260
sI500
S'        self.legend_ = mlegend.Legend(self, handles, labels, **kwargs)'
p261
sI501
S"        self.legend_._remove_method = lambda h: setattr(self, 'legend_', None)"
p262
sI502
S'        return self.legend_'
p263
sI503
S''
sI504
S'    def text(self, x, y, s, fontdict=None, withdash=False, **kwargs):'
p264
ssg85
S"(self=<matplotlib.axes._subplots.AxesSubplot object>, *args=([<Container object of 0 artists>], ['soma do volume informados']), **kwargs={})"
p265
sg87
S'legend'
p266
sa(dp267
g64
S'/usr/lib/python2.7/dist-packages/matplotlib/legend.py'
p268
sg66
(dp269
S'self._init_legend_box'
p270
S'<bound method Legend._init_legend_box of <matplotlib.legend.Legend object>>'
p271
sS'self'
p272
S'<matplotlib.legend.Legend object>'
p273
sS'labels'
p274
S"['soma do volume informados']"
p275
sS'handles'
p276
S'[<Container object of 0 artists>]'
p277
sS'markerfirst'
p278
S'True'
p279
ssg72
I693
sg73
(dp280
I688
S'        self._drawFrame = frameon'
p281
sI689
S'        if frameon is None:'
p282
sI690
S'            self._drawFrame = rcParams["legend.frameon"]'
p283
sI691
S''
sI692
S'        # init with null renderer'
p284
sI693
S'        self._init_legend_box(handles, labels, markerfirst)'
p285
sI694
S''
sI695
S'        # If shadow is activated use framealpha if not'
p286
sI696
S'        # explicitly passed. See Issue 8943'
p287
sI697
S'        if framealpha is None:'
p288
ssg85
S"(self=<matplotlib.legend.Legend object>, parent=<matplotlib.axes._subplots.AxesSubplot object>, handles=[<Container object of 0 artists>], labels=['soma do volume informados'], loc=0, numpoints=None, markerscale=None, markerfirst=True, scatterpoints=None, scatteryoffsets=None, prop=None, fontsize=None, borderpad=None, labelspacing=None, handlelength=None, handleheight=None, handletextpad=None, borderaxespad=None, columnspacing=None, ncol=1, mode=None, fancybox=True, shadow=None, title=None, framealpha=None, edgecolor=u'0.8', facecolor=u'w', bbox_to_anchor=None, bbox_transform=None, frameon=None, handler_map=None)"
p289
sg87
g24
sa(dp290
g64
S'/usr/lib/python2.7/dist-packages/matplotlib/legend.py'
p291
sg66
(dp292
S'handlebox'
p293
S'<matplotlib.offsetbox.DrawingArea object>'
p294
sS'fontsize'
p295
S'10.0'
p296
ssg72
I953
sg73
(dp297
I948
S'                handleboxes.append(handlebox)'
p298
sI949
S''
sI950
S'                # Create the artist for the legend which represents the'
p299
sI951
S'                # original artist/handle.'
p300
sI952
S'                handle_list.append(handler.legend_artist(self, orig_handle,'
p301
sI953
S'                                                         fontsize, handlebox))'
p302
sI954
S''
sI955
S'        if handleboxes:'
p303
sI956
S'            # We calculate number of rows in each column. The first'
p304
sI957
S'            # (num_largecol) columns will have (nrows+1) rows, and remaining'
p305
ssg85
S"(self=<matplotlib.legend.Legend object>, handles=[<Container object of 0 artists>], labels=['soma do volume informados'], markerfirst=True)"
p306
sg87
S'_init_legend_box'
p307
sa(dp308
g64
S'/usr/lib/python2.7/dist-packages/matplotlib/legend_handler.py'
p309
sg66
(dp310
S'handlebox'
p311
S'<matplotlib.offsetbox.DrawingArea object>'
p312
sS'handlebox.get_transform'
p313
S'<bound method DrawingArea.get_transform of <matplotlib.offsetbox.DrawingArea object>>'
p314
sS'fontsize'
p315
S'10.0'
p316
ssg72
I120
sg73
(dp317
I115
S'                 handlebox.xdescent, handlebox.ydescent,'
p318
sI116
S'                 handlebox.width, handlebox.height,'
p319
sI117
S'                 fontsize)'
p320
sI118
S'        artists = self.create_artists(legend, orig_handle,'
p321
sI119
S'                                      xdescent, ydescent, width, height,'
p322
sI120
S'                                      fontsize, handlebox.get_transform())'
p323
sI121
S''
sI122
S'        # create_artists will return a list of artists.'
p324
sI123
S'        for a in artists:'
p325
sI124
S'            handlebox.add_artist(a)'
p326
ssg85
S'(self=<matplotlib.legend_handler.HandlerPatch object>, legend=<matplotlib.legend.Legend object>, orig_handle=<Container object of 0 artists>, fontsize=10.0, handlebox=<matplotlib.offsetbox.DrawingArea object>)'
p327
sg87
S'legend_artist'
p328
sa(dp329
g64
S'/usr/lib/python2.7/dist-packages/matplotlib/legend_handler.py'
p330
sg66
(dp331
S'p'
S'<matplotlib.patches.Rectangle object>'
p332
sS'self'
p333
S'<matplotlib.legend_handler.HandlerPatch object>'
p334
sS'legend'
p335
S'<matplotlib.legend.Legend object>'
p336
sS'self.update_prop'
p337
S'<bound method HandlerPatch.update_prop of <matplotlib.legend_handler.HandlerPatch object>>'
p338
sS'orig_handle'
p339
S'<Container object of 0 artists>'
p340
ssg72
I252
sg73
(dp341
I256
S''
sI247
S''
sI248
S'    def create_artists(self, legend, orig_handle,'
p342
sI249
S'                       xdescent, ydescent, width, height, fontsize, trans):'
p343
sI250
S'        p = self._create_patch(legend, orig_handle,'
p344
sI251
S'                               xdescent, ydescent, width, height, fontsize)'
p345
sI252
S'        self.update_prop(p, orig_handle, legend)'
p346
sI253
S'        p.set_transform(trans)'
p347
sI254
S'        return [p]'
p348
sI255
S''
ssg85
S'(self=<matplotlib.legend_handler.HandlerPatch object>, legend=<matplotlib.legend.Legend object>, orig_handle=<Container object of 0 artists>, xdescent=0.0, ydescent=0.0, width=20.0, height=7.0, fontsize=10.0, trans=CompositeAffine2D(Affine2D(array([[ 1.,  0.,  0....      [ 0.,  1.,  0.],\n       [ 0.,  0.,  1.]]))))'
p349
sg87
S'create_artists'
p350
sa(dp351
g64
S'/usr/lib/python2.7/dist-packages/matplotlib/legend_handler.py'
p352
sg66
(dp353
S'self._update_prop'
p354
S'<bound method HandlerPatch._update_prop of <matplotlib.legend_handler.HandlerPatch object>>'
p355
sS'self'
p356
S'<matplotlib.legend_handler.HandlerPatch object>'
p357
sS'orig_handle'
p358
S'<Container object of 0 artists>'
p359
sS'legend_handle'
p360
S'<matplotlib.patches.Rectangle object>'
p361
ssg72
I77
sg73
(dp362
I72
S'    def _default_update_prop(self, legend_handle, orig_handle):'
p363
sI73
S'        legend_handle.update_from(orig_handle)'
p364
sI74
S''
sI75
S'    def update_prop(self, legend_handle, orig_handle, legend):'
p365
sI76
S''
sI77
S'        self._update_prop(legend_handle, orig_handle)'
p366
sI78
S''
sI79
S'        legend._set_artist_props(legend_handle)'
p367
sI80
S'        legend_handle.set_clip_box(None)'
p368
sI81
S'        legend_handle.set_clip_path(None)'
p369
ssg85
S'(self=<matplotlib.legend_handler.HandlerPatch object>, legend_handle=<matplotlib.patches.Rectangle object>, orig_handle=<Container object of 0 artists>, legend=<matplotlib.legend.Legend object>)'
p370
sg87
S'update_prop'
p371
sa(dp372
g64
S'/usr/lib/python2.7/dist-packages/matplotlib/legend_handler.py'
p373
sg66
(dp374
S'legend_handle'
p375
S'<matplotlib.patches.Rectangle object>'
p376
sS'self'
p377
S'<matplotlib.legend_handler.HandlerPatch object>'
p378
sS'self._update_prop_func'
p379
S'<function update_from_first_child>'
p380
sS'orig_handle'
p381
S'<Container object of 0 artists>'
p382
ssg72
I70
sg73
(dp383
I65
S''
sI66
S'    def _update_prop(self, legend_handle, orig_handle):'
p384
sI67
S'        if self._update_prop_func is None:'
p385
sI68
S'            self._default_update_prop(legend_handle, orig_handle)'
p386
sI69
S'        else:'
p387
sI70
S'            self._update_prop_func(legend_handle, orig_handle)'
p388
sI71
S''
sI72
S'    def _default_update_prop(self, legend_handle, orig_handle):'
p389
sI73
S'        legend_handle.update_from(orig_handle)'
p390
sI74
S''
ssg85
S'(self=<matplotlib.legend_handler.HandlerPatch object>, legend_handle=<matplotlib.patches.Rectangle object>, orig_handle=<Container object of 0 artists>)'
p391
sg87
S'_update_prop'
p392
sa(dp393
g64
S'/usr/lib/python2.7/dist-packages/matplotlib/legend_handler.py'
p394
sg66
(dp395
S'src'
p396
S'<Container object of 0 artists>'
p397
sS'src.get_children'
p398
S'<bound method BarContainer.get_children of <Container object of 0 artists>>'
p399
sS'tgt.update_from'
p400
S'<bound method Rectangle.update_from of <matplotlib.patches.Rectangle object>>'
p401
sS'tgt'
p402
S'<matplotlib.patches.Rectangle object>'
p403
ssg72
I43
sg73
(dp404
I38
S'import matplotlib.collections as mcoll'
p405
sI39
S'import matplotlib.colors as mcolors'
p406
sI40
S''
sI41
S''
sI42
S'def update_from_first_child(tgt, src):'
p407
sI43
S'    tgt.update_from(src.get_children()[0])'
p408
sI44
S''
sI45
S''
sI46
S'class HandlerBase(object):'
p409
sI47
S'    """'
p410
ssg85
S'(tgt=<matplotlib.patches.Rectangle object>, src=<Container object of 0 artists>)'
p411
sg87
S'update_from_first_child'
p412
sasS'pyver'
p413
S'Python 2.7.17: /usr/local/bin/uwsgi (prefix: /usr)'
p414
sS'session'
p415
g59
(S's\x13\x04\x00\x00<div><table><tr><td style="font-weight:bold;vertical-align:top;">Fim</td><td style="vertical-align:top;">:</td><td><div>datetime.date(2019, 12, 19)</div></td></tr><tr><td style="font-weight:bold;vertical-align:top;">IdPonto</td><td style="vertical-align:top;">:</td><td><div>39</div></td></tr><tr><td style="font-weight:bold;vertical-align:top;">Inicio</td><td style="vertical-align:top;">:</td><td><div>datetime.date(2019, 11, 19)</div></td></tr><tr><td style="font-weight:bold;vertical-align:top;">flash</td><td style="vertical-align:top;">:</td><td><div>None</div></td></tr><tr><td style="font-weight:bold;vertical-align:top;">last_orderby</td><td style="vertical-align:top;">:</td><td><div>None</div></td></tr><tr><td style="font-weight:bold;vertical-align:top;">last_query</td><td style="vertical-align:top;">:</td><td><div>db.EntradaPonto.id&gt;0</div></td></tr><tr><td style="font-weight:bold;vertical-align:top;">pontoformat</td><td style="vertical-align:top;">:</td><td><div>Ponto de Apoio - Eng. Schmitt</div></td></tr></table></div>'
tRp416
sS'etype'
p417
S"<type 'exceptions.IndexError'>"
p418
sS'date'
p419
S'Thu Dec 19 08:27:45 2019'
p420
sS'response'
p421
g59
(S'sY@\x00\x00<div><table><tr><td style="font-weight:bold;vertical-align:top;">body</td><td style="vertical-align:top;">:</td><td><div>&lt;cStringIO.StringO object at 0x7f1a988971f0&gt;</div></td></tr><tr><td style="font-weight:bold;vertical-align:top;">cookies</td><td style="vertical-align:top;">:</td><td><div><table><tr><td style="font-weight:bold;vertical-align:top;">session_id_qualidade_ambiental</td><td style="vertical-align:top;">:</td><td><div>127.0.0.1-3220a474-40cc-4adc-b8f4-e61d0663bb51<table><tr><td style="font-weight:bold;vertical-align:top;">comment</td><td style="vertical-align:top;">:</td><td><div></div></td></tr><tr><td style="font-weight:bold;vertical-align:top;">domain</td><td style="vertical-align:top;">:</td><td><div></div></td></tr><tr><td style="font-weight:bold;vertical-align:top;">expires</td><td style="vertical-align:top;">:</td><td><div></div></td></tr><tr><td style="font-weight:bold;vertical-align:top;">httponly</td><td style="vertical-align:top;">:</td><td><div></div></td></tr><tr><td style="font-weight:bold;vertical-align:top;">max-age</td><td style="vertical-align:top;">:</td><td><div></div></td></tr><tr><td style="font-weight:bold;vertical-align:top;">path</td><td style="vertical-align:top;">:</td><td><div>/</div></td></tr><tr><td style="font-weight:bold;vertical-align:top;">samesite</td><td style="vertical-align:top;">:</td><td><div></div></td></tr><tr><td style="font-weight:bold;vertical-align:top;">secure</td><td style="vertical-align:top;">:</td><td><div></div></td></tr><tr><td style="font-weight:bold;vertical-align:top;">version</td><td style="vertical-align:top;">:</td><td><div></div></td></tr></table></div></td></tr></table></div></td></tr><tr><td style="font-weight:bold;vertical-align:top;">delimiters</td><td style="vertical-align:top;">:</td><td><div><table><tr><td><div>{{</div></td></tr><tr><td><div>}}</div></td></tr></table></div></td></tr><tr><td style="font-weight:bold;vertical-align:top;">files</td><td style="vertical-align:top;">:</td><td><div><table></table></div></td></tr><tr><td style="font-weight:bold;vertical-align:top;">flash</td><td style="vertical-align:top;">:</td><td><div></div></td></tr><tr><td style="font-weight:bold;vertical-align:top;">form_label_separator</td><td style="vertical-align:top;">:</td><td><div></div></td></tr><tr><td style="font-weight:bold;vertical-align:top;">formstyle</td><td style="vertical-align:top;">:</td><td><div>bootstrap4_inline</div></td></tr><tr><td style="font-weight:bold;vertical-align:top;">generic_patterns</td><td style="vertical-align:top;">:</td><td><div><table><tr><td><div>*</div></td></tr></table></div></td></tr><tr><td style="font-weight:bold;vertical-align:top;">google_analytics_id</td><td style="vertical-align:top;">:</td><td><div>None</div></td></tr><tr><td style="font-weight:bold;vertical-align:top;">headers</td><td style="vertical-align:top;">:</td><td><div><table><tr><td style="font-weight:bold;vertical-align:top;">Content-Type</td><td style="vertical-align:top;">:</td><td><div>image/png</div></td></tr><tr><td style="font-weight:bold;vertical-align:top;">X-Powered-By</td><td style="vertical-align:top;">:</td><td><div>web2py</div></td></tr></table></div></td></tr><tr><td style="font-weight:bold;vertical-align:top;">menu</td><td style="vertical-align:top;">:</td><td><div><table><tr><td><div><table><tr><td><div>Principal</div></td></tr><tr><td><div>False</div></td></tr><tr><td><div>/Qualidade_Ambiental/default/index.png</div></td></tr><tr><td><div><table></table></div></td></tr></table></div></td></tr><tr><td><div><table><tr><td><div>Meus sites</div></td></tr><tr><td><div>False</div></td></tr><tr><td><div>/admin/default/site.png</div></td></tr></table></div></td></tr><tr><td><div><table><tr><td><div>Esta aplica\xc3\xa7\xc3\xa3o</div></td></tr><tr><td><div>False</div></td></tr><tr><td><div>#</div></td></tr><tr><td><div><table><tr><td><div><table><tr><td><div>Design</div></td></tr><tr><td><div>False</div></td></tr><tr><td><div>/admin/default/design.png/Qualidade_Ambiental</div></td></tr></table></div></td></tr><tr><td><div><table><tr><td><div>Controlador</div></td></tr><tr><td><div>False</div></td></tr><tr><td><div>/admin/default/edit.png/Qualidade_Ambiental/controllers/plotdados.py</div></td></tr></table></div></td></tr><tr><td><div><table><tr><td><div>Visualiza\xc3\xa7\xc3\xa3o</div></td></tr><tr><td><div>False</div></td></tr><tr><td><div>/admin/default/edit.png/Qualidade_Ambiental/views/plotdados/voldia.png</div></td></tr></table></div></td></tr><tr><td><div><table><tr><td><div>Modelo BD</div></td></tr><tr><td><div>False</div></td></tr><tr><td><div>/admin/default/edit.png/Qualidade_Ambiental/models/db.py</div></td></tr></table></div></td></tr><tr><td><div><table><tr><td><div>Modelo de Menu</div></td></tr><tr><td><div>False</div></td></tr><tr><td><div>/admin/default/edit.png/Qualidade_Ambiental/models/menu.py</div></td></tr></table></div></td></tr><tr><td><div><table><tr><td><div>Config.ini</div></td></tr><tr><td><div>False</div></td></tr><tr><td><div>/admin/default/edit.png/Qualidade_Ambiental/private/appconfig.ini</div></td></tr></table></div></td></tr><tr><td><div><table><tr><td><div>Layout</div></td></tr><tr><td><div>False</div></td></tr><tr><td><div>/admin/default/edit.png/Qualidade_Ambiental/views/layout.html</div></td></tr></table></div></td></tr><tr><td><div><table><tr><td><div>Folha de estilo</div></td></tr><tr><td><div>False</div></td></tr><tr><td><div>/admin/default/edit.png/Qualidade_Ambiental/static/css/web2py-bootstrap3.css</div></td></tr></table></div></td></tr><tr><td><div><table><tr><td><div>banco de dados</div></td></tr><tr><td><div>False</div></td></tr><tr><td><div>/Qualidade_Ambiental/appadmin/index.png</div></td></tr></table></div></td></tr><tr><td><div><table><tr><td><div>Erros</div></td></tr><tr><td><div>False</div></td></tr><tr><td><div>/admin/default/errors.png/Qualidade_Ambiental</div></td></tr></table></div></td></tr><tr><td><div><table><tr><td><div>Sobre</div></td></tr><tr><td><div>False</div></td></tr><tr><td><div>/admin/default/about.png/Qualidade_Ambiental</div></td></tr></table></div></td></tr></table></div></td></tr></table></div></td></tr><tr><td><div><table><tr><td><div>web2py.com</div></td></tr><tr><td><div>False</div></td></tr><tr><td><div>#</div></td></tr><tr><td><div><table><tr><td><div><table><tr><td><div>Download</div></td></tr><tr><td><div>False</div></td></tr><tr><td><div>http://www.web2py.com/examples/default/download</div></td></tr></table></div></td></tr><tr><td><div><table><tr><td><div>Suporte</div></td></tr><tr><td><div>False</div></td></tr><tr><td><div>http://www.web2py.com/examples/default/support</div></td></tr></table></div></td></tr><tr><td><div><table><tr><td><div>Demo</div></td></tr><tr><td><div>False</div></td></tr><tr><td><div>http://web2py.com/demo_admin</div></td></tr></table></div></td></tr><tr><td><div><table><tr><td><div>Exemplos r\xc3\xa1pidos</div></td></tr><tr><td><div>False</div></td></tr><tr><td><div>http://web2py.com/examples/default/examples</div></td></tr></table></div></td></tr><tr><td><div><table><tr><td><div>Perguntas frequentes</div></td></tr><tr><td><div>False</div></td></tr><tr><td><div>http://web2py.com/AlterEgo</div></td></tr></table></div></td></tr><tr><td><div><table><tr><td><div>V\xc3\xaddeos</div></td></tr><tr><td><div>False</div></td></tr><tr><td><div>http://www.web2py.com/examples/default/videos/</div></td></tr></table></div></td></tr><tr><td><div><table><tr><td><div>Aplica\xc3\xa7\xc3\xb5es gratuitas</div></td></tr><tr><td><div>False</div></td></tr><tr><td><div>http://web2py.com/appliances</div></td></tr></table></div></td></tr><tr><td><div><table><tr><td><div>Plugins</div></td></tr><tr><td><div>False</div></td></tr><tr><td><div>http://web2py.com/plugins</div></td></tr></table></div></td></tr><tr><td><div><table><tr><td><div>Receitas</div></td></tr><tr><td><div>False</div></td></tr><tr><td><div>http://web2pyslices.com/</div></td></tr></table></div></td></tr></table></div></td></tr></table></div></td></tr><tr><td><div><table><tr><td><div>Documenta\xc3\xa7\xc3\xa3o</div></td></tr><tr><td><div>False</div></td></tr><tr><td><div>#</div></td></tr><tr><td><div><table><tr><td><div><table><tr><td><div>Online book</div></td></tr><tr><td><div>False</div></td></tr><tr><td><div>http://www.web2py.com/book</div></td></tr></table></div></td></tr><tr><td><div><table><tr><td><div>Pref\xc3\xa1cio</div></td></tr><tr><td><div>False</div></td></tr><tr><td><div>http://www.web2py.com/book/default/chapter/00</div></td></tr></table></div></td></tr><tr><td><div><table><tr><td><div>Introdu\xc3\xa7\xc3\xa3o</div></td></tr><tr><td><div>False</div></td></tr><tr><td><div>http://www.web2py.com/book/default/chapter/01</div></td></tr></table></div></td></tr><tr><td><div><table><tr><td><div>Python</div></td></tr><tr><td><div>False</div></td></tr><tr><td><div>http://www.web2py.com/book/default/chapter/02</div></td></tr></table></div></td></tr><tr><td><div><table><tr><td><div>Vis\xc3\xa3o Geral</div></td></tr><tr><td><div>False</div></td></tr><tr><td><div>http://www.web2py.com/book/default/chapter/03</div></td></tr></table></div></td></tr><tr><td><div><table><tr><td><div>The Core</div></td></tr><tr><td><div>False</div></td></tr><tr><td><div>http://www.web2py.com/book/default/chapter/04</div></td></tr></table></div></td></tr><tr><td><div><table><tr><td><div>As views</div></td></tr><tr><td><div>False</div></td></tr><tr><td><div>http://www.web2py.com/book/default/chapter/05</div></td></tr></table></div></td></tr><tr><td><div><table><tr><td><div>banco de dados</div></td></tr><tr><td><div>False</div></td></tr><tr><td><div>http://www.web2py.com/book/default/chapter/06</div></td></tr></table></div></td></tr><tr><td><div><table><tr><td><div>Formul\xc3\xa1rios e Validadores</div></td></tr><tr><td><div>False</div></td></tr><tr><td><div>http://www.web2py.com/book/default/chapter/07</div></td></tr></table></div></td></tr><tr><td><div><table><tr><td><div>Email e SMS</div></td></tr><tr><td><div>False</div></td></tr><tr><td><div>http://www.web2py.com/book/default/chapter/08</div></td></tr></table></div></td></tr><tr><td><div><table><tr><td><div>Controle de Acesso</div></td></tr><tr><td><div>False</div></td></tr><tr><td><div>http://www.web2py.com/book/default/chapter/09</div></td></tr></table></div></td></tr><tr><td><div><table><tr><td><div>Servi\xc3\xa7o</div></td></tr><tr><td><div>False</div></td></tr><tr><td><div>http://www.web2py.com/book/default/chapter/10</div></td></tr></table></div></td></tr><tr><td><div><table><tr><td><div>Receitas de Ajax</div></td></tr><tr><td><div>False</div></td></tr><tr><td><div>http://www.web2py.com/book/default/chapter/11</div></td></tr></table></div></td></tr><tr><td><div><table><tr><td><div>Componentes e Plugins</div></td></tr><tr><td><div>False</div></td></tr><tr><td><div>http://www.web2py.com/book/default/chapter/12</div></td></tr></table></div></td></tr><tr><td><div><table><tr><td><div>Receitas de deploy</div></td></tr><tr><td><div>False</div></td></tr><tr><td><div>http://www.web2py.com/book/default/chapter/13</div></td></tr></table></div></td></tr><tr><td><div><table><tr><td><div>Outras Receitas</div></td></tr><tr><td><div>False</div></td></tr><tr><td><div>http://www.web2py.com/book/default/chapter/14</div></td></tr></table></div></td></tr><tr><td><div><table><tr><td><div>Helping web2py</div></td></tr><tr><td><div>False</div></td></tr><tr><td><div>http://www.web2py.com/book/default/chapter/15</div></td></tr></table></div></td></tr><tr><td><div><table><tr><td><div>Compre o livro do web2py</div></td></tr><tr><td><div>False</div></td></tr><tr><td><div>http://stores.lulu.com/web2py</div></td></tr></table></div></td></tr></table></div></td></tr></table></div></td></tr><tr><td><div><table><tr><td><div>Comunidade</div></td></tr><tr><td><div>False</div></td></tr><tr><td><div>None</div></td></tr><tr><td><div><table><tr><td><div><table><tr><td><div>Grupos</div></td></tr><tr><td><div>False</div></td></tr><tr><td><div>http://www.web2py.com/examples/default/usergroups</div></td></tr></table></div></td></tr><tr><td><div><table><tr><td><div>Twitter</div></td></tr><tr><td><div>False</div></td></tr><tr><td><div>http://twitter.com/web2py</div></td></tr></table></div></td></tr><tr><td><div><table><tr><td><div>Chat ao vivo</div></td></tr><tr><td><div>False</div></td></tr><tr><td><div>http://webchat.freenode.net/?channels=web2py</div></td></tr></table></div></td></tr></table></div></td></tr></table></div></td></tr></table></div></td></tr><tr><td style="font-weight:bold;vertical-align:top;">meta</td><td style="vertical-align:top;">:</td><td><div><table><tr><td style="font-weight:bold;vertical-align:top;">author</td><td style="vertical-align:top;">:</td><td><div>Carlos A Locatelli Jr &lt;call.jmail@gmail.com&gt;</div></td></tr><tr><td style="font-weight:bold;vertical-align:top;">description</td><td style="vertical-align:top;">:</td><td><div>Sistema Python Web2py e Banco Mysql Desenvolvido para gest\xc3\xa3o da SMAURB</div></td></tr><tr><td style="font-weight:bold;vertical-align:top;">generator</td><td style="vertical-align:top;">:</td><td><div>Web2py Web Framework</div></td></tr><tr><td style="font-weight:bold;vertical-align:top;">keywords</td><td style="vertical-align:top;">:</td><td><div><table><tr><td><div>web2py</div></td></tr><tr><td><div>python</div></td></tr><tr><td><div>framework</div></td></tr></table></div></td></tr></table></div></td></tr><tr><td style="font-weight:bold;vertical-align:top;">models_to_run</td><td style="vertical-align:top;">:</td><td><div><table><tr><td><div>^\\w+\\.py$</div></td></tr><tr><td><div>^plotdados/\\w+\\.py$</div></td></tr><tr><td><div>^plotdados/voldia/\\w+\\.py$</div></td></tr></table></div></td></tr><tr><td style="font-weight:bold;vertical-align:top;">postprocessing</td><td style="vertical-align:top;">:</td><td><div><table></table></div></td></tr><tr><td style="font-weight:bold;vertical-align:top;">session_client</td><td style="vertical-align:top;">:</td><td><div>127.0.0.1</div></td></tr><tr><td style="font-weight:bold;vertical-align:top;">session_cookie_compression_level</td><td style="vertical-align:top;">:</td><td><div>None</div></td></tr><tr><td style="font-weight:bold;vertical-align:top;">session_cookie_expires</td><td style="vertical-align:top;">:</td><td><div>None</div></td></tr><tr><td style="font-weight:bold;vertical-align:top;">session_data_name</td><td style="vertical-align:top;">:</td><td><div>session_data_qualidade_ambiental</div></td></tr><tr><td style="font-weight:bold;vertical-align:top;">session_file</td><td style="vertical-align:top;">:</td><td><div>&lt;open file &#x27;/home/www-data/web2py/applications/Qualidade_Ambiental/sessions/087/05c/127.0.0.1-3220a474-40cc-4adc-b8f4-e61d0663bb51&#x27;, mode &#x27;rb+&#x27; at 0x7f1aa11915d0&gt;</div></td></tr><tr><td style="font-weight:bold;vertical-align:top;">session_filename</td><td style="vertical-align:top;">:</td><td><div>/home/www-data/web2py/applications/Qualidade_Ambiental/sessions/127.0.0.1-3220a474-40cc-4adc-b8f4-e61d0663bb51</div></td></tr><tr><td style="font-weight:bold;vertical-align:top;">session_hash</td><td style="vertical-align:top;">:</td><td><div>c342e0dff6f3d0194aff7d185a5c9e7f</div></td></tr><tr><td style="font-weight:bold;vertical-align:top;">session_id</td><td style="vertical-align:top;">:</td><td><div>127.0.0.1-3220a474-40cc-4adc-b8f4-e61d0663bb51</div></td></tr><tr><td style="font-weight:bold;vertical-align:top;">session_id_name</td><td style="vertical-align:top;">:</td><td><div>session_id_qualidade_ambiental</div></td></tr><tr><td style="font-weight:bold;vertical-align:top;">session_locked</td><td style="vertical-align:top;">:</td><td><div>True</div></td></tr><tr><td style="font-weight:bold;vertical-align:top;">session_masterapp</td><td style="vertical-align:top;">:</td><td><div>Qualidade_Ambiental</div></td></tr><tr><td style="font-weight:bold;vertical-align:top;">session_new</td><td style="vertical-align:top;">:</td><td><div>False</div></td></tr><tr><td style="font-weight:bold;vertical-align:top;">session_storage_type</td><td style="vertical-align:top;">:</td><td><div>file</div></td></tr><tr><td style="font-weight:bold;vertical-align:top;">show_toolbar</td><td style="vertical-align:top;">:</td><td><div>False</div></td></tr><tr><td style="font-weight:bold;vertical-align:top;">status</td><td style="vertical-align:top;">:</td><td><div>200</div></td></tr><tr><td style="font-weight:bold;vertical-align:top;">view</td><td style="vertical-align:top;">:</td><td><div>plotdados/voldia.png</div></td></tr></table></div>'
tRp422
sS'locals'
p423
(dp424
S'src'
p425
S'<Container object of 0 artists>'
p426
sS'tgt'
p427
S'<matplotlib.patches.Rectangle object>'
p428
sssS'traceback'
p429
S'Traceback (most recent call last):\n  File "/home/www-data/web2py/gluon/restricted.py", line 219, in restricted\n    exec(ccode, environment)\n  File "/home/www-data/web2py/applications/Qualidade_Ambiental/controllers/plotdados.py", line 122, in <module>\n  File "/home/www-data/web2py/gluon/globals.py", line 421, in <lambda>\n    self._caller = lambda f: f()\n  File "/home/www-data/web2py/gluon/cache.py", line 632, in wrapped_f\n    rtn = cache_model(cache_key, lambda: func(), time_expire=time_expire)\n  File "/home/www-data/web2py/gluon/cache.py", line 462, in __call__\n    value = f()\n  File "/home/www-data/web2py/gluon/cache.py", line 632, in <lambda>\n    rtn = cache_model(cache_key, lambda: func(), time_expire=time_expire)\n  File "/home/www-data/web2py/applications/Qualidade_Ambiental/controllers/plotdados.py", line 67, in voldia\n    return plot( title=title, xlab=xlab, ylab=ylab,  mode=\'bar\', data={\'soma do volume informados\': lxy}, legendgrau=legendgrau)\n  File "applications/Qualidade_Ambiental/modules/plotador.py", line 58, in plot\n    ax.legend([x for (x,y) in legend], [y for (x,y) in legend])\n  File "/usr/lib/python2.7/dist-packages/matplotlib/axes/_axes.py", line 500, in legend\n    self.legend_ = mlegend.Legend(self, handles, labels, **kwargs)\n  File "/usr/lib/python2.7/dist-packages/matplotlib/legend.py", line 693, in __init__\n    self._init_legend_box(handles, labels, markerfirst)\n  File "/usr/lib/python2.7/dist-packages/matplotlib/legend.py", line 953, in _init_legend_box\n    fontsize, handlebox))\n  File "/usr/lib/python2.7/dist-packages/matplotlib/legend_handler.py", line 120, in legend_artist\n    fontsize, handlebox.get_transform())\n  File "/usr/lib/python2.7/dist-packages/matplotlib/legend_handler.py", line 252, in create_artists\n    self.update_prop(p, orig_handle, legend)\n  File "/usr/lib/python2.7/dist-packages/matplotlib/legend_handler.py", line 77, in update_prop\n    self._update_prop(legend_handle, orig_handle)\n  File "/usr/lib/python2.7/dist-packages/matplotlib/legend_handler.py", line 70, in _update_prop\n    self._update_prop_func(legend_handle, orig_handle)\n  File "/usr/lib/python2.7/dist-packages/matplotlib/legend_handler.py", line 43, in update_from_first_child\n    tgt.update_from(src.get_children()[0])\nIndexError: list index out of range\n'
p430
s.