(dp1
S'output'
p2
S"<type 'exceptions.NameError'> name 'IS_IN_RANGE' is not defined"
p3
sS'layer'
p4
S'/home/www-data/web2py/applications/Qualidade_Ambiental/models/db.py'
p5
sS'code'
p6
S'<code object <module> at 0x7f85dfe4acb0, file "/home/www-data/web2py/applications/Qualidade_Ambiental/models/db.py", line 7>'
p7
sS'snapshot'
p8
(dp9
S'exception'
p10
(dp11
S'__getslice__'
p12
S"<method-wrapper '__getslice__' of exceptions.NameError object>"
p13
sS'__str__'
p14
S"<method-wrapper '__str__' of exceptions.NameError object>"
p15
sS'__reduce__'
p16
S'<built-in method __reduce__ of exceptions.NameError object>'
p17
sS'__dict__'
p18
S'{}'
p19
sS'message'
p20
S'"name \'IS_IN_RANGE\' is not defined"'
p21
sS'__sizeof__'
p22
S'<built-in method __sizeof__ of exceptions.NameError object>'
p23
sS'__init__'
p24
S"<method-wrapper '__init__' of exceptions.NameError object>"
p25
sS'__setattr__'
p26
S"<method-wrapper '__setattr__' of exceptions.NameError object>"
p27
sS'__reduce_ex__'
p28
S'<built-in method __reduce_ex__ of exceptions.NameError object>'
p29
sS'__new__'
p30
S'<built-in method __new__ of type object>'
p31
sS'__format__'
p32
S'<built-in method __format__ of exceptions.NameError object>'
p33
sS'__class__'
p34
S"<type 'exceptions.NameError'>"
p35
sS'__doc__'
p36
S"'Name not found globally.'"
p37
sS'__getitem__'
p38
S"<method-wrapper '__getitem__' of exceptions.NameError object>"
p39
sS'__setstate__'
p40
S'<built-in method __setstate__ of exceptions.NameError object>'
p41
sS'__getattribute__'
p42
S"<method-wrapper '__getattribute__' of exceptions.NameError object>"
p43
sS'args'
p44
S'("name \'IS_IN_RANGE\' is not defined",)'
p45
sS'__subclasshook__'
p46
S'<built-in method __subclasshook__ of type object>'
p47
sS'__unicode__'
p48
S'<built-in method __unicode__ of exceptions.NameError object>'
p49
sS'__delattr__'
p50
S"<method-wrapper '__delattr__' of exceptions.NameError object>"
p51
sS'__repr__'
p52
S"<method-wrapper '__repr__' of exceptions.NameError object>"
p53
sS'__hash__'
p54
S"<method-wrapper '__hash__' of exceptions.NameError object>"
p55
ssS'evalue'
p56
S"name 'IS_IN_RANGE' is not defined"
p57
sS'request'
p58
cgluon.html
XML_unpickle
p59
(S's\x90h\x00\x00<div><table><tr><td style="font-weight:bold;vertical-align:top;">ajax</td><td style="vertical-align:top;">:</td><td><div>False</div></td></tr><tr><td style="font-weight:bold;vertical-align:top;">application</td><td style="vertical-align:top;">:</td><td><div>Qualidade_Ambiental</div></td></tr><tr><td style="font-weight:bold;vertical-align:top;">args</td><td style="vertical-align:top;">:</td><td><div><table><tr><td><div>db</div></td></tr><tr><td><div>EntradaPonto</div></td></tr></table></div></td></tr><tr><td style="font-weight:bold;vertical-align:top;">cid</td><td style="vertical-align:top;">:</td><td><div>None</div></td></tr><tr><td style="font-weight:bold;vertical-align:top;">client</td><td style="vertical-align:top;">:</td><td><div>127.0.0.1</div></td></tr><tr><td style="font-weight:bold;vertical-align:top;">controller</td><td style="vertical-align:top;">:</td><td><div>appadmin</div></td></tr><tr><td style="font-weight:bold;vertical-align:top;">cookies</td><td style="vertical-align:top;">:</td><td><div><table><tr><td style="font-weight:bold;vertical-align:top;">session_id_admin</td><td style="vertical-align:top;">:</td><td><div>127.0.0.1-3a49723e-43ec-4749-ba05-8e59b10f7e85<table><tr><td style="font-weight:bold;vertical-align:top;">comment</td><td style="vertical-align:top;">:</td><td><div></div></td></tr><tr><td style="font-weight:bold;vertical-align:top;">domain</td><td style="vertical-align:top;">:</td><td><div></div></td></tr><tr><td style="font-weight:bold;vertical-align:top;">expires</td><td style="vertical-align:top;">:</td><td><div></div></td></tr><tr><td style="font-weight:bold;vertical-align:top;">httponly</td><td style="vertical-align:top;">:</td><td><div></div></td></tr><tr><td style="font-weight:bold;vertical-align:top;">max-age</td><td style="vertical-align:top;">:</td><td><div></div></td></tr><tr><td style="font-weight:bold;vertical-align:top;">path</td><td style="vertical-align:top;">:</td><td><div></div></td></tr><tr><td style="font-weight:bold;vertical-align:top;">samesite</td><td style="vertical-align:top;">:</td><td><div></div></td></tr><tr><td style="font-weight:bold;vertical-align:top;">secure</td><td style="vertical-align:top;">:</td><td><div></div></td></tr><tr><td style="font-weight:bold;vertical-align:top;">version</td><td style="vertical-align:top;">:</td><td><div></div></td></tr></table></div></td></tr><tr><td style="font-weight:bold;vertical-align:top;">session_id_qualidade_ambiental</td><td style="vertical-align:top;">:</td><td><div>127.0.0.1-3220a474-40cc-4adc-b8f4-e61d0663bb51<table><tr><td style="font-weight:bold;vertical-align:top;">comment</td><td style="vertical-align:top;">:</td><td><div></div></td></tr><tr><td style="font-weight:bold;vertical-align:top;">domain</td><td style="vertical-align:top;">:</td><td><div></div></td></tr><tr><td style="font-weight:bold;vertical-align:top;">expires</td><td style="vertical-align:top;">:</td><td><div></div></td></tr><tr><td style="font-weight:bold;vertical-align:top;">httponly</td><td style="vertical-align:top;">:</td><td><div></div></td></tr><tr><td style="font-weight:bold;vertical-align:top;">max-age</td><td style="vertical-align:top;">:</td><td><div></div></td></tr><tr><td style="font-weight:bold;vertical-align:top;">path</td><td style="vertical-align:top;">:</td><td><div></div></td></tr><tr><td style="font-weight:bold;vertical-align:top;">samesite</td><td style="vertical-align:top;">:</td><td><div></div></td></tr><tr><td style="font-weight:bold;vertical-align:top;">secure</td><td style="vertical-align:top;">:</td><td><div></div></td></tr><tr><td style="font-weight:bold;vertical-align:top;">version</td><td style="vertical-align:top;">:</td><td><div></div></td></tr></table></div></td></tr><tr><td style="font-weight:bold;vertical-align:top;">session_id_welcome</td><td style="vertical-align:top;">:</td><td><div>127.0.0.1-704b1c58-5f73-46f5-a7b1-167cc224fc8a<table><tr><td style="font-weight:bold;vertical-align:top;">comment</td><td style="vertical-align:top;">:</td><td><div></div></td></tr><tr><td style="font-weight:bold;vertical-align:top;">domain</td><td style="vertical-align:top;">:</td><td><div></div></td></tr><tr><td style="font-weight:bold;vertical-align:top;">expires</td><td style="vertical-align:top;">:</td><td><div></div></td></tr><tr><td style="font-weight:bold;vertical-align:top;">httponly</td><td style="vertical-align:top;">:</td><td><div></div></td></tr><tr><td style="font-weight:bold;vertical-align:top;">max-age</td><td style="vertical-align:top;">:</td><td><div></div></td></tr><tr><td style="font-weight:bold;vertical-align:top;">path</td><td style="vertical-align:top;">:</td><td><div></div></td></tr><tr><td style="font-weight:bold;vertical-align:top;">samesite</td><td style="vertical-align:top;">:</td><td><div></div></td></tr><tr><td style="font-weight:bold;vertical-align:top;">secure</td><td style="vertical-align:top;">:</td><td><div></div></td></tr><tr><td style="font-weight:bold;vertical-align:top;">version</td><td style="vertical-align:top;">:</td><td><div></div></td></tr></table></div></td></tr><tr><td style="font-weight:bold;vertical-align:top;">username-smmau-004-pc004-8888</td><td style="vertical-align:top;">:</td><td><div>2|1:0|10:1576153233|29:username-smmau-004-pc004-8888|44:ZGM4ZTMyYjVlYTE5NGE0YmFhNjExZTNhOWU2NWQ1NTI=|3cc8569f34d26f9746b5d9bdbe3de1dc7eea7528b5843e1b9aab5e1ef6eb2b31<table><tr><td style="font-weight:bold;vertical-align:top;">comment</td><td style="vertical-align:top;">:</td><td><div></div></td></tr><tr><td style="font-weight:bold;vertical-align:top;">domain</td><td style="vertical-align:top;">:</td><td><div></div></td></tr><tr><td style="font-weight:bold;vertical-align:top;">expires</td><td style="vertical-align:top;">:</td><td><div></div></td></tr><tr><td style="font-weight:bold;vertical-align:top;">httponly</td><td style="vertical-align:top;">:</td><td><div></div></td></tr><tr><td style="font-weight:bold;vertical-align:top;">max-age</td><td style="vertical-align:top;">:</td><td><div></div></td></tr><tr><td style="font-weight:bold;vertical-align:top;">path</td><td style="vertical-align:top;">:</td><td><div></div></td></tr><tr><td style="font-weight:bold;vertical-align:top;">samesite</td><td style="vertical-align:top;">:</td><td><div></div></td></tr><tr><td style="font-weight:bold;vertical-align:top;">secure</td><td style="vertical-align:top;">:</td><td><div></div></td></tr><tr><td style="font-weight:bold;vertical-align:top;">version</td><td style="vertical-align:top;">:</td><td><div></div></td></tr></table></div></td></tr></table></div></td></tr><tr><td style="font-weight:bold;vertical-align:top;">env</td><td style="vertical-align:top;">:</td><td><div><table><tr><td style="font-weight:bold;vertical-align:top;">CONTENT_LENGTH</td><td style="vertical-align:top;">:</td><td><div>1797</div></td></tr><tr><td style="font-weight:bold;vertical-align:top;">CONTENT_TYPE</td><td style="vertical-align:top;">:</td><td><div>multipart/form-data; boundary=---------------------------6680877282247085851737416090</div></td></tr><tr><td style="font-weight:bold;vertical-align:top;">DOCUMENT_ROOT</td><td style="vertical-align:top;">:</td><td><div>/usr/share/nginx/html</div></td></tr><tr><td style="font-weight:bold;vertical-align:top;">HTTPS</td><td style="vertical-align:top;">:</td><td><div>on</div></td></tr><tr><td style="font-weight:bold;vertical-align:top;">HTTP_ACCEPT</td><td style="vertical-align:top;">:</td><td><div>text/html,application/xhtml+xml,application/xml;q=0.9,*/*;q=0.8</div></td></tr><tr><td style="font-weight:bold;vertical-align:top;">HTTP_ACCEPT_ENCODING</td><td style="vertical-align:top;">:</td><td><div>gzip, deflate, br</div></td></tr><tr><td style="font-weight:bold;vertical-align:top;">HTTP_ACCEPT_LANGUAGE</td><td style="vertical-align:top;">:</td><td><div>pt-BR</div></td></tr><tr><td style="font-weight:bold;vertical-align:top;">HTTP_CACHE_CONTROL</td><td style="vertical-align:top;">:</td><td><div>max-age=0</div></td></tr><tr><td style="font-weight:bold;vertical-align:top;">HTTP_CONNECTION</td><td style="vertical-align:top;">:</td><td><div>keep-alive</div></td></tr><tr><td style="font-weight:bold;vertical-align:top;">HTTP_CONTENT_LENGTH</td><td style="vertical-align:top;">:</td><td><div>1797</div></td></tr><tr><td style="font-weight:bold;vertical-align:top;">HTTP_CONTENT_TYPE</td><td style="vertical-align:top;">:</td><td><div>multipart/form-data; boundary=---------------------------6680877282247085851737416090</div></td></tr><tr><td style="font-weight:bold;vertical-align:top;">HTTP_COOKIE</td><td style="vertical-align:top;">:</td><td><div>username-smmau-004-pc004-8888=&quot;2|1:0|10:1576153233|29:username-smmau-004-pc004-8888|44:ZGM4ZTMyYjVlYTE5NGE0YmFhNjExZTNhOWU2NWQ1NTI=|3cc8569f34d26f9746b5d9bdbe3de1dc7eea7528b5843e1b9aab5e1ef6eb2b31&quot;; session_id_qualidade_ambiental=127.0.0.1-3220a474-40cc-4adc-b8f4-e61d0663bb51; session_id_welcome=127.0.0.1-704b1c58-5f73-46f5-a7b1-167cc224fc8a; _xsrf=2|e4af2d7d|4e87312c03b6f06245bddee51b4d3388|1576147839; session_id_admin=127.0.0.1-3a49723e-43ec-4749-ba05-8e59b10f7e85</div></td></tr><tr><td style="font-weight:bold;vertical-align:top;">HTTP_DNT</td><td style="vertical-align:top;">:</td><td><div>1</div></td></tr><tr><td style="font-weight:bold;vertical-align:top;">HTTP_HOST</td><td style="vertical-align:top;">:</td><td><div>smmau-004-pc004</div></td></tr><tr><td style="font-weight:bold;vertical-align:top;">HTTP_ORIGIN</td><td style="vertical-align:top;">:</td><td><div>https://smmau-004-pc004</div></td></tr><tr><td style="font-weight:bold;vertical-align:top;">HTTP_REFERER</td><td style="vertical-align:top;">:</td><td><div>https://smmau-004-pc004/Qualidade_Ambiental/appadmin/insert/db/EntradaPonto</div></td></tr><tr><td style="font-weight:bold;vertical-align:top;">HTTP_UPGRADE_INSECURE_REQUESTS</td><td style="vertical-align:top;">:</td><td><div>1</div></td></tr><tr><td style="font-weight:bold;vertical-align:top;">HTTP_USER_AGENT</td><td style="vertical-align:top;">:</td><td><div>Mozilla/5.0 (X11; Ubuntu; Linux x86_64; rv:71.0) Gecko/20100101 Firefox/71.0</div></td></tr><tr><td style="font-weight:bold;vertical-align:top;">PATH_INFO</td><td style="vertical-align:top;">:</td><td><div>/Qualidade_Ambiental/appadmin/insert/db/EntradaPonto</div></td></tr><tr><td style="font-weight:bold;vertical-align:top;">QUERY_STRING</td><td style="vertical-align:top;">:</td><td><div></div></td></tr><tr><td style="font-weight:bold;vertical-align:top;">REMOTE_ADDR</td><td style="vertical-align:top;">:</td><td><div>127.0.0.1</div></td></tr><tr><td style="font-weight:bold;vertical-align:top;">REMOTE_PORT</td><td style="vertical-align:top;">:</td><td><div>48590</div></td></tr><tr><td style="font-weight:bold;vertical-align:top;">REQUEST_METHOD</td><td style="vertical-align:top;">:</td><td><div>POST</div></td></tr><tr><td style="font-weight:bold;vertical-align:top;">REQUEST_SCHEME</td><td style="vertical-align:top;">:</td><td><div>https</div></td></tr><tr><td style="font-weight:bold;vertical-align:top;">REQUEST_URI</td><td style="vertical-align:top;">:</td><td><div>/Qualidade_Ambiental/appadmin/insert/db/EntradaPonto</div></td></tr><tr><td style="font-weight:bold;vertical-align:top;">SERVER_NAME</td><td style="vertical-align:top;">:</td><td><div>smmau-004-pc004</div></td></tr><tr><td style="font-weight:bold;vertical-align:top;">SERVER_PORT</td><td style="vertical-align:top;">:</td><td><div>443</div></td></tr><tr><td style="font-weight:bold;vertical-align:top;">SERVER_PROTOCOL</td><td style="vertical-align:top;">:</td><td><div>HTTP/1.1</div></td></tr><tr><td style="font-weight:bold;vertical-align:top;">SERVER_SOFTWARE</td><td style="vertical-align:top;">:</td><td><div>nginx/1.14.0</div></td></tr><tr><td style="font-weight:bold;vertical-align:top;">UWSGI_SCHEME</td><td style="vertical-align:top;">:</td><td><div>https</div></td></tr><tr><td style="font-weight:bold;vertical-align:top;">app_folders</td><td style="vertical-align:top;">:</td><td><div>set([&#x27;/home/www-data/web2py/applications/Qualidade_Ambiental/&#x27;, &#x27;/home/www-data/web2py/applications/admin/&#x27;])</div></td></tr><tr><td style="font-weight:bold;vertical-align:top;">applications_parent</td><td style="vertical-align:top;">:</td><td><div>/home/www-data/web2py</div></td></tr><tr><td style="font-weight:bold;vertical-align:top;">content_length</td><td style="vertical-align:top;">:</td><td><div>1797</div></td></tr><tr><td style="font-weight:bold;vertical-align:top;">content_type</td><td style="vertical-align:top;">:</td><td><div>multipart/form-data; boundary=---------------------------6680877282247085851737416090</div></td></tr><tr><td style="font-weight:bold;vertical-align:top;">db_sessions</td><td style="vertical-align:top;">:</td><td><div>set([])</div></td></tr><tr><td style="font-weight:bold;vertical-align:top;">debugging</td><td style="vertical-align:top;">:</td><td><div>False</div></td></tr><tr><td style="font-weight:bold;vertical-align:top;">document_root</td><td style="vertical-align:top;">:</td><td><div>/usr/share/nginx/html</div></td></tr><tr><td style="font-weight:bold;vertical-align:top;">gluon_parent</td><td style="vertical-align:top;">:</td><td><div>/home/www-data/web2py</div></td></tr><tr><td style="font-weight:bold;vertical-align:top;">http_accept</td><td style="vertical-align:top;">:</td><td><div>text/html,application/xhtml+xml,application/xml;q=0.9,*/*;q=0.8</div></td></tr><tr><td style="font-weight:bold;vertical-align:top;">http_accept_encoding</td><td style="vertical-align:top;">:</td><td><div>gzip, deflate, br</div></td></tr><tr><td style="font-weight:bold;vertical-align:top;">http_accept_language</td><td style="vertical-align:top;">:</td><td><div>pt-BR</div></td></tr><tr><td style="font-weight:bold;vertical-align:top;">http_cache_control</td><td style="vertical-align:top;">:</td><td><div>max-age=0</div></td></tr><tr><td style="font-weight:bold;vertical-align:top;">http_connection</td><td style="vertical-align:top;">:</td><td><div>keep-alive</div></td></tr><tr><td style="font-weight:bold;vertical-align:top;">http_content_length</td><td style="vertical-align:top;">:</td><td><div>1797</div></td></tr><tr><td style="font-weight:bold;vertical-align:top;">http_content_type</td><td style="vertical-align:top;">:</td><td><div>multipart/form-data; boundary=---------------------------6680877282247085851737416090</div></td></tr><tr><td style="font-weight:bold;vertical-align:top;">http_cookie</td><td style="vertical-align:top;">:</td><td><div>username-smmau-004-pc004-8888=&quot;2|1:0|10:1576153233|29:username-smmau-004-pc004-8888|44:ZGM4ZTMyYjVlYTE5NGE0YmFhNjExZTNhOWU2NWQ1NTI=|3cc8569f34d26f9746b5d9bdbe3de1dc7eea7528b5843e1b9aab5e1ef6eb2b31&quot;; session_id_qualidade_ambiental=127.0.0.1-3220a474-40cc-4adc-b8f4-e61d0663bb51; session_id_welcome=127.0.0.1-704b1c58-5f73-46f5-a7b1-167cc224fc8a; _xsrf=2|e4af2d7d|4e87312c03b6f06245bddee51b4d3388|1576147839; session_id_admin=127.0.0.1-3a49723e-43ec-4749-ba05-8e59b10f7e85</div></td></tr><tr><td style="font-weight:bold;vertical-align:top;">http_dnt</td><td style="vertical-align:top;">:</td><td><div>1</div></td></tr><tr><td style="font-weight:bold;vertical-align:top;">http_host</td><td style="vertical-align:top;">:</td><td><div>smmau-004-pc004</div></td></tr><tr><td style="font-weight:bold;vertical-align:top;">http_origin</td><td style="vertical-align:top;">:</td><td><div>https://smmau-004-pc004</div></td></tr><tr><td style="font-weight:bold;vertical-align:top;">http_referer</td><td style="vertical-align:top;">:</td><td><div>https://smmau-004-pc004/Qualidade_Ambiental/appadmin/insert/db/EntradaPonto</div></td></tr><tr><td style="font-weight:bold;vertical-align:top;">http_upgrade_insecure_requests</td><td style="vertical-align:top;">:</td><td><div>1</div></td></tr><tr><td style="font-weight:bold;vertical-align:top;">http_user_agent</td><td style="vertical-align:top;">:</td><td><div>Mozilla/5.0 (X11; Ubuntu; Linux x86_64; rv:71.0) Gecko/20100101 Firefox/71.0</div></td></tr><tr><td style="font-weight:bold;vertical-align:top;">https</td><td style="vertical-align:top;">:</td><td><div>on</div></td></tr><tr><td style="font-weight:bold;vertical-align:top;">is_jython</td><td style="vertical-align:top;">:</td><td><div>False</div></td></tr><tr><td style="font-weight:bold;vertical-align:top;">is_py2</td><td style="vertical-align:top;">:</td><td><div>True</div></td></tr><tr><td style="font-weight:bold;vertical-align:top;">is_pypy</td><td style="vertical-align:top;">:</td><td><div>False</div></td></tr><tr><td style="font-weight:bold;vertical-align:top;">is_source</td><td style="vertical-align:top;">:</td><td><div>True</div></td></tr><tr><td style="font-weight:bold;vertical-align:top;">local_hosts</td><td style="vertical-align:top;">:</td><td><div><table><tr><td><div>smmau-004-pc004</div></td></tr><tr><td><div>::1</div></td></tr><tr><td><div>::ffff:127.0.0.1</div></td></tr><tr><td><div>127.0.0.1</div></td></tr><tr><td><div>smmau-004-pc004.REDE-EMPRO.empro.com.br</div></td></tr></table></div></td></tr><tr><td style="font-weight:bold;vertical-align:top;">path_info</td><td style="vertical-align:top;">:</td><td><div>/Qualidade_Ambiental/appadmin/insert/db/EntradaPonto</div></td></tr><tr><td style="font-weight:bold;vertical-align:top;">query_string</td><td style="vertical-align:top;">:</td><td><div></div></td></tr><tr><td style="font-weight:bold;vertical-align:top;">remote_addr</td><td style="vertical-align:top;">:</td><td><div>127.0.0.1</div></td></tr><tr><td style="font-weight:bold;vertical-align:top;">remote_port</td><td style="vertical-align:top;">:</td><td><div>48590</div></td></tr><tr><td style="font-weight:bold;vertical-align:top;">request_method</td><td style="vertical-align:top;">:</td><td><div>POST</div></td></tr><tr><td style="font-weight:bold;vertical-align:top;">request_scheme</td><td style="vertical-align:top;">:</td><td><div>https</div></td></tr><tr><td style="font-weight:bold;vertical-align:top;">request_uri</td><td style="vertical-align:top;">:</td><td><div>/Qualidade_Ambiental/appadmin/insert/db/EntradaPonto</div></td></tr><tr><td style="font-weight:bold;vertical-align:top;">server_name</td><td style="vertical-align:top;">:</td><td><div>smmau-004-pc004</div></td></tr><tr><td style="font-weight:bold;vertical-align:top;">server_port</td><td style="vertical-align:top;">:</td><td><div>443</div></td></tr><tr><td style="font-weight:bold;vertical-align:top;">server_protocol</td><td style="vertical-align:top;">:</td><td><div>HTTP/1.1</div></td></tr><tr><td style="font-weight:bold;vertical-align:top;">server_software</td><td style="vertical-align:top;">:</td><td><div>nginx/1.14.0</div></td></tr><tr><td style="font-weight:bold;vertical-align:top;">uwsgi.node</td><td style="vertical-align:top;">:</td><td><div>smmau-004-pc004</div></td></tr><tr><td style="font-weight:bold;vertical-align:top;">uwsgi.version</td><td style="vertical-align:top;">:</td><td><div>2.0.18</div></td></tr><tr><td style="font-weight:bold;vertical-align:top;">uwsgi_node</td><td style="vertical-align:top;">:</td><td><div>smmau-004-pc004</div></td></tr><tr><td style="font-weight:bold;vertical-align:top;">uwsgi_scheme</td><td style="vertical-align:top;">:</td><td><div>https</div></td></tr><tr><td style="font-weight:bold;vertical-align:top;">uwsgi_version</td><td style="vertical-align:top;">:</td><td><div>2.0.18</div></td></tr><tr><td style="font-weight:bold;vertical-align:top;">web2py_path</td><td style="vertical-align:top;">:</td><td><div>/home/www-data/web2py</div></td></tr><tr><td style="font-weight:bold;vertical-align:top;">web2py_version</td><td style="vertical-align:top;">:</td><td><div>2.17.2-stable+timestamp.2018.10.06.18.54.02</div></td></tr><tr><td style="font-weight:bold;vertical-align:top;">wsgi.errors</td><td style="vertical-align:top;">:</td><td><div>&lt;open file &#x27;wsgi_errors&#x27;, mode &#x27;w&#x27; at 0x7f85eb168270&gt;</div></td></tr><tr><td style="font-weight:bold;vertical-align:top;">wsgi.file_wrapper</td><td style="vertical-align:top;">:</td><td><div>&lt;built-in function uwsgi_sendfile&gt;</div></td></tr><tr><td style="font-weight:bold;vertical-align:top;">wsgi.input</td><td style="vertical-align:top;">:</td><td><div>&lt;uwsgi._Input object at 0x7f85f1b10d20&gt;</div></td></tr><tr><td style="font-weight:bold;vertical-align:top;">wsgi.multiprocess</td><td style="vertical-align:top;">:</td><td><div>True</div></td></tr><tr><td style="font-weight:bold;vertical-align:top;">wsgi.multithread</td><td style="vertical-align:top;">:</td><td><div>False</div></td></tr><tr><td style="font-weight:bold;vertical-align:top;">wsgi.run_once</td><td style="vertical-align:top;">:</td><td><div>False</div></td></tr><tr><td style="font-weight:bold;vertical-align:top;">wsgi.url_scheme</td><td style="vertical-align:top;">:</td><td><div>https</div></td></tr><tr><td style="font-weight:bold;vertical-align:top;">wsgi.version</td><td style="vertical-align:top;">:</td><td><div><table><tr><td><div>1</div></td></tr><tr><td><div>0</div></td></tr></table></div></td></tr><tr><td style="font-weight:bold;vertical-align:top;">wsgi_errors</td><td style="vertical-align:top;">:</td><td><div>&lt;open file &#x27;wsgi_errors&#x27;, mode &#x27;w&#x27; at 0x7f85eb168270&gt;</div></td></tr><tr><td style="font-weight:bold;vertical-align:top;">wsgi_file_wrapper</td><td style="vertical-align:top;">:</td><td><div>&lt;built-in function uwsgi_sendfile&gt;</div></td></tr><tr><td style="font-weight:bold;vertical-align:top;">wsgi_input</td><td style="vertical-align:top;">:</td><td><div>&lt;uwsgi._Input object at 0x7f85f1b10d20&gt;</div></td></tr><tr><td style="font-weight:bold;vertical-align:top;">wsgi_multiprocess</td><td style="vertical-align:top;">:</td><td><div>True</div></td></tr><tr><td style="font-weight:bold;vertical-align:top;">wsgi_multithread</td><td style="vertical-align:top;">:</td><td><div>False</div></td></tr><tr><td style="font-weight:bold;vertical-align:top;">wsgi_run_once</td><td style="vertical-align:top;">:</td><td><div>False</div></td></tr><tr><td style="font-weight:bold;vertical-align:top;">wsgi_url_scheme</td><td style="vertical-align:top;">:</td><td><div>https</div></td></tr><tr><td style="font-weight:bold;vertical-align:top;">wsgi_version</td><td style="vertical-align:top;">:</td><td><div><table><tr><td><div>1</div></td></tr><tr><td><div>0</div></td></tr></table></div></td></tr></table></div></td></tr><tr><td style="font-weight:bold;vertical-align:top;">extension</td><td style="vertical-align:top;">:</td><td><div>html</div></td></tr><tr><td style="font-weight:bold;vertical-align:top;">folder</td><td style="vertical-align:top;">:</td><td><div>/home/www-data/web2py/applications/Qualidade_Ambiental/</div></td></tr><tr><td style="font-weight:bold;vertical-align:top;">function</td><td style="vertical-align:top;">:</td><td><div>insert</div></td></tr><tr><td style="font-weight:bold;vertical-align:top;">global_settings</td><td style="vertical-align:top;">:</td><td><div><table><tr><td style="font-weight:bold;vertical-align:top;">app_folders</td><td style="vertical-align:top;">:</td><td><div>set([&#x27;/home/www-data/web2py/applications/Qualidade_Ambiental/&#x27;, &#x27;/home/www-data/web2py/applications/admin/&#x27;])</div></td></tr><tr><td style="font-weight:bold;vertical-align:top;">applications_parent</td><td style="vertical-align:top;">:</td><td><div>/home/www-data/web2py</div></td></tr><tr><td style="font-weight:bold;vertical-align:top;">db_sessions</td><td style="vertical-align:top;">:</td><td><div>set([])</div></td></tr><tr><td style="font-weight:bold;vertical-align:top;">debugging</td><td style="vertical-align:top;">:</td><td><div>False</div></td></tr><tr><td style="font-weight:bold;vertical-align:top;">gluon_parent</td><td style="vertical-align:top;">:</td><td><div>/home/www-data/web2py</div></td></tr><tr><td style="font-weight:bold;vertical-align:top;">is_jython</td><td style="vertical-align:top;">:</td><td><div>False</div></td></tr><tr><td style="font-weight:bold;vertical-align:top;">is_py2</td><td style="vertical-align:top;">:</td><td><div>True</div></td></tr><tr><td style="font-weight:bold;vertical-align:top;">is_pypy</td><td style="vertical-align:top;">:</td><td><div>False</div></td></tr><tr><td style="font-weight:bold;vertical-align:top;">is_source</td><td style="vertical-align:top;">:</td><td><div>True</div></td></tr><tr><td style="font-weight:bold;vertical-align:top;">local_hosts</td><td style="vertical-align:top;">:</td><td><div><table><tr><td><div>smmau-004-pc004</div></td></tr><tr><td><div>::1</div></td></tr><tr><td><div>::ffff:127.0.0.1</div></td></tr><tr><td><div>127.0.0.1</div></td></tr><tr><td><div>smmau-004-pc004.REDE-EMPRO.empro.com.br</div></td></tr></table></div></td></tr><tr><td style="font-weight:bold;vertical-align:top;">web2py_version</td><td style="vertical-align:top;">:</td><td><div>2.17.2-stable+timestamp.2018.10.06.18.54.02</div></td></tr></table></div></td></tr><tr><td style="font-weight:bold;vertical-align:top;">is_https</td><td style="vertical-align:top;">:</td><td><div>True</div></td></tr><tr><td style="font-weight:bold;vertical-align:top;">is_local</td><td style="vertical-align:top;">:</td><td><div>True</div></td></tr><tr><td style="font-weight:bold;vertical-align:top;">is_restful</td><td style="vertical-align:top;">:</td><td><div>False</div></td></tr><tr><td style="font-weight:bold;vertical-align:top;">is_scheduler</td><td style="vertical-align:top;">:</td><td><div>False</div></td></tr><tr><td style="font-weight:bold;vertical-align:top;">is_shell</td><td style="vertical-align:top;">:</td><td><div>False</div></td></tr><tr><td style="font-weight:bold;vertical-align:top;">method</td><td style="vertical-align:top;">:</td><td><div>POST</div></td></tr><tr><td style="font-weight:bold;vertical-align:top;">now</td><td style="vertical-align:top;">:</td><td><div>datetime.datetime(2019, 12, 16, 14, 19, 37, 578747)</div></td></tr><tr><td style="font-weight:bold;vertical-align:top;">raw_args</td><td style="vertical-align:top;">:</td><td><div>db/EntradaPonto</div></td></tr><tr><td style="font-weight:bold;vertical-align:top;">raw_extension</td><td style="vertical-align:top;">:</td><td><div>None</div></td></tr><tr><td style="font-weight:bold;vertical-align:top;">url</td><td style="vertical-align:top;">:</td><td><div>/Qualidade_Ambiental/appadmin/insert/db/EntradaPonto</div></td></tr><tr><td style="font-weight:bold;vertical-align:top;">utcnow</td><td style="vertical-align:top;">:</td><td><div>datetime.datetime(2019, 12, 16, 17, 19, 37, 578770)</div></td></tr><tr><td style="font-weight:bold;vertical-align:top;">wsgi</td><td style="vertical-align:top;">:</td><td><div>&lt;gluon.main.LazyWSGI object at 0x7f85dfda4b90&gt;</div></td></tr></table></div>'
tRp60
sS'frames'
p61
(lp62
(dp63
S'file'
p64
S'/home/www-data/web2py/gluon/restricted.py'
p65
sS'dump'
p66
(dp67
S'environment'
p68
S"{'A': <class 'gluon.html.A'>, 'ANY_OF': <class 'gluon.validators.ANY_OF'>, 'ASSIGNJS': <function ASSIGNJS>, 'AppConfig': <function AppConfig>, 'Auth': <class 'gluon.tools.Auth'>, 'B': <class 'gluon.html.B'>, 'BEAUTIFY': <class 'gluon.html.BEAUTIFY'>, 'BODY': <class 'gluon.html.BODY'>, 'BR': <class 'gluon.html.BR'>, 'BUTTON': <class 'gluon.html.BUTTON'>, ...}"
p69
sS'ccode'
p70
S'<code object <module> at 0x7f85dfe4acb0, file "/...ations/Qualidade_Ambiental/models/db.py", line 7>'
p71
ssS'lnum'
p72
I219
sS'lines'
p73
(dp74
I214
S'    if environment is None:'
p75
sI215
S'        environment = {}'
p76
sI216
S"    environment['__file__'] = layer"
p77
sI217
S"    environment['__name__'] = '__restricted__'"
p78
sI218
S'    try:'
p79
sI219
S'        exec(ccode, environment)'
p80
sI220
S'    except HTTP:'
p81
sI221
S'        raise'
p82
sI222
S'    except RestrictedError:'
p83
sI223
S'        # do not encapsulate (obfuscate) the original RestrictedError'
p84
ssS'call'
p85
S'(ccode=<code object <module> at 0x7f85dfe4acb0, file "/...ations/Qualidade_Ambiental/models/db.py", line 7>, environment={\'A\': <class \'gluon.html.A\'>, \'ANY_OF\': <class \'gluon.validators.ANY_OF\'>, \'ASSIGNJS\': <function ASSIGNJS>, \'AppConfig\': <function AppConfig>, \'Auth\': <class \'gluon.tools.Auth\'>, \'B\': <class \'gluon.html.B\'>, \'BEAUTIFY\': <class \'gluon.html.BEAUTIFY\'>, \'BODY\': <class \'gluon.html.BODY\'>, \'BR\': <class \'gluon.html.BR\'>, \'BUTTON\': <class \'gluon.html.BUTTON\'>, ...}, layer=\'/home/www-data/web2py/applications/Qualidade_Ambiental/models/db.py\', scode=<code object <module> at 0x7f85dfe4acb0, file "/...ations/Qualidade_Ambiental/models/db.py", line 7>)'
p86
sS'func'
p87
S'restricted'
p88
sa(dp89
g64
S'/home/www-data/web2py/applications/Qualidade_Ambiental/models/db.py'
p90
sg66
(dp91
S'widget'
p92
S'undefined'
p93
sS'default'
p94
g93
sS'requires'
p95
g93
sS'SQLFORM.widgets.checkboxes'
p96
S"<class 'gluon.sqlhtml.CheckboxesWidget'>"
p97
sS'SQLFORM.widgets.checkboxes.widget'
p98
S"<bound method type.widget of <class 'gluon.sqlhtml.CheckboxesWidget'>>"
p99
sS'Field'
p100
S"<class 'pydal.objects.Field'>"
p101
sS'IS_IN_RANGE'
p102
g93
sS'SQLFORM'
p103
S"<class 'gluon.sqlhtml.SQLFORM'>"
p104
sS'SQLFORM.widgets'
p105
S"<Storage {'multiple': <class 'gluon.sqlhtml.Mult...ss 'gluon.sqlhtml.OptionsWidget'>, 'blob': None}>"
p106
ssg72
I195
sg73
(dp107
I192
S"    Field ('Volume', 'decimal(3,2)', required=True),"
p108
sI193
S"    Field ('Sofa', 'integer', length=1),"
p109
sI194
S"    Field ('Colchao' , 'integer', length=1, rname='Colch\xc3\xa3o'),"
p110
sI195
S"    Field ('Poda', 'integer', widget=SQLFORM.widgets.checkboxes.widget, requires=IS_IN_RANGE(0, 2), default=0 ),"
p111
sI196
S"    Field ('Moveis', 'integer'),#,widget=SQLFORM.widgets.checkboxes.widget), #requires = IS_IN_SET([(True,1)]),"
p112
sI197
S"    Field ('Ferro', 'integer',),# widget=SQLFORM.widgets.checkboxes.widget), #requires = IS_IN_SET([(True,1)]),"
p113
sI198
S"    Field ('Entulho', 'integer',),# widget=SQLFORM.widgets.checkboxes.widget), #,requires = IS_IN_SET([(True,1)]),"
p114
sI199
S"    Field ('PlastPapel', 'integer',),#widget=SQLFORM.widgets.checkboxes.widget), #requires = IS_IN_SET([(True,1)]),"
p115
sI190
S"    Field ('TipoVeic', 'integer', requires = IS_IN_SET([(1, 'Carro'), (2, 'CARROCA'), (3, 'PICKUP'), (4, 'CARRETA_P'), (5, 'CARRETA_G'), (6, 'OUTRO')])),"
p116
sI191
S"    Field ('Data', 'date', required=True),"
p117
ssg85
S'()'
p118
sg87
S'<module>'
p119
sasS'pyver'
p120
S'Python 2.7.15+: /usr/local/bin/uwsgi (prefix: /usr)'
p121
sS'session'
p122
g59
(S's\xbf\x01\x00\x00<div><table><tr><td style="font-weight:bold;vertical-align:top;">flash</td><td style="vertical-align:top;">:</td><td><div>None</div></td></tr><tr><td style="font-weight:bold;vertical-align:top;">last_orderby</td><td style="vertical-align:top;">:</td><td><div>None</div></td></tr><tr><td style="font-weight:bold;vertical-align:top;">last_query</td><td style="vertical-align:top;">:</td><td><div>db.EntradaPonto.id&gt;0</div></td></tr></table></div>'
tRp123
sS'etype'
p124
S"<type 'exceptions.NameError'>"
p125
sS'date'
p126
S'Mon Dec 16 14:19:37 2019'
p127
sS'response'
p128
g59
(S's^\x1c\x00\x00<div><table><tr><td style="font-weight:bold;vertical-align:top;">body</td><td style="vertical-align:top;">:</td><td><div>&lt;cStringIO.StringO object at 0x7f85e02f21b8&gt;</div></td></tr><tr><td style="font-weight:bold;vertical-align:top;">cookies</td><td style="vertical-align:top;">:</td><td><div><table><tr><td style="font-weight:bold;vertical-align:top;">session_id_qualidade_ambiental</td><td style="vertical-align:top;">:</td><td><div>127.0.0.1-3220a474-40cc-4adc-b8f4-e61d0663bb51<table><tr><td style="font-weight:bold;vertical-align:top;">comment</td><td style="vertical-align:top;">:</td><td><div></div></td></tr><tr><td style="font-weight:bold;vertical-align:top;">domain</td><td style="vertical-align:top;">:</td><td><div></div></td></tr><tr><td style="font-weight:bold;vertical-align:top;">expires</td><td style="vertical-align:top;">:</td><td><div></div></td></tr><tr><td style="font-weight:bold;vertical-align:top;">httponly</td><td style="vertical-align:top;">:</td><td><div></div></td></tr><tr><td style="font-weight:bold;vertical-align:top;">max-age</td><td style="vertical-align:top;">:</td><td><div></div></td></tr><tr><td style="font-weight:bold;vertical-align:top;">path</td><td style="vertical-align:top;">:</td><td><div>/</div></td></tr><tr><td style="font-weight:bold;vertical-align:top;">samesite</td><td style="vertical-align:top;">:</td><td><div></div></td></tr><tr><td style="font-weight:bold;vertical-align:top;">secure</td><td style="vertical-align:top;">:</td><td><div></div></td></tr><tr><td style="font-weight:bold;vertical-align:top;">version</td><td style="vertical-align:top;">:</td><td><div></div></td></tr></table></div></td></tr></table></div></td></tr><tr><td style="font-weight:bold;vertical-align:top;">delimiters</td><td style="vertical-align:top;">:</td><td><div><table><tr><td><div>{{</div></td></tr><tr><td><div>}}</div></td></tr></table></div></td></tr><tr><td style="font-weight:bold;vertical-align:top;">files</td><td style="vertical-align:top;">:</td><td><div><table></table></div></td></tr><tr><td style="font-weight:bold;vertical-align:top;">flash</td><td style="vertical-align:top;">:</td><td><div></div></td></tr><tr><td style="font-weight:bold;vertical-align:top;">form_label_separator</td><td style="vertical-align:top;">:</td><td><div></div></td></tr><tr><td style="font-weight:bold;vertical-align:top;">formstyle</td><td style="vertical-align:top;">:</td><td><div>bootstrap4_inline</div></td></tr><tr><td style="font-weight:bold;vertical-align:top;">generic_patterns</td><td style="vertical-align:top;">:</td><td><div><table><tr><td><div>*</div></td></tr></table></div></td></tr><tr><td style="font-weight:bold;vertical-align:top;">google_analytics_id</td><td style="vertical-align:top;">:</td><td><div>None</div></td></tr><tr><td style="font-weight:bold;vertical-align:top;">headers</td><td style="vertical-align:top;">:</td><td><div><table><tr><td style="font-weight:bold;vertical-align:top;">X-Powered-By</td><td style="vertical-align:top;">:</td><td><div>web2py</div></td></tr></table></div></td></tr><tr><td style="font-weight:bold;vertical-align:top;">menu</td><td style="vertical-align:top;">:</td><td><div><table></table></div></td></tr><tr><td style="font-weight:bold;vertical-align:top;">meta</td><td style="vertical-align:top;">:</td><td><div><table><tr><td style="font-weight:bold;vertical-align:top;">author</td><td style="vertical-align:top;">:</td><td><div>Carlos A Locatelli Jr &lt;call.jmail@gmail.com&gt;</div></td></tr><tr><td style="font-weight:bold;vertical-align:top;">description</td><td style="vertical-align:top;">:</td><td><div>Sistema Python Web2py e Banco Mysql Desenvolvido para gest\xc3\xa3o da SMAURB</div></td></tr><tr><td style="font-weight:bold;vertical-align:top;">generator</td><td style="vertical-align:top;">:</td><td><div>Web2py Web Framework</div></td></tr><tr><td style="font-weight:bold;vertical-align:top;">keywords</td><td style="vertical-align:top;">:</td><td><div><table><tr><td><div>web2py</div></td></tr><tr><td><div>python</div></td></tr><tr><td><div>framework</div></td></tr></table></div></td></tr></table></div></td></tr><tr><td style="font-weight:bold;vertical-align:top;">models_to_run</td><td style="vertical-align:top;">:</td><td><div><table><tr><td><div>^\\w+\\.py$</div></td></tr><tr><td><div>^appadmin/\\w+\\.py$</div></td></tr><tr><td><div>^appadmin/insert/\\w+\\.py$</div></td></tr></table></div></td></tr><tr><td style="font-weight:bold;vertical-align:top;">postprocessing</td><td style="vertical-align:top;">:</td><td><div><table></table></div></td></tr><tr><td style="font-weight:bold;vertical-align:top;">session_client</td><td style="vertical-align:top;">:</td><td><div>127.0.0.1</div></td></tr><tr><td style="font-weight:bold;vertical-align:top;">session_cookie_compression_level</td><td style="vertical-align:top;">:</td><td><div>None</div></td></tr><tr><td style="font-weight:bold;vertical-align:top;">session_cookie_expires</td><td style="vertical-align:top;">:</td><td><div>None</div></td></tr><tr><td style="font-weight:bold;vertical-align:top;">session_data_name</td><td style="vertical-align:top;">:</td><td><div>session_data_qualidade_ambiental</div></td></tr><tr><td style="font-weight:bold;vertical-align:top;">session_file</td><td style="vertical-align:top;">:</td><td><div>&lt;open file &#x27;/home/www-data/web2py/applications/Qualidade_Ambiental/sessions/087/05c/127.0.0.1-3220a474-40cc-4adc-b8f4-e61d0663bb51&#x27;, mode &#x27;rb+&#x27; at 0x7f85e023adb0&gt;</div></td></tr><tr><td style="font-weight:bold;vertical-align:top;">session_filename</td><td style="vertical-align:top;">:</td><td><div>/home/www-data/web2py/applications/Qualidade_Ambiental/sessions/127.0.0.1-3220a474-40cc-4adc-b8f4-e61d0663bb51</div></td></tr><tr><td style="font-weight:bold;vertical-align:top;">session_hash</td><td style="vertical-align:top;">:</td><td><div>dc04daf00e526dd42ff48725f87e5c46</div></td></tr><tr><td style="font-weight:bold;vertical-align:top;">session_id</td><td style="vertical-align:top;">:</td><td><div>127.0.0.1-3220a474-40cc-4adc-b8f4-e61d0663bb51</div></td></tr><tr><td style="font-weight:bold;vertical-align:top;">session_id_name</td><td style="vertical-align:top;">:</td><td><div>session_id_qualidade_ambiental</div></td></tr><tr><td style="font-weight:bold;vertical-align:top;">session_locked</td><td style="vertical-align:top;">:</td><td><div>True</div></td></tr><tr><td style="font-weight:bold;vertical-align:top;">session_masterapp</td><td style="vertical-align:top;">:</td><td><div>Qualidade_Ambiental</div></td></tr><tr><td style="font-weight:bold;vertical-align:top;">session_new</td><td style="vertical-align:top;">:</td><td><div>False</div></td></tr><tr><td style="font-weight:bold;vertical-align:top;">session_storage_type</td><td style="vertical-align:top;">:</td><td><div>file</div></td></tr><tr><td style="font-weight:bold;vertical-align:top;">show_toolbar</td><td style="vertical-align:top;">:</td><td><div>False</div></td></tr><tr><td style="font-weight:bold;vertical-align:top;">status</td><td style="vertical-align:top;">:</td><td><div>200</div></td></tr><tr><td style="font-weight:bold;vertical-align:top;">view</td><td style="vertical-align:top;">:</td><td><div>appadmin/insert.html</div></td></tr></table></div>'
tRp129
sS'locals'
p130
(dp131
S'PY2'
p132
S'True'
p133
sS'OBJECT'
p134
S"<class 'gluon.html.OBJECT'>"
p135
sS'SQLDB'
p136
S"<class 'pydal.base.DAL'>"
p137
sg122
S"<Storage {'last_query': 'db.EntradaPonto.id>0', ...1af4b', 'cbe8a5f6-7f3d-4f87-808f-9a554f0c8000']}>"
p138
sS'LINK'
p139
S"<class 'gluon.html.LINK'>"
p140
sS'BR'
p141
S"<class 'gluon.html.BR'>"
p142
sS'local_import'
p143
S'<function <lambda>>'
p144
sS'OPTGROUP'
p145
S"<class 'gluon.html.OPTGROUP'>"
p146
sS'LI'
p147
S"<class 'gluon.html.LI'>"
p148
sS'PRE'
p149
S"<class 'gluon.html.PRE'>"
p150
sS'IS_INT_IN_RANGE'
p151
S"<class 'gluon.validators.IS_INT_IN_RANGE'>"
p152
sS'to_bytes'
p153
S'<function to_bytes>'
p154
sS'IS_LOWER'
p155
S"<class 'gluon.validators.IS_LOWER'>"
p156
sS'IS_STRONG'
p157
S"<class 'gluon.validators.IS_STRONG'>"
p158
sS'cache'
p159
S'<gluon.cache.Cache object>'
p160
sS'IS_IN_DB'
p161
S"<class 'gluon.validators.IS_IN_DB'>"
p162
sS'TAG'
p163
S'<gluon.html.__TAG__ object>'
p164
sS'SQLField'
p165
S"<class 'pydal.objects.Field'>"
p166
sS'mail'
p167
S'<gluon.tools.Mail object>'
p168
sS'BODY'
p169
S"<class 'gluon.html.BODY'>"
p170
sS'IS_DATE_IN_RANGE'
p171
S"<class 'gluon.validators.IS_DATE_IN_RANGE'>"
p172
sS'TH'
p173
S"<class 'gluon.html.TH'>"
p174
sS'URL'
p175
S'<function URL>'
p176
sS'__file__'
p177
S"'/home/www-data/web2py/applications/Qualidade_Ambiental/models/db.py'"
p178
sS'db'
p179
S'<DAL uri="mysql:******@10.7.0.28/Tconect">'
p180
sS'auth'
p181
S'<gluon.tools.Auth object>'
p182
sS'P'
S"<class 'gluon.html.P'>"
p183
sS'UnidadeDestino'
p184
S'<Table UnidadeDestino (Id, IdEmpreendedor, IdEnd..., Tipo, Atividade, Coordenadas, Matricula, Area)>'
p185
sS'TFOOT'
p186
S"<class 'gluon.html.TFOOT'>"
p187
sS'iteritems'
p188
S'<function <lambda>>'
p189
sS'XHTML'
p190
S"<class 'gluon.html.XHTML'>"
p191
sS'ON'
p192
g133
sS'OL'
p193
S"<class 'gluon.html.OL'>"
p194
sS'TEXTAREA'
p195
S"<class 'gluon.html.TEXTAREA'>"
p196
sS'MENU'
p197
S"<class 'gluon.html.MENU'>"
p198
sS'LOAD'
p199
S'<function LOAD>'
p200
sS'CODE'
p201
S"<class 'gluon.html.CODE'>"
p202
sS'HTTP'
p203
S"<class 'gluon.http.HTTP'>"
p204
sS'HR'
p205
S"<class 'gluon.html.HR'>"
p206
sS'IS_DATETIME'
p207
S"<class 'gluon.validators.IS_DATETIME'>"
p208
sS'reduce'
p209
S'<built-in function reduce>'
p210
sg58
S"<Storage {'function': 'insert', 'cookies': <Simp... False, 'is_https': True, 'client': '127.0.0.1'}>"
p211
sS'LABEL'
p212
S"<class 'gluon.html.LABEL'>"
p213
sS'CLEANUP'
p214
S"<class 'gluon.validators.CLEANUP'>"
p215
sS'SELECT'
p216
S"<class 'gluon.html.SELECT'>"
p217
sS'CENTER'
p218
S"<class 'gluon.html.CENTER'>"
p219
sS'Auth'
p220
S"<class 'gluon.tools.Auth'>"
p221
sS'__builtins__'
p222
S"{'ArithmeticError': <type 'exceptions.ArithmeticError'>, 'AssertionError': <type 'exceptions.AssertionError'>, 'AttributeError': <type 'exceptions.AttributeError'>, 'BaseException': <type 'exceptions.BaseException'>, 'BufferError': <type 'exceptions.BufferError'>, 'BytesWarning': <type 'exceptions.BytesWarning'>, 'DeprecationWarning': <type 'exceptions.DeprecationWarning'>, 'EOFError': <type 'exceptions.EOFError'>, 'Ellipsis': Ellipsis, 'EnvironmentError': <type 'exceptions.EnvironmentError'>, ...}"
p223
sS'HTML'
p224
S"<class 'gluon.html.HTML'>"
p225
sS'SQLFORM'
p226
S"<class 'gluon.sqlhtml.SQLFORM'>"
p227
sS'EM'
p228
S"<class 'gluon.html.EM'>"
p229
sS'redirect'
p230
S'<function redirect>'
p231
sS'FIELDSET'
p232
S"<class 'gluon.html.FIELDSET'>"
p233
sS'IS_EQUAL_TO'
p234
S"<class 'gluon.validators.IS_EQUAL_TO'>"
p235
sS'HEAD'
p236
S"<class 'gluon.html.HEAD'>"
p237
sS'embed64'
p238
S'<function embed64>'
p239
sS'IS_LIST_OF'
p240
S"<class 'gluon.validators.IS_LIST_OF'>"
p241
sS'__name__'
p242
S"'__restricted__'"
p243
sS'EMBED'
p244
S"<class 'gluon.html.EMBED'>"
p245
sS'configuration'
p246
S"{'host': {'names': 'localhost:*, 127.0.0.1:*, *:...migrate': 'False', 'uri': '', 'pool_size': '10'}}"
p247
sS'check01'
p248
S'<function check01>'
p249
sS'FORM'
p250
S"<class 'gluon.html.FORM'>"
p251
sS'H2'
p252
S"<class 'gluon.html.H2'>"
p253
sS'H3'
p254
S"<class 'gluon.html.H3'>"
p255
sS'AppConfig'
p256
S'<function AppConfig>'
p257
sS'H1'
p258
S"<class 'gluon.html.H1'>"
p259
sS'H6'
p260
S"<class 'gluon.html.H6'>"
p261
sS'H4'
p262
S"<class 'gluon.html.H4'>"
p263
sS'H5'
p264
S"<class 'gluon.html.H5'>"
p265
sS'UL'
p266
S"<class 'gluon.html.UL'>"
p267
sS'IS_UPPER'
p268
S"<class 'gluon.validators.IS_UPPER'>"
p269
sS'xmlescape'
p270
S'<function xmlescape>'
p271
sS'IS_TIME'
p272
S"<class 'gluon.validators.IS_TIME'>"
p273
sS'OPTION'
p274
S"<class 'gluon.html.OPTION'>"
p275
sS'TITLE'
p276
S"<class 'gluon.html.TITLE'>"
p277
sS'CRYPT'
p278
S"<class 'gluon.validators.CRYPT'>"
p279
sS'IS_EMPTY_OR'
p280
S"<class 'gluon.validators.IS_EMPTY_OR'>"
p281
sS'MARKMIN'
p282
S"<class 'gluon.html.MARKMIN'>"
p283
sS'INPUT'
p284
S"<class 'gluon.html.INPUT'>"
p285
sS'STRONG'
p286
S"<class 'gluon.html.STRONG'>"
p287
sS'COL'
p288
S"<class 'gluon.html.COL'>"
p289
sS'SCRIPT'
p290
S"<class 'gluon.html.SCRIPT'>"
p291
sS'TABLE'
p292
S"<class 'gluon.html.TABLE'>"
p293
sS'IS_IPV4'
p294
S"<class 'gluon.validators.IS_IPV4'>"
p295
sS'IS_LENGTH'
p296
S"<class 'gluon.validators.IS_LENGTH'>"
p297
sS'IS_IPV6'
p298
S"<class 'gluon.validators.IS_IPV6'>"
p299
sS'XML'
p300
S"<class 'gluon.html.XML'>"
p301
sS'B'
S"<class 'gluon.html.B'>"
p302
sS'IMG'
p303
S"<class 'gluon.html.IMG'>"
p304
sS'SQLTABLE'
p305
S"<class 'gluon.sqlhtml.SQLTABLE'>"
p306
sS'IS_MATCH'
p307
S"<class 'gluon.validators.IS_MATCH'>"
p308
sS'IS_ALPHANUMERIC'
p309
S"<class 'gluon.validators.IS_ALPHANUMERIC'>"
p310
sS'SPAN'
p311
S"<class 'gluon.html.SPAN'>"
p312
sS'IS_JSON'
p313
S"<class 'gluon.validators.IS_JSON'>"
p314
sS'IS_IPADDRESS'
p315
S"<class 'gluon.validators.IS_IPADDRESS'>"
p316
sS'IS_SLUG'
p317
S"<class 'gluon.validators.IS_SLUG'>"
p318
sS'BEAUTIFY'
p319
S"<class 'gluon.html.BEAUTIFY'>"
p320
sS'META'
p321
S"<class 'gluon.html.META'>"
p322
sS'Tconect'
p323
S"'mysql://DBGrnt:,.~~Grnt861@10.7.0.28/Tconect'"
p324
sS'BUTTON'
p325
S"<class 'gluon.html.BUTTON'>"
p326
sS'IS_DATE'
p327
S"<class 'gluon.validators.IS_DATE'>"
p328
sS'IS_EMAIL'
p329
S"<class 'gluon.validators.IS_EMAIL'>"
p330
sS'IS_NOT_EMPTY'
p331
S"<class 'gluon.validators.IS_NOT_EMPTY'>"
p332
sS'xrange'
p333
S"<type 'xrange'>"
p334
sS'TBODY'
p335
S"<class 'gluon.html.TBODY'>"
p336
sS'CAT'
p337
S"<class 'gluon.html.CAT'>"
p338
sS'Field'
p339
S"<class 'pydal.objects.Field'>"
p340
sS'IS_LIST_OF_EMAILS'
p341
S"<class 'gluon.validators.IS_LIST_OF_EMAILS'>"
p342
sS'DIV'
p343
S"<class 'gluon.html.DIV'>"
p344
sS'LEGEND'
p345
S"<class 'gluon.html.LEGEND'>"
p346
sS'to_native'
p347
S'<function to_native>'
p348
sS'COLGROUP'
p349
S"<class 'gluon.html.COLGROUP'>"
p350
sS'DAL'
p351
S"<class 'pydal.base.DAL'>"
p352
sS'ASSIGNJS'
p353
S'<function ASSIGNJS>'
p354
sS'TR'
p355
S"<class 'gluon.html.TR'>"
p356
sS'__package__'
p357
S'None'
p358
sS'IFRAME'
p359
S"<class 'gluon.html.IFRAME'>"
p360
sS'TD'
p361
S"<class 'gluon.html.TD'>"
p362
sS'IS_URL'
p363
S"<class 'gluon.validators.IS_URL'>"
p364
sS'A'
S"<class 'gluon.html.A'>"
p365
sS'STYLE'
p366
S"<class 'gluon.html.STYLE'>"
p367
sS'IS_DATETIME_IN_RANGE'
p368
S"<class 'gluon.validators.IS_DATETIME_IN_RANGE'>"
p369
sS'IS_UPLOAD_FILENAME'
p370
S"<class 'gluon.validators.IS_UPLOAD_FILENAME'>"
p371
sS'IS_IMAGE'
p372
S"<class 'gluon.validators.IS_IMAGE'>"
p373
sS'I'
S"<class 'gluon.html.I'>"
p374
sS'IS_NOT_IN_DB'
p375
S"<class 'gluon.validators.IS_NOT_IN_DB'>"
p376
sg128
S"<Storage {'body': <cStringIO.StringO object at 0...0x7f85dfd67e60>, 'view': 'appadmin/insert.html'}>"
p377
sS'THEAD'
p378
S"<class 'gluon.html.THEAD'>"
p379
sS'ANY_OF'
p380
S"<class 'gluon.validators.ANY_OF'>"
p381
sS'IS_NULL_OR'
p382
S"<class 'gluon.validators.IS_EMPTY_OR'>"
p383
sS'IS_FLOAT_IN_RANGE'
p384
S"<class 'gluon.validators.IS_FLOAT_IN_RANGE'>"
p385
sS'IS_EXPR'
p386
S"<class 'gluon.validators.IS_EXPR'>"
p387
sS'IS_IN_SET'
p388
S"<class 'gluon.validators.IS_IN_SET'>"
p389
sS'IS_CPF'
p390
S"<class 'applications.Qualidade_Ambiental.modules.validador.IS_CPF'>"
p391
sS'IS_DECIMAL_IN_RANGE'
p392
S"<class 'gluon.validators.IS_DECIMAL_IN_RANGE'>"
p393
sS'TT'
p394
S"<class 'gluon.html.TT'>"
p395
sS'T'
S'<gluon.languages.translator object>'
p396
sssS'traceback'
p397
S'Traceback (most recent call last):\n  File "/home/www-data/web2py/gluon/restricted.py", line 219, in restricted\n    exec(ccode, environment)\n  File "/home/www-data/web2py/applications/Qualidade_Ambiental/models/db.py", line 195, in <module>\n    Field (\'Poda\', \'integer\', widget=SQLFORM.widgets.checkboxes.widget, requires=IS_IN_RANGE(0, 2), default=0 ),\nNameError: name \'IS_IN_RANGE\' is not defined\n'
p398
s.