(dp0
S'Tag'
p1
(dp2
S'rname'
p3
S'`Tag`'
p4
sS'sortable'
p5
I2
sS'raw_rname'
p6
g1
sS'notnull'
p7
I00
sS'length'
p8
S'20'
p9
sS'sql'
p10
S'VARCHAR(20)'
p11
sS'unique'
p12
I00
sS'type'
p13
S'string'
p14
ssS'id'
p15
(dp16
g3
S'`id`'
p17
sg5
I1
sg6
g15
sg7
I00
sg8
I512
sg10
S'INT AUTO_INCREMENT NOT NULL'
p18
sg12
I00
sg13
g15
ss.