(dp1
S'output'
p2
S"<type 'exceptions.ValueError'> unsupported pickle protocol: 3"
p3
sS'layer'
p4
S'/home/www-data/web2py/applications/admin/controllers/default.py'
p5
sS'code'
p6
S'<code object <module> at 0x7f310bc55d30, file "/home/www-data/web2py/applications/admin/controllers/default.py", line 3>'
p7
sS'snapshot'
p8
(dp9
S'exception'
p10
(dp11
S'__getslice__'
p12
S"<method-wrapper '__getslice__' of exceptions.ValueError object>"
p13
sS'__str__'
p14
S"<method-wrapper '__str__' of exceptions.ValueError object>"
p15
sS'__reduce__'
p16
S'<built-in method __reduce__ of exceptions.ValueError object>'
p17
sS'__dict__'
p18
S'{}'
p19
sS'message'
p20
S"'unsupported pickle protocol: 3'"
p21
sS'__sizeof__'
p22
S'<built-in method __sizeof__ of exceptions.ValueError object>'
p23
sS'__init__'
p24
S"<method-wrapper '__init__' of exceptions.ValueError object>"
p25
sS'__setattr__'
p26
S"<method-wrapper '__setattr__' of exceptions.ValueError object>"
p27
sS'__reduce_ex__'
p28
S'<built-in method __reduce_ex__ of exceptions.ValueError object>'
p29
sS'__new__'
p30
S'<built-in method __new__ of type object>'
p31
sS'__format__'
p32
S'<built-in method __format__ of exceptions.ValueError object>'
p33
sS'__class__'
p34
S"<type 'exceptions.ValueError'>"
p35
sS'__doc__'
p36
S"'Inappropriate argument value (of correct type).'"
p37
sS'__getitem__'
p38
S"<method-wrapper '__getitem__' of exceptions.ValueError object>"
p39
sS'__setstate__'
p40
S'<built-in method __setstate__ of exceptions.ValueError object>'
p41
sS'__getattribute__'
p42
S"<method-wrapper '__getattribute__' of exceptions.ValueError object>"
p43
sS'args'
p44
S"('unsupported pickle protocol: 3',)"
p45
sS'__subclasshook__'
p46
S'<built-in method __subclasshook__ of type object>'
p47
sS'__unicode__'
p48
S'<built-in method __unicode__ of exceptions.ValueError object>'
p49
sS'__delattr__'
p50
S"<method-wrapper '__delattr__' of exceptions.ValueError object>"
p51
sS'__repr__'
p52
S"<method-wrapper '__repr__' of exceptions.ValueError object>"
p53
sS'__hash__'
p54
S"<method-wrapper '__hash__' of exceptions.ValueError object>"
p55
ssS'evalue'
p56
S'unsupported pickle protocol: 3'
p57
sS'request'
p58
cgluon.html
XML_unpickle
p59
(S's5c\x00\x00<div><table><tr><td style="font-weight:bold;vertical-align:top;">ajax</td><td style="vertical-align:top;">:</td><td><div>False</div></td></tr><tr><td style="font-weight:bold;vertical-align:top;">application</td><td style="vertical-align:top;">:</td><td><div>admin</div></td></tr><tr><td style="font-weight:bold;vertical-align:top;">args</td><td style="vertical-align:top;">:</td><td><div><table><tr><td><div>Qualidade_Ambiental</div></td></tr></table></div></td></tr><tr><td style="font-weight:bold;vertical-align:top;">cid</td><td style="vertical-align:top;">:</td><td><div>None</div></td></tr><tr><td style="font-weight:bold;vertical-align:top;">client</td><td style="vertical-align:top;">:</td><td><div>10.34.7.44</div></td></tr><tr><td style="font-weight:bold;vertical-align:top;">controller</td><td style="vertical-align:top;">:</td><td><div>default</div></td></tr><tr><td style="font-weight:bold;vertical-align:top;">cookies</td><td style="vertical-align:top;">:</td><td><div><table><tr><td style="font-weight:bold;vertical-align:top;">session_id_admin</td><td style="vertical-align:top;">:</td><td><div>10.34.7.44-b455aed9-2aee-4a70-9bd9-339b39b137c6<table><tr><td style="font-weight:bold;vertical-align:top;">comment</td><td style="vertical-align:top;">:</td><td><div></div></td></tr><tr><td style="font-weight:bold;vertical-align:top;">domain</td><td style="vertical-align:top;">:</td><td><div></div></td></tr><tr><td style="font-weight:bold;vertical-align:top;">expires</td><td style="vertical-align:top;">:</td><td><div></div></td></tr><tr><td style="font-weight:bold;vertical-align:top;">httponly</td><td style="vertical-align:top;">:</td><td><div></div></td></tr><tr><td style="font-weight:bold;vertical-align:top;">max-age</td><td style="vertical-align:top;">:</td><td><div></div></td></tr><tr><td style="font-weight:bold;vertical-align:top;">path</td><td style="vertical-align:top;">:</td><td><div></div></td></tr><tr><td style="font-weight:bold;vertical-align:top;">secure</td><td style="vertical-align:top;">:</td><td><div></div></td></tr><tr><td style="font-weight:bold;vertical-align:top;">version</td><td style="vertical-align:top;">:</td><td><div></div></td></tr></table></div></td></tr><tr><td style="font-weight:bold;vertical-align:top;">session_id_designer</td><td style="vertical-align:top;">:</td><td><div>10.34.7.44-390170f7-cd6f-4938-8bf9-4b9a385cbc7c<table><tr><td style="font-weight:bold;vertical-align:top;">comment</td><td style="vertical-align:top;">:</td><td><div></div></td></tr><tr><td style="font-weight:bold;vertical-align:top;">domain</td><td style="vertical-align:top;">:</td><td><div></div></td></tr><tr><td style="font-weight:bold;vertical-align:top;">expires</td><td style="vertical-align:top;">:</td><td><div></div></td></tr><tr><td style="font-weight:bold;vertical-align:top;">httponly</td><td style="vertical-align:top;">:</td><td><div></div></td></tr><tr><td style="font-weight:bold;vertical-align:top;">max-age</td><td style="vertical-align:top;">:</td><td><div></div></td></tr><tr><td style="font-weight:bold;vertical-align:top;">path</td><td style="vertical-align:top;">:</td><td><div></div></td></tr><tr><td style="font-weight:bold;vertical-align:top;">secure</td><td style="vertical-align:top;">:</td><td><div></div></td></tr><tr><td style="font-weight:bold;vertical-align:top;">version</td><td style="vertical-align:top;">:</td><td><div></div></td></tr></table></div></td></tr><tr><td style="font-weight:bold;vertical-align:top;">session_id_qualidade_ambiental</td><td style="vertical-align:top;">:</td><td><div>10.34.7.44-5e68b187-9f06-485c-a454-53388a9d5b7d<table><tr><td style="font-weight:bold;vertical-align:top;">comment</td><td style="vertical-align:top;">:</td><td><div></div></td></tr><tr><td style="font-weight:bold;vertical-align:top;">domain</td><td style="vertical-align:top;">:</td><td><div></div></td></tr><tr><td style="font-weight:bold;vertical-align:top;">expires</td><td style="vertical-align:top;">:</td><td><div></div></td></tr><tr><td style="font-weight:bold;vertical-align:top;">httponly</td><td style="vertical-align:top;">:</td><td><div></div></td></tr><tr><td style="font-weight:bold;vertical-align:top;">max-age</td><td style="vertical-align:top;">:</td><td><div></div></td></tr><tr><td style="font-weight:bold;vertical-align:top;">path</td><td style="vertical-align:top;">:</td><td><div></div></td></tr><tr><td style="font-weight:bold;vertical-align:top;">secure</td><td style="vertical-align:top;">:</td><td><div></div></td></tr><tr><td style="font-weight:bold;vertical-align:top;">version</td><td style="vertical-align:top;">:</td><td><div></div></td></tr></table></div></td></tr><tr><td style="font-weight:bold;vertical-align:top;">session_id_welcome</td><td style="vertical-align:top;">:</td><td><div>10.34.7.44-f55775f7-8ded-40f4-8455-7ae5ee596440<table><tr><td style="font-weight:bold;vertical-align:top;">comment</td><td style="vertical-align:top;">:</td><td><div></div></td></tr><tr><td style="font-weight:bold;vertical-align:top;">domain</td><td style="vertical-align:top;">:</td><td><div></div></td></tr><tr><td style="font-weight:bold;vertical-align:top;">expires</td><td style="vertical-align:top;">:</td><td><div></div></td></tr><tr><td style="font-weight:bold;vertical-align:top;">httponly</td><td style="vertical-align:top;">:</td><td><div></div></td></tr><tr><td style="font-weight:bold;vertical-align:top;">max-age</td><td style="vertical-align:top;">:</td><td><div></div></td></tr><tr><td style="font-weight:bold;vertical-align:top;">path</td><td style="vertical-align:top;">:</td><td><div></div></td></tr><tr><td style="font-weight:bold;vertical-align:top;">secure</td><td style="vertical-align:top;">:</td><td><div></div></td></tr><tr><td style="font-weight:bold;vertical-align:top;">version</td><td style="vertical-align:top;">:</td><td><div></div></td></tr></table></div></td></tr><tr><td style="font-weight:bold;vertical-align:top;">wwwsqldesigner</td><td style="vertical-align:top;">:</td><td><div>{locale:&#x27;pt_BR&#x27;,db:&#x27;mysql&#x27;,snap:&#x27;0&#x27;,pattern:&#x27;%R_%T&#x27;,hide:&#x27;&#x27;,vector:&#x27;1&#x27;,showsize:&#x27;&#x27;,showtype:&#x27;&#x27;}<table><tr><td style="font-weight:bold;vertical-align:top;">comment</td><td style="vertical-align:top;">:</td><td><div></div></td></tr><tr><td style="font-weight:bold;vertical-align:top;">domain</td><td style="vertical-align:top;">:</td><td><div></div></td></tr><tr><td style="font-weight:bold;vertical-align:top;">expires</td><td style="vertical-align:top;">:</td><td><div></div></td></tr><tr><td style="font-weight:bold;vertical-align:top;">httponly</td><td style="vertical-align:top;">:</td><td><div></div></td></tr><tr><td style="font-weight:bold;vertical-align:top;">max-age</td><td style="vertical-align:top;">:</td><td><div></div></td></tr><tr><td style="font-weight:bold;vertical-align:top;">path</td><td style="vertical-align:top;">:</td><td><div></div></td></tr><tr><td style="font-weight:bold;vertical-align:top;">secure</td><td style="vertical-align:top;">:</td><td><div></div></td></tr><tr><td style="font-weight:bold;vertical-align:top;">version</td><td style="vertical-align:top;">:</td><td><div></div></td></tr></table></div></td></tr></table></div></td></tr><tr><td style="font-weight:bold;vertical-align:top;">env</td><td style="vertical-align:top;">:</td><td><div><table><tr><td style="font-weight:bold;vertical-align:top;">CONTENT_LENGTH</td><td style="vertical-align:top;">:</td><td><div></div></td></tr><tr><td style="font-weight:bold;vertical-align:top;">CONTENT_TYPE</td><td style="vertical-align:top;">:</td><td><div></div></td></tr><tr><td style="font-weight:bold;vertical-align:top;">DOCUMENT_ROOT</td><td style="vertical-align:top;">:</td><td><div>/usr/share/nginx/html</div></td></tr><tr><td style="font-weight:bold;vertical-align:top;">HTTPS</td><td style="vertical-align:top;">:</td><td><div>on</div></td></tr><tr><td style="font-weight:bold;vertical-align:top;">HTTP_ACCEPT</td><td style="vertical-align:top;">:</td><td><div>text/html,application/xhtml+xml,application/xml;q=0.9,*/*;q=0.8</div></td></tr><tr><td style="font-weight:bold;vertical-align:top;">HTTP_ACCEPT_ENCODING</td><td style="vertical-align:top;">:</td><td><div>gzip, deflate, br</div></td></tr><tr><td style="font-weight:bold;vertical-align:top;">HTTP_ACCEPT_LANGUAGE</td><td style="vertical-align:top;">:</td><td><div>pt-BR</div></td></tr><tr><td style="font-weight:bold;vertical-align:top;">HTTP_CONNECTION</td><td style="vertical-align:top;">:</td><td><div>keep-alive</div></td></tr><tr><td style="font-weight:bold;vertical-align:top;">HTTP_COOKIE</td><td style="vertical-align:top;">:</td><td><div>_xsrf=2|69891a86|1f0099a7accd226071828a16a3196571|1572447762; session_id_welcome=10.34.7.44-f55775f7-8ded-40f4-8455-7ae5ee596440; session_id_admin=10.34.7.44-b455aed9-2aee-4a70-9bd9-339b39b137c6; session_id_qualidade_ambiental=10.34.7.44-5e68b187-9f06-485c-a454-53388a9d5b7d; session_id_designer=10.34.7.44-390170f7-cd6f-4938-8bf9-4b9a385cbc7c; wwwsqldesigner={locale:&#x27;pt_BR&#x27;,db:&#x27;mysql&#x27;,snap:&#x27;0&#x27;,pattern:&#x27;%R_%T&#x27;,hide:&#x27;&#x27;,vector:&#x27;1&#x27;,showsize:&#x27;&#x27;,showtype:&#x27;&#x27;}</div></td></tr><tr><td style="font-weight:bold;vertical-align:top;">HTTP_DNT</td><td style="vertical-align:top;">:</td><td><div>1</div></td></tr><tr><td style="font-weight:bold;vertical-align:top;">HTTP_HOST</td><td style="vertical-align:top;">:</td><td><div>10.34.7.37</div></td></tr><tr><td style="font-weight:bold;vertical-align:top;">HTTP_REFERER</td><td style="vertical-align:top;">:</td><td><div>https://10.34.7.37/Qualidade_Ambiental/default/index</div></td></tr><tr><td style="font-weight:bold;vertical-align:top;">HTTP_UPGRADE_INSECURE_REQUESTS</td><td style="vertical-align:top;">:</td><td><div>1</div></td></tr><tr><td style="font-weight:bold;vertical-align:top;">HTTP_USER_AGENT</td><td style="vertical-align:top;">:</td><td><div>Mozilla/5.0 (Windows NT 10.0; Win64; x64; rv:67.0) Gecko/20100101 Firefox/67.0</div></td></tr><tr><td style="font-weight:bold;vertical-align:top;">PATH_INFO</td><td style="vertical-align:top;">:</td><td><div>/admin/default/errors/Qualidade_Ambiental</div></td></tr><tr><td style="font-weight:bold;vertical-align:top;">QUERY_STRING</td><td style="vertical-align:top;">:</td><td><div></div></td></tr><tr><td style="font-weight:bold;vertical-align:top;">REMOTE_ADDR</td><td style="vertical-align:top;">:</td><td><div>10.34.7.44</div></td></tr><tr><td style="font-weight:bold;vertical-align:top;">REMOTE_PORT</td><td style="vertical-align:top;">:</td><td><div>61351</div></td></tr><tr><td style="font-weight:bold;vertical-align:top;">REQUEST_METHOD</td><td style="vertical-align:top;">:</td><td><div>GET</div></td></tr><tr><td style="font-weight:bold;vertical-align:top;">REQUEST_SCHEME</td><td style="vertical-align:top;">:</td><td><div>https</div></td></tr><tr><td style="font-weight:bold;vertical-align:top;">REQUEST_URI</td><td style="vertical-align:top;">:</td><td><div>/admin/default/errors/Qualidade_Ambiental</div></td></tr><tr><td style="font-weight:bold;vertical-align:top;">SERVER_NAME</td><td style="vertical-align:top;">:</td><td><div>smmau-004-pc004</div></td></tr><tr><td style="font-weight:bold;vertical-align:top;">SERVER_PORT</td><td style="vertical-align:top;">:</td><td><div>443</div></td></tr><tr><td style="font-weight:bold;vertical-align:top;">SERVER_PROTOCOL</td><td style="vertical-align:top;">:</td><td><div>HTTP/1.1</div></td></tr><tr><td style="font-weight:bold;vertical-align:top;">SERVER_SOFTWARE</td><td style="vertical-align:top;">:</td><td><div>nginx/1.14.0</div></td></tr><tr><td style="font-weight:bold;vertical-align:top;">UWSGI_SCHEME</td><td style="vertical-align:top;">:</td><td><div>https</div></td></tr><tr><td style="font-weight:bold;vertical-align:top;">app_folders</td><td style="vertical-align:top;">:</td><td><div>set([&#x27;/home/www-data/web2py/applications/admin/&#x27;])</div></td></tr><tr><td style="font-weight:bold;vertical-align:top;">applications_parent</td><td style="vertical-align:top;">:</td><td><div>/home/www-data/web2py</div></td></tr><tr><td style="font-weight:bold;vertical-align:top;">content_length</td><td style="vertical-align:top;">:</td><td><div></div></td></tr><tr><td style="font-weight:bold;vertical-align:top;">content_type</td><td style="vertical-align:top;">:</td><td><div></div></td></tr><tr><td style="font-weight:bold;vertical-align:top;">db_sessions</td><td style="vertical-align:top;">:</td><td><div>set([])</div></td></tr><tr><td style="font-weight:bold;vertical-align:top;">debugging</td><td style="vertical-align:top;">:</td><td><div>False</div></td></tr><tr><td style="font-weight:bold;vertical-align:top;">document_root</td><td style="vertical-align:top;">:</td><td><div>/usr/share/nginx/html</div></td></tr><tr><td style="font-weight:bold;vertical-align:top;">gluon_parent</td><td style="vertical-align:top;">:</td><td><div>/home/www-data/web2py</div></td></tr><tr><td style="font-weight:bold;vertical-align:top;">http_accept</td><td style="vertical-align:top;">:</td><td><div>text/html,application/xhtml+xml,application/xml;q=0.9,*/*;q=0.8</div></td></tr><tr><td style="font-weight:bold;vertical-align:top;">http_accept_encoding</td><td style="vertical-align:top;">:</td><td><div>gzip, deflate, br</div></td></tr><tr><td style="font-weight:bold;vertical-align:top;">http_accept_language</td><td style="vertical-align:top;">:</td><td><div>pt-BR</div></td></tr><tr><td style="font-weight:bold;vertical-align:top;">http_connection</td><td style="vertical-align:top;">:</td><td><div>keep-alive</div></td></tr><tr><td style="font-weight:bold;vertical-align:top;">http_cookie</td><td style="vertical-align:top;">:</td><td><div>_xsrf=2|69891a86|1f0099a7accd226071828a16a3196571|1572447762; session_id_welcome=10.34.7.44-f55775f7-8ded-40f4-8455-7ae5ee596440; session_id_admin=10.34.7.44-b455aed9-2aee-4a70-9bd9-339b39b137c6; session_id_qualidade_ambiental=10.34.7.44-5e68b187-9f06-485c-a454-53388a9d5b7d; session_id_designer=10.34.7.44-390170f7-cd6f-4938-8bf9-4b9a385cbc7c; wwwsqldesigner={locale:&#x27;pt_BR&#x27;,db:&#x27;mysql&#x27;,snap:&#x27;0&#x27;,pattern:&#x27;%R_%T&#x27;,hide:&#x27;&#x27;,vector:&#x27;1&#x27;,showsize:&#x27;&#x27;,showtype:&#x27;&#x27;}</div></td></tr><tr><td style="font-weight:bold;vertical-align:top;">http_dnt</td><td style="vertical-align:top;">:</td><td><div>1</div></td></tr><tr><td style="font-weight:bold;vertical-align:top;">http_host</td><td style="vertical-align:top;">:</td><td><div>10.34.7.37</div></td></tr><tr><td style="font-weight:bold;vertical-align:top;">http_referer</td><td style="vertical-align:top;">:</td><td><div>https://10.34.7.37/Qualidade_Ambiental/default/index</div></td></tr><tr><td style="font-weight:bold;vertical-align:top;">http_upgrade_insecure_requests</td><td style="vertical-align:top;">:</td><td><div>1</div></td></tr><tr><td style="font-weight:bold;vertical-align:top;">http_user_agent</td><td style="vertical-align:top;">:</td><td><div>Mozilla/5.0 (Windows NT 10.0; Win64; x64; rv:67.0) Gecko/20100101 Firefox/67.0</div></td></tr><tr><td style="font-weight:bold;vertical-align:top;">https</td><td style="vertical-align:top;">:</td><td><div>on</div></td></tr><tr><td style="font-weight:bold;vertical-align:top;">is_jython</td><td style="vertical-align:top;">:</td><td><div>False</div></td></tr><tr><td style="font-weight:bold;vertical-align:top;">is_py2</td><td style="vertical-align:top;">:</td><td><div>True</div></td></tr><tr><td style="font-weight:bold;vertical-align:top;">is_pypy</td><td style="vertical-align:top;">:</td><td><div>False</div></td></tr><tr><td style="font-weight:bold;vertical-align:top;">is_source</td><td style="vertical-align:top;">:</td><td><div>True</div></td></tr><tr><td style="font-weight:bold;vertical-align:top;">path_info</td><td style="vertical-align:top;">:</td><td><div>/admin/default/errors/Qualidade_Ambiental</div></td></tr><tr><td style="font-weight:bold;vertical-align:top;">query_string</td><td style="vertical-align:top;">:</td><td><div></div></td></tr><tr><td style="font-weight:bold;vertical-align:top;">remote_addr</td><td style="vertical-align:top;">:</td><td><div>10.34.7.44</div></td></tr><tr><td style="font-weight:bold;vertical-align:top;">remote_port</td><td style="vertical-align:top;">:</td><td><div>61351</div></td></tr><tr><td style="font-weight:bold;vertical-align:top;">request_method</td><td style="vertical-align:top;">:</td><td><div>GET</div></td></tr><tr><td style="font-weight:bold;vertical-align:top;">request_scheme</td><td style="vertical-align:top;">:</td><td><div>https</div></td></tr><tr><td style="font-weight:bold;vertical-align:top;">request_uri</td><td style="vertical-align:top;">:</td><td><div>/admin/default/errors/Qualidade_Ambiental</div></td></tr><tr><td style="font-weight:bold;vertical-align:top;">server_name</td><td style="vertical-align:top;">:</td><td><div>smmau-004-pc004</div></td></tr><tr><td style="font-weight:bold;vertical-align:top;">server_port</td><td style="vertical-align:top;">:</td><td><div>443</div></td></tr><tr><td style="font-weight:bold;vertical-align:top;">server_protocol</td><td style="vertical-align:top;">:</td><td><div>HTTP/1.1</div></td></tr><tr><td style="font-weight:bold;vertical-align:top;">server_software</td><td style="vertical-align:top;">:</td><td><div>nginx/1.14.0</div></td></tr><tr><td style="font-weight:bold;vertical-align:top;">uwsgi.node</td><td style="vertical-align:top;">:</td><td><div>smmau-004-pc004</div></td></tr><tr><td style="font-weight:bold;vertical-align:top;">uwsgi.version</td><td style="vertical-align:top;">:</td><td><div>2.0.18</div></td></tr><tr><td style="font-weight:bold;vertical-align:top;">uwsgi_node</td><td style="vertical-align:top;">:</td><td><div>smmau-004-pc004</div></td></tr><tr><td style="font-weight:bold;vertical-align:top;">uwsgi_scheme</td><td style="vertical-align:top;">:</td><td><div>https</div></td></tr><tr><td style="font-weight:bold;vertical-align:top;">uwsgi_version</td><td style="vertical-align:top;">:</td><td><div>2.0.18</div></td></tr><tr><td style="font-weight:bold;vertical-align:top;">web2py_path</td><td style="vertical-align:top;">:</td><td><div>/home/www-data/web2py</div></td></tr><tr><td style="font-weight:bold;vertical-align:top;">web2py_version</td><td style="vertical-align:top;">:</td><td><div>2.17.2-stable+timestamp.2018.10.06.18.54.02</div></td></tr><tr><td style="font-weight:bold;vertical-align:top;">wsgi.errors</td><td style="vertical-align:top;">:</td><td><div>&lt;open file &#x27;wsgi_errors&#x27;, mode &#x27;w&#x27; at 0x7f311696f270&gt;</div></td></tr><tr><td style="font-weight:bold;vertical-align:top;">wsgi.file_wrapper</td><td style="vertical-align:top;">:</td><td><div>&lt;built-in function uwsgi_sendfile&gt;</div></td></tr><tr><td style="font-weight:bold;vertical-align:top;">wsgi.input</td><td style="vertical-align:top;">:</td><td><div>&lt;uwsgi._Input object at 0x7f311d317c78&gt;</div></td></tr><tr><td style="font-weight:bold;vertical-align:top;">wsgi.multiprocess</td><td style="vertical-align:top;">:</td><td><div>True</div></td></tr><tr><td style="font-weight:bold;vertical-align:top;">wsgi.multithread</td><td style="vertical-align:top;">:</td><td><div>False</div></td></tr><tr><td style="font-weight:bold;vertical-align:top;">wsgi.run_once</td><td style="vertical-align:top;">:</td><td><div>False</div></td></tr><tr><td style="font-weight:bold;vertical-align:top;">wsgi.url_scheme</td><td style="vertical-align:top;">:</td><td><div>https</div></td></tr><tr><td style="font-weight:bold;vertical-align:top;">wsgi.version</td><td style="vertical-align:top;">:</td><td><div><table><tr><td><div>1</div></td></tr><tr><td><div>0</div></td></tr></table></div></td></tr><tr><td style="font-weight:bold;vertical-align:top;">wsgi_errors</td><td style="vertical-align:top;">:</td><td><div>&lt;open file &#x27;wsgi_errors&#x27;, mode &#x27;w&#x27; at 0x7f311696f270&gt;</div></td></tr><tr><td style="font-weight:bold;vertical-align:top;">wsgi_file_wrapper</td><td style="vertical-align:top;">:</td><td><div>&lt;built-in function uwsgi_sendfile&gt;</div></td></tr><tr><td style="font-weight:bold;vertical-align:top;">wsgi_input</td><td style="vertical-align:top;">:</td><td><div>&lt;uwsgi._Input object at 0x7f311d317c78&gt;</div></td></tr><tr><td style="font-weight:bold;vertical-align:top;">wsgi_multiprocess</td><td style="vertical-align:top;">:</td><td><div>True</div></td></tr><tr><td style="font-weight:bold;vertical-align:top;">wsgi_multithread</td><td style="vertical-align:top;">:</td><td><div>False</div></td></tr><tr><td style="font-weight:bold;vertical-align:top;">wsgi_run_once</td><td style="vertical-align:top;">:</td><td><div>False</div></td></tr><tr><td style="font-weight:bold;vertical-align:top;">wsgi_url_scheme</td><td style="vertical-align:top;">:</td><td><div>https</div></td></tr><tr><td style="font-weight:bold;vertical-align:top;">wsgi_version</td><td style="vertical-align:top;">:</td><td><div><table><tr><td><div>1</div></td></tr><tr><td><div>0</div></td></tr></table></div></td></tr></table></div></td></tr><tr><td style="font-weight:bold;vertical-align:top;">extension</td><td style="vertical-align:top;">:</td><td><div>html</div></td></tr><tr><td style="font-weight:bold;vertical-align:top;">folder</td><td style="vertical-align:top;">:</td><td><div>/home/www-data/web2py/applications/admin/</div></td></tr><tr><td style="font-weight:bold;vertical-align:top;">function</td><td style="vertical-align:top;">:</td><td><div>errors</div></td></tr><tr><td style="font-weight:bold;vertical-align:top;">global_settings</td><td style="vertical-align:top;">:</td><td><div><table><tr><td style="font-weight:bold;vertical-align:top;">app_folders</td><td style="vertical-align:top;">:</td><td><div>set([&#x27;/home/www-data/web2py/applications/admin/&#x27;])</div></td></tr><tr><td style="font-weight:bold;vertical-align:top;">applications_parent</td><td style="vertical-align:top;">:</td><td><div>/home/www-data/web2py</div></td></tr><tr><td style="font-weight:bold;vertical-align:top;">db_sessions</td><td style="vertical-align:top;">:</td><td><div>set([])</div></td></tr><tr><td style="font-weight:bold;vertical-align:top;">debugging</td><td style="vertical-align:top;">:</td><td><div>False</div></td></tr><tr><td style="font-weight:bold;vertical-align:top;">gluon_parent</td><td style="vertical-align:top;">:</td><td><div>/home/www-data/web2py</div></td></tr><tr><td style="font-weight:bold;vertical-align:top;">is_jython</td><td style="vertical-align:top;">:</td><td><div>False</div></td></tr><tr><td style="font-weight:bold;vertical-align:top;">is_py2</td><td style="vertical-align:top;">:</td><td><div>True</div></td></tr><tr><td style="font-weight:bold;vertical-align:top;">is_pypy</td><td style="vertical-align:top;">:</td><td><div>False</div></td></tr><tr><td style="font-weight:bold;vertical-align:top;">is_source</td><td style="vertical-align:top;">:</td><td><div>True</div></td></tr><tr><td style="font-weight:bold;vertical-align:top;">local_hosts</td><td style="vertical-align:top;">:</td><td><div><table><tr><td><div>smmau-004-pc004</div></td></tr><tr><td><div>::1</div></td></tr><tr><td><div>::ffff:127.0.0.1</div></td></tr><tr><td><div>127.0.0.1</div></td></tr><tr><td><div>smmau-004-pc004.REDE-EMPRO.empro.com.br</div></td></tr></table></div></td></tr><tr><td style="font-weight:bold;vertical-align:top;">web2py_version</td><td style="vertical-align:top;">:</td><td><div>2.17.2-stable+timestamp.2018.10.06.18.54.02</div></td></tr></table></div></td></tr><tr><td style="font-weight:bold;vertical-align:top;">is_https</td><td style="vertical-align:top;">:</td><td><div>True</div></td></tr><tr><td style="font-weight:bold;vertical-align:top;">is_local</td><td style="vertical-align:top;">:</td><td><div>False</div></td></tr><tr><td style="font-weight:bold;vertical-align:top;">is_restful</td><td style="vertical-align:top;">:</td><td><div>False</div></td></tr><tr><td style="font-weight:bold;vertical-align:top;">is_scheduler</td><td style="vertical-align:top;">:</td><td><div>False</div></td></tr><tr><td style="font-weight:bold;vertical-align:top;">is_shell</td><td style="vertical-align:top;">:</td><td><div>False</div></td></tr><tr><td style="font-weight:bold;vertical-align:top;">method</td><td style="vertical-align:top;">:</td><td><div>GET</div></td></tr><tr><td style="font-weight:bold;vertical-align:top;">now</td><td style="vertical-align:top;">:</td><td><div>datetime.datetime(2019, 12, 13, 13, 25, 55, 537764)</div></td></tr><tr><td style="font-weight:bold;vertical-align:top;">raw_args</td><td style="vertical-align:top;">:</td><td><div>Qualidade_Ambiental</div></td></tr><tr><td style="font-weight:bold;vertical-align:top;">raw_extension</td><td style="vertical-align:top;">:</td><td><div>None</div></td></tr><tr><td style="font-weight:bold;vertical-align:top;">url</td><td style="vertical-align:top;">:</td><td><div>/admin/default/errors/Qualidade_Ambiental</div></td></tr><tr><td style="font-weight:bold;vertical-align:top;">utcnow</td><td style="vertical-align:top;">:</td><td><div>datetime.datetime(2019, 12, 13, 16, 25, 55, 537823)</div></td></tr><tr><td style="font-weight:bold;vertical-align:top;">wsgi</td><td style="vertical-align:top;">:</td><td><div>&lt;gluon.main.LazyWSGI object at 0x7f31169235d0&gt;</div></td></tr></table></div>'
tRp60
sS'frames'
p61
(lp62
(dp63
S'file'
p64
S'/home/www-data/web2py/gluon/restricted.py'
p65
sS'dump'
p66
(dp67
S'environment'
p68
S"{'A': <class 'gluon.html.A'>, 'ANY_OF': <class 'gluon.validators.ANY_OF'>, 'ASSIGNJS': <function ASSIGNJS>, 'A_button': <function A_button>, 'B': <class 'gluon.html.B'>, 'BEAUTIFY': <class 'gluon.html.BEAUTIFY'>, 'BODY': <class 'gluon.html.BODY'>, 'BR': <class 'gluon.html.BR'>, 'BUTTON': <class 'gluon.html.BUTTON'>, 'CAT': <class 'gluon.html.CAT'>, ...}"
p69
sS'ccode'
p70
S'<code object <module> at 0x7f310bc55d30, file "/...plications/admin/controllers/default.py", line 3>'
p71
ssS'lnum'
p72
I219
sS'lines'
p73
(dp74
I214
S'    if environment is None:'
p75
sI215
S'        environment = {}'
p76
sI216
S"    environment['__file__'] = layer"
p77
sI217
S"    environment['__name__'] = '__restricted__'"
p78
sI218
S'    try:'
p79
sI219
S'        exec(ccode, environment)'
p80
sI220
S'    except HTTP:'
p81
sI221
S'        raise'
p82
sI222
S'    except RestrictedError:'
p83
sI223
S'        # do not encapsulate (obfuscate) the original RestrictedError'
p84
ssS'call'
p85
S'(ccode=<code object <module> at 0x7f310bc55d30, file "/...plications/admin/controllers/default.py", line 3>, environment={\'A\': <class \'gluon.html.A\'>, \'ANY_OF\': <class \'gluon.validators.ANY_OF\'>, \'ASSIGNJS\': <function ASSIGNJS>, \'A_button\': <function A_button>, \'B\': <class \'gluon.html.B\'>, \'BEAUTIFY\': <class \'gluon.html.BEAUTIFY\'>, \'BODY\': <class \'gluon.html.BODY\'>, \'BR\': <class \'gluon.html.BR\'>, \'BUTTON\': <class \'gluon.html.BUTTON\'>, \'CAT\': <class \'gluon.html.CAT\'>, ...}, layer=\'/home/www-data/web2py/applications/admin/controllers/default.py\', scode=<code object <module> at 0x7f310bc55d30, file "/...plications/admin/controllers/default.py", line 3>)'
p86
sS'func'
p87
S'restricted'
p88
sa(dp89
g64
S'/home/www-data/web2py/applications/admin/controllers/default.py'
p90
sg66
(dp91
sg72
I2012
sg73
(dp92
I2001
S'        else:'
p93
sI2002
S'            filename = "web2py.plugin.%s.w2p" % cleanpath(plugin)'
p94
sI2003
S'        if plugin_install(app, urlopen(source),'
p95
sI2004
S'                          request, filename):'
p96
sI2005
S"            session.flash = T('New plugin installed: %s', filename)"
p97
sI2006
S'        else:'
p98
sI2007
S'            session.flash = \\'
p99
sI2008
S'                T(\'unable to install plugin "%s"\', filename)'
p100
sI2009
S'        redirect(URL(f="plugins", args=[app, ]))'
p101
sI2010
S'    return dict(form=form, app=app, plugin=plugin, source=source)'
p102
ssg85
S'()'
p103
sg87
S'<module>'
p104
sa(dp105
g64
S'/home/www-data/web2py/gluon/globals.py'
p106
sg66
(dp107
S'self'
p108
S'undefined'
p109
sS'f'
S'<function errors>'
p110
ssg72
I421
sg73
(dp111
I416
S"        self.flash = ''            # used by the default view layout"
p112
sI417
S'        self.meta = Storage()      # used by web2py_ajax.html'
p113
sI418
S'        self.menu = []             # used by the default view layout'
p114
sI419
S'        self.files = []            # used by web2py_ajax.html'
p115
sI420
S'        self._vars = None'
p116
sI421
S'        self._caller = lambda f: f()'
p117
sI422
S'        self._view_environment = None'
p118
sI423
S'        self._custom_commit = None'
p119
sI424
S'        self._custom_rollback = None'
p120
sI425
S"        self.generic_patterns = ['*']"
p121
ssg85
S'(f=<function errors>)'
p122
sg87
S'<lambda>'
p123
sa(dp124
g64
S'/home/www-data/web2py/applications/admin/controllers/default.py'
p125
sg66
(dp126
S'fullpath_file'
p127
S"<closed file '/home/www-data/web2py/applications...1ffa2558-1c52-4db4-9eea-16780f38250f', mode 'rb'>"
p128
sS'pickle.load'
p129
S'<built-in function load>'
p130
sS'global pickle'
p131
S"<module 'cPickle' (built-in)>"
p132
sS'error'
p133
S'{\'code\': \'<code object <module> at 0x7f310bcc8630, file "/...ade_Ambiental/controllers/plotdados.py", line 26>\', \'layer\': \'/home/www-data/web2py/applications/Qualidade_Ambiental/controllers/plotdados.py\', \'output\': "<type \'exceptions.TypeError\'> unsupported operand type(s) for +: \'int\' and \'NoneType\'", \'snapshot\': {\'date\': \'Fri Dec 13 10:17:44 2019\', \'etype\': "<type \'exceptions.TypeError\'>", \'evalue\': "unsupported operand type(s) for +: \'int\' and \'NoneType\'", \'exception\': {\'__class__\': "<type \'exceptions.TypeError\'>", \'__delattr__\': "<method-wrapper \'__delattr__\' of exceptions.TypeError object>", \'__dict__\': \'{}\', \'__doc__\': "\'Inappropriate argument type.\'", \'__format__\': \'<built-in method __format__ of exceptions.TypeError object>\', \'__getattribute__\': "<method-wrapper \'__getattribute__\' of exceptions.TypeError object>", \'__getitem__\': "<method-wrapper \'__getitem__\' of exceptions.TypeError object>", \'__getslice__\': "<method-wrapper \'__getslice__\' of exceptions.TypeError object>", \'__hash__\': "<method-wrapper \'__hash__\' of exceptions.TypeError object>", \'__init__\': "<method-wrapper \'__init__\' of exceptions.TypeError object>", ...}, \'frames\': [{\'call\': \'(ccode=<code object <module> at 0x7f310bcc8630, ...de_Ambiental/controllers/plotdados.py", line 26>)\', \'dump\': {\'ccode\': \'<code object <module> at 0x7f310bcc8630, file "/...ade_Ambiental/controllers/plotdados.py", line 26>\', \'environment\': "{\'A\': <class \'gluon.html.A\'>, \'ANY_OF\': <class \'...re.AxesStack\'>, \'B\': <class \'gluon.html.B\'>, ...}"}, \'file\': \'/home/www-data/web2py/gluon/restricted.py\', \'func\': \'restricted\', \'lines\': {214: \'    if environment is None:\', 215: \'        environment = {}\', 216: "    environment[\'__file__\'] = layer", 217: "    environment[\'__name__\'] = \'__restricted__\'", 218: \'    try:\', 219: \'        exec(ccode, environment)\', 220: \'    except HTTP:\', 221: \'        raise\', 222: \'    except RestrictedError:\', 223: \'        # do not encapsulate (obfuscate) the original RestrictedError\'}, \'lnum\': 219}, {\'call\': \'()\', \'dump\': {}, \'file\': \'/home/www-data/web2py/applications/Qualidade_Ambiental/controllers/plotdados.py\', \'func\': \'<module>\', \'lines\': {112: \'\\tfor i in query:\', 113: "\\t\\tx.append(i[\'Atividade\'].replace(\'Ponto de Apoio - \',\'\')) #.encode(\'utf-8\'))", 114: \'\\t\\tfor k,v in i.items():\', 115: "\\t\\t\\tif k != \'Atividade\':", 116: \'\\t\\t\\t\\tif v != None:\', 117: \'\\t\\t\\t\\t\\ty.append(v)\', 118: \'\\tfor i in zip(x,y):\', 119: \'\\t\\tlxy.append(i)\', 120: \'\\tlegendgrau = 340\', 121: "\\treturn plot( title=title, xlab=xlab, ylab=ylab,...{u\'Volume por P.A.\': lxy}, legendgrau=legendgrau)"}, \'lnum\': 122}, {\'call\': \'(f=<function pontores>)\', \'dump\': {\'f\': \'<function pontores>\', \'self\': \'undefined\'}, \'file\': \'/home/www-data/web2py/gluon/globals.py\', \'func\': \'<lambda>\', \'lines\': {416: "        self.flash = \'\'            # used by the default view layout", 417: \'        self.meta = Storage()      # used by web2py_ajax.html\', 418: \'        self.menu = []             # used by the default view layout\', 419: \'        self.files = []            # used by web2py_ajax.html\', 420: \'        self._vars = None\', 421: \'        self._caller = lambda f: f()\', 422: \'        self._view_environment = None\', 423: \'        self._custom_commit = None\', 424: \'        self._custom_rollback = None\', 425: "        self.generic_patterns = [\'*\']"}, \'lnum\': 421}, {\'call\': \'()\', \'dump\': {\'data\': \'undefined\', \'global plot\': \'<function plot>\', \'legendgrau\': \'315\', \'lxy\': "[(\'Plast.Papel\', None), (\'Poda\', None), (\'Ferro\'...on.\', None), (\'Moveis\', None), (\'Entulho\', None)]", \'mode\': \'undefined\', \'title\': r"u\'Volume total por res\\xedduos no None\'", \'xlab\': r"u\'res\\xedduos\'", \'ylab\': r"u\'Vol. em metros c\\xfabicos (m3)\'"}, \'file\': \'/home/www-data/web2py/applications/Qualidade_Ambiental/controllers/plotdados.py\', \'func\': \'pontores\', \'lines\': {80: \'\\t\\ty.append(v)\', 81: \'\\tlxy = []\', 82: \'\\tfor i in zip(x,y):\', 83: \'\\t\\tlxy.append(i)\', 84: \'\\tlegendgrau = 315\', 85: "\\treturn plot( title=title, xlab=xlab, ylab=ylab,...olume por res\\xc3\\xadduo\': lxy}, legendgrau=legendgrau)", 86: \'\', 87: \'\', 88: \'def respontos(): # Grafico do volume por ponto do res\\xc3\\xadduo selecionado\', 89: \'\'}, \'lnum\': 85}, {\'call\': r"(title=u\'Volume total por res\\xedduos no None\', ...eis\', None), (\'Entulho\', None)]}, legendgrau=315)", \'dump\': {\'ax\': \'<matplotlib.axes._subplots.AxesSubplot object>\', \'ax.bar\': \'<bound method AxesSubplot.bar of <matplotlib.axes._subplots.AxesSubplot object>>\', \'builtinlen\': \'<built-in function len>\', \'builtinrange\': \'<built-in function range>\', \'ell\': \'undefined\', \'y\': \'[None, None, None, None, None, None]\'}, \'file\': \'/home/www-data/web2py/applications/Qualidade_Ambiental/modules/plotador.py\', \'func\': \'plot\', \'lines\': {42: \'        (x,y)=([],[])\', 43: \'        for point in stream:\', 44: \'            x.append(point[0])\', 45: \'            y.append(point[1])\', 46: "        if mode==\'bar\':", 47: \'            ell = ax.bar(range(len(y)), y)\', 48: \'            ell.set_label(x)\', 49: \'            ax.set_xticks(range(len(y)))\', 50: \'            ax.set_xticklabels(x)\', 51: \'            legend.append((ell,key))\'}, \'lnum\': 47}, {\'call\': \'(ax=<matplotlib.axes._subplots.AxesSubplot objec...one, None, None, None, None, None]), **kwargs={})\', \'dump\': {\'args\': \'([0, 1, 2, 3, 4, 5], [None, None, None, None, None, None])\', \'ax\': \'<matplotlib.axes._subplots.AxesSubplot object>\', \'func\': \'<function bar>\', \'kwargs\': \'{}\'}, \'file\': \'/usr/lib/python2.7/dist-packages/matplotlib/__init__.py\', \'func\': \'inner\', \'lines\': {1713: \'                           "func \\\'%s\\\' but couldn\\\'t find such an argument. \\\\n"\', 1714: \'                           "(This is a programming error, please report to "\', 1715: \'                           "the matplotlib list!)")\', 1716: \'                    warnings.warn(msg % (label_namer, func.__name__),\', 1717: \'                                  RuntimeWarning, stacklevel=2)\', 1718: \'            return func(ax, *args, **kwargs)\', 1719: \'        pre_doc = inner.__doc__\', 1720: \'        if pre_doc is None:\', 1721: "            pre_doc = \'\'", 1722: \'        else:\'}, \'lnum\': 1718}, {\'call\': \'(self=<matplotlib.axes._subplots.AxesSubplot object>, *args=<itertools.izip object>, **kwargs={})\', \'dump\': {\'r\': \'<matplotlib.patches.Rectangle object>\', \'self\': \'<matplotlib.axes._subplots.AxesSubplot object>\', \'self.add_patch\': \'<bound method AxesSubplot.add_patch of <matplotlib.axes._subplots.AxesSubplot object>>\'}, \'file\': \'/usr/lib/python2.7/dist-packages/matplotlib/axes/_axes.py\', \'func\': \'bar\', \'lines\': {2090: \'            r.get_path()._interpolation_steps = 100\', 2091: "            if orientation == \'vertical\':", 2092: \'                r.sticky_edges.y.append(b)\', 2093: "            elif orientation == \'horizontal\':", 2094: \'                r.sticky_edges.x.append(l)\', 2095: \'            self.add_patch(r)\', 2096: \'            patches.append(r)\', 2097: \'\', 2098: \'        holdstate = self._hold\', 2099: \'        self._hold = True  # ensure hold is on before plotting errorbars\'}, \'lnum\': 2095}, {\'call\': \'(self=<matplotlib.axes._subplots.AxesSubplot object>, p=<matplotlib.patches.Rectangle object>)\', \'dump\': {\'p\': \'<matplotlib.patches.Rectangle object>\', \'self\': \'<matplotlib.axes._subplots.AxesSubplot object>\', \'self._update_patch_limits\': \'<bound method AxesSubplot._update_patch_limits of <matplotlib.axes._subplots.AxesSubplot object>>\'}, \'file\': \'/usr/lib/python2.7/dist-packages/matplotlib/axes/_base.py\', \'func\': \'add_patch\', \'lines\': {1849: \'        """\', 1850: \'\', 1851: \'        self._set_artist_props(p)\', 1852: \'        if p.get_clip_path() is None:\', 1853: \'            p.set_clip_path(self.patch)\', 1854: \'        self._update_patch_limits(p)\', 1855: \'        self.patches.append(p)\', 1856: \'        p._remove_method = lambda h: self.patches.remove(h)\', 1857: \'        return p\', 1858: \'\'}, \'lnum\': 1854}, {\'call\': \'(self=<matplotlib.axes._subplots.AxesSubplot object>, patch=<matplotlib.patches.Rectangle object>)\', \'dump\': {\').transform\': \'undefined\', \'patch\': \'<matplotlib.patches.Rectangle object>\', \'patch.get_patch_transform\': \'<bound method Rectangle.get_patch_transform of <matplotlib.patches.Rectangle object>>\', \'vertices\': \'array([[ 0.,  0.],\\n       [ 1.,  0.],\\n       [ 1.,  1.],\\n       [ 0.,  1.],\\n       [ 0.,  0.]])\', \'xys\': \'undefined\'}, \'file\': \'/usr/lib/python2.7/dist-packages/matplotlib/axes/_base.py\', \'func\': \'_update_patch_limits\', \'lines\': {1869: \'        if (isinstance(patch, mpatches.Rectangle) and\', 1870: \'                ((not patch.get_width()) and (not patch.get_height()))):\', 1871: \'            return\', 1872: \'        vertices = patch.get_path().vertices\', 1873: \'        if vertices.size > 0:\', 1874: \'            xys = patch.get_patch_transform().transform(vertices)\', 1875: \'            if patch.get_data_transform() != self.transData:\', 1876: \'                patch_to_data = (patch.get_data_transform() -\', 1877: \'                                 self.transData)\', 1878: \'                xys = patch_to_data.transform(xys)\'}, \'lnum\': 1874}, {\'call\': \'(self=<matplotlib.patches.Rectangle object>)\', \'dump\': {\'self\': \'<matplotlib.patches.Rectangle object>\', \'self._update_patch_transform\': \'<bound method Rectangle._update_patch_transform of <matplotlib.patches.Rectangle object>>\'}, \'file\': \'/usr/lib/python2.7/dist-packages/matplotlib/patches.py\', \'func\': \'get_patch_transform\', \'lines\': {687: \'        rot_trans.rotate_deg_around(x, y, self.angle)\', 688: \'        self._rect_transform = transforms.BboxTransformTo(bbox)\', 689: \'        self._rect_transform += rot_trans\', 690: \'\', 691: \'    def get_patch_transform(self):\', 692: \'        self._update_patch_transform()\', 693: \'        return self._rect_transform\', 694: \'\', 695: \'    def get_x(self):\', 696: \'        "Return the left coord of the rectangle"\'}, \'lnum\': 692}, {\'call\': \'(self=<matplotlib.patches.Rectangle object>)\', \'dump\': {\'bbox\': \'undefined\', \'global transforms\': "<module \'matplotlib.transforms\' from \'/usr/lib/python2.7/dist-packages/matplotlib/transforms.pyc\'>", \'height\': \'None\', \'transforms.Bbox\': "<class \'matplotlib.transforms.Bbox\'>", \'transforms.Bbox.from_bounds\': \'<function from_bounds>\', \'width\': \'0.80000000000000004\', \'x\': \'-0.40000000000000002\', \'y\': \'0\'}, \'file\': \'/usr/lib/python2.7/dist-packages/matplotlib/patches.py\', \'func\': \'_update_patch_transform\', \'lines\': {680: \'        """\', 681: \'        x = self.convert_xunits(self._x)\', 682: \'        y = self.convert_yunits(self._y)\', 683: \'        width = self.convert_xunits(self._width)\', 684: \'        height = self.convert_yunits(self._height)\', 685: \'        bbox = transforms.Bbox.from_bounds(x, y, width, height)\', 686: \'        rot_trans = transforms.Affine2D()\', 687: \'        rot_trans.rotate_deg_around(x, y, self.angle)\', 688: \'        self._rect_transform = transforms.BboxTransformTo(bbox)\', 689: \'        self._rect_transform += rot_trans\'}, \'lnum\': 685}, {\'call\': \'(x0=-0.40000000000000002, y0=0, width=0.80000000000000004, height=None)\', \'dump\': {\'Bbox.from_extents\': \'<function from_extents>\', \'global Bbox\': "<class \'matplotlib.transforms.Bbox\'>", \'height\': \'None\', \'width\': \'0.80000000000000004\', \'x0\': \'-0.40000000000000002\', \'y0\': \'0\'}, \'file\': \'/usr/lib/python2.7/dist-packages/matplotlib/transforms.py\', \'func\': \'from_bounds\', \'lines\': {799: \'        (staticmethod) Create a new :class:`Bbox` from *x0*, *y0*,\', 800: \'        *width* and *height*.\', 801: \'\', 802: \'        *width* and *height* may be negative.\', 803: \'        """\', 804: \'        return Bbox.from_extents(x0, y0, x0 + width, y0 + height)\', 805: \'\', 806: \'    @staticmethod\', 807: \'    def from_extents(*args):\', 808: \'        """\'}, \'lnum\': 804}], \'locals\': {\'height\': \'None\', \'width\': \'0.80000000000000004\', \'x0\': \'-0.40000000000000002\', \'y0\': \'0\'}, \'pyver\': \'Python 2.7.15+: /usr/local/bin/uwsgi (prefix: /usr)\', \'request\': <div><table><tr><td style="font-weight:bold;vert... 0x7f31169235d0&gt;</div></td></tr></table></div>, \'response\': <div><table><tr><td style="font-weight:bold;vert...tdados/pontores.png</div></td></tr></table></div>, \'session\': <div><table></table></div>}, \'traceback\': \'Traceback (most recent call last):\\n  File "/home...rted operand type(s) for +: \\\'int\\\' and \\\'NoneType\\\'\\n\'}'
p134
ssg72
I1618
sg73
(dp135
I1613
S'            if not os.path.isfile(fullpath):'
p136
sI1614
S'                continue'
p137
sI1615
S'            try:'
p138
sI1616
S"                fullpath_file = safe_open(fullpath, 'rb')"
p139
sI1617
S'                try:'
p140
sI1618
S'                    error = pickle.load(fullpath_file)'
p141
sI1619
S'                finally:'
p142
sI1620
S'                    fullpath_file.close()'
p143
sI1621
S'            except IOError:'
p144
sI1622
S'                continue'
p145
ssg85
S'()'
p146
sg87
S'errors'
p147
sasS'pyver'
p148
S'Python 2.7.15+: /usr/local/bin/uwsgi (prefix: /usr)'
p149
sS'session'
p150
g59
(S's\x93\x04\x00\x00<div><table><tr><td style="font-weight:bold;vertical-align:top;">authorized</td><td style="vertical-align:top;">:</td><td><div>True</div></td></tr><tr><td style="font-weight:bold;vertical-align:top;">check_version</td><td style="vertical-align:top;">:</td><td><div>False</div></td></tr><tr><td style="font-weight:bold;vertical-align:top;">flash</td><td style="vertical-align:top;">:</td><td><div>None</div></td></tr><tr><td style="font-weight:bold;vertical-align:top;">hmac_key</td><td style="vertical-align:top;">:</td><td><div>f65a0105-7c69-4250-8d01-53c585f7adb6</div></td></tr><tr><td style="font-weight:bold;vertical-align:top;">is_mobile</td><td style="vertical-align:top;">:</td><td><div>auto</div></td></tr><tr><td style="font-weight:bold;vertical-align:top;">last_time</td><td style="vertical-align:top;">:</td><td><div>1576254355.721132</div></td></tr><tr><td style="font-weight:bold;vertical-align:top;">pam_user</td><td style="vertical-align:top;">:</td><td><div>None</div></td></tr><tr><td style="font-weight:bold;vertical-align:top;">token</td><td style="vertical-align:top;">:</td><td><div>a0c173fe-720a-4d8c-84c4-3c35bf4babf9</div></td></tr></table></div>'
tRp151
sS'etype'
p152
S"<type 'exceptions.ValueError'>"
p153
sS'date'
p154
S'Fri Dec 13 13:25:55 2019'
p155
sS'response'
p156
g59
(S's\xc7 \x00\x00<div><table><tr><td style="font-weight:bold;vertical-align:top;">body</td><td style="vertical-align:top;">:</td><td><div>&lt;cStringIO.StringO object at 0x7f31169270d8&gt;</div></td></tr><tr><td style="font-weight:bold;vertical-align:top;">cookies</td><td style="vertical-align:top;">:</td><td><div><table><tr><td style="font-weight:bold;vertical-align:top;">session_id_admin</td><td style="vertical-align:top;">:</td><td><div>10.34.7.44-b455aed9-2aee-4a70-9bd9-339b39b137c6<table><tr><td style="font-weight:bold;vertical-align:top;">comment</td><td style="vertical-align:top;">:</td><td><div></div></td></tr><tr><td style="font-weight:bold;vertical-align:top;">domain</td><td style="vertical-align:top;">:</td><td><div></div></td></tr><tr><td style="font-weight:bold;vertical-align:top;">expires</td><td style="vertical-align:top;">:</td><td><div></div></td></tr><tr><td style="font-weight:bold;vertical-align:top;">httponly</td><td style="vertical-align:top;">:</td><td><div></div></td></tr><tr><td style="font-weight:bold;vertical-align:top;">max-age</td><td style="vertical-align:top;">:</td><td><div></div></td></tr><tr><td style="font-weight:bold;vertical-align:top;">path</td><td style="vertical-align:top;">:</td><td><div>/</div></td></tr><tr><td style="font-weight:bold;vertical-align:top;">secure</td><td style="vertical-align:top;">:</td><td><div></div></td></tr><tr><td style="font-weight:bold;vertical-align:top;">version</td><td style="vertical-align:top;">:</td><td><div></div></td></tr></table></div></td></tr></table></div></td></tr><tr><td style="font-weight:bold;vertical-align:top;">delimiters</td><td style="vertical-align:top;">:</td><td><div><table><tr><td><div>{{</div></td></tr><tr><td><div>}}</div></td></tr></table></div></td></tr><tr><td style="font-weight:bold;vertical-align:top;">files</td><td style="vertical-align:top;">:</td><td><div><table><tr><td><div>/admin/static/_2.17.2/plugin_multiselect/jquery.multi-select.js</div></td></tr><tr><td><div>/admin/static/_2.17.2/plugin_multiselect/multi-select.css</div></td></tr><tr><td><div>/admin/static/_2.17.2/plugin_multiselect/start.js</div></td></tr><tr><td><div>/admin/static/_2.17.2/plugin_statebutton/js/bootstrap-switch.js</div></td></tr><tr><td><div>/admin/static/_2.17.2/plugin_statebutton/css/bootstrap-switch.css</div></td></tr></table></div></td></tr><tr><td style="font-weight:bold;vertical-align:top;">flash</td><td style="vertical-align:top;">:</td><td><div></div></td></tr><tr><td style="font-weight:bold;vertical-align:top;">form_label_separator</td><td style="vertical-align:top;">:</td><td><div>: </div></td></tr><tr><td style="font-weight:bold;vertical-align:top;">formstyle</td><td style="vertical-align:top;">:</td><td><div>table3cols</div></td></tr><tr><td style="font-weight:bold;vertical-align:top;">generic_patterns</td><td style="vertical-align:top;">:</td><td><div><table><tr><td><div>*</div></td></tr></table></div></td></tr><tr><td style="font-weight:bold;vertical-align:top;">headers</td><td style="vertical-align:top;">:</td><td><div><table><tr><td style="font-weight:bold;vertical-align:top;">X-Powered-By</td><td style="vertical-align:top;">:</td><td><div>web2py</div></td></tr></table></div></td></tr><tr><td style="font-weight:bold;vertical-align:top;">menu</td><td style="vertical-align:top;">:</td><td><div><table><tr><td><div><table><tr><td><div>Site</div></td></tr><tr><td><div>False</div></td></tr><tr><td><div>/admin/default/site</div></td></tr></table></div></td></tr><tr><td><div><table><tr><td><div>Editar</div></td></tr><tr><td><div>False</div></td></tr><tr><td><div>/admin/default/design/Qualidade_Ambiental</div></td></tr></table></div></td></tr><tr><td><div><table><tr><td><div>sobre</div></td></tr><tr><td><div>False</div></td></tr><tr><td><div>/admin/default/about/Qualidade_Ambiental</div></td></tr></table></div></td></tr><tr><td><div><table><tr><td><div>Erros</div></td></tr><tr><td><div>True</div></td></tr><tr><td><div>/admin/default/errors/Qualidade_Ambiental</div></td></tr></table></div></td></tr><tr><td><div><table><tr><td><div>Versionamento</div></td></tr><tr><td><div>False</div></td></tr><tr><td><div>/admin/mercurial/commit/Qualidade_Ambiental</div></td></tr></table></div></td></tr><tr><td><div><table><tr><td><div>Ajuda</div></td></tr><tr><td><div>False</div></td></tr><tr><td><div>/examples/default/documentation</div></td></tr></table></div></td></tr><tr><td><div><table><tr><td><div>finalizar sess\xc3\xa3o</div></td></tr><tr><td><div>False</div></td></tr><tr><td><div>/admin/default/logout</div></td></tr></table></div></td></tr><tr><td><div><table><tr><td><div>Debug</div></td></tr><tr><td><div>False</div></td></tr><tr><td><div>/admin/debug/interact</div></td></tr></table></div></td></tr></table></div></td></tr><tr><td style="font-weight:bold;vertical-align:top;">meta</td><td style="vertical-align:top;">:</td><td><div><table></table></div></td></tr><tr><td style="font-weight:bold;vertical-align:top;">models_to_run</td><td style="vertical-align:top;">:</td><td><div><table><tr><td><div>^\\w+\\.py$</div></td></tr><tr><td><div>^default/\\w+\\.py$</div></td></tr><tr><td><div>^default/errors/\\w+\\.py$</div></td></tr></table></div></td></tr><tr><td style="font-weight:bold;vertical-align:top;">postprocessing</td><td style="vertical-align:top;">:</td><td><div><table></table></div></td></tr><tr><td style="font-weight:bold;vertical-align:top;">session_client</td><td style="vertical-align:top;">:</td><td><div>10.34.7.44</div></td></tr><tr><td style="font-weight:bold;vertical-align:top;">session_cookie_compression_level</td><td style="vertical-align:top;">:</td><td><div>None</div></td></tr><tr><td style="font-weight:bold;vertical-align:top;">session_cookie_expires</td><td style="vertical-align:top;">:</td><td><div>None</div></td></tr><tr><td style="font-weight:bold;vertical-align:top;">session_data_name</td><td style="vertical-align:top;">:</td><td><div>session_data_admin</div></td></tr><tr><td style="font-weight:bold;vertical-align:top;">session_file</td><td style="vertical-align:top;">:</td><td><div>&lt;open file &#x27;/home/www-data/web2py/applications/admin/sessions/10.34.7.44-b455aed9-2aee-4a70-9bd9-339b39b137c6&#x27;, mode &#x27;rb+&#x27; at 0x7f311696f930&gt;</div></td></tr><tr><td style="font-weight:bold;vertical-align:top;">session_filename</td><td style="vertical-align:top;">:</td><td><div>/home/www-data/web2py/applications/admin/sessions/10.34.7.44-b455aed9-2aee-4a70-9bd9-339b39b137c6</div></td></tr><tr><td style="font-weight:bold;vertical-align:top;">session_hash</td><td style="vertical-align:top;">:</td><td><div>2796f1fbfef02c1e76c0cd45ef07feff</div></td></tr><tr><td style="font-weight:bold;vertical-align:top;">session_id</td><td style="vertical-align:top;">:</td><td><div>10.34.7.44-b455aed9-2aee-4a70-9bd9-339b39b137c6</div></td></tr><tr><td style="font-weight:bold;vertical-align:top;">session_id_name</td><td style="vertical-align:top;">:</td><td><div>session_id_admin</div></td></tr><tr><td style="font-weight:bold;vertical-align:top;">session_locked</td><td style="vertical-align:top;">:</td><td><div>True</div></td></tr><tr><td style="font-weight:bold;vertical-align:top;">session_masterapp</td><td style="vertical-align:top;">:</td><td><div>admin</div></td></tr><tr><td style="font-weight:bold;vertical-align:top;">session_new</td><td style="vertical-align:top;">:</td><td><div>False</div></td></tr><tr><td style="font-weight:bold;vertical-align:top;">session_storage_type</td><td style="vertical-align:top;">:</td><td><div>file</div></td></tr><tr><td style="font-weight:bold;vertical-align:top;">static_version</td><td style="vertical-align:top;">:</td><td><div>2.17.2</div></td></tr><tr><td style="font-weight:bold;vertical-align:top;">static_version_urls</td><td style="vertical-align:top;">:</td><td><div>True</div></td></tr><tr><td style="font-weight:bold;vertical-align:top;">status</td><td style="vertical-align:top;">:</td><td><div>200</div></td></tr><tr><td style="font-weight:bold;vertical-align:top;">subtitle</td><td style="vertical-align:top;">:</td><td><div>admin</div></td></tr><tr><td style="font-weight:bold;vertical-align:top;">title</td><td style="vertical-align:top;">:</td><td><div>errors Qualidade_Ambiental</div></td></tr><tr><td style="font-weight:bold;vertical-align:top;">view</td><td style="vertical-align:top;">:</td><td><div>default/errors.html</div></td></tr></table></div>'
tRp157
sS'locals'
p158
(dp159
S'hash2error'
p160
S'{\'13ca90847884df7198de3f7f3685d279\': {\'causer\': \'plotdados.py\', \'count\': 2, \'hash\': \'13ca90847884df7198de3f7f3685d279\', \'last_line\': \'ValueError: numpy.ufunc size changed, may indica...Expected 216 from C header, got 192 from PyObject\', \'pickel\': {\'code\': \'<code object <module> at 0x7fd4be1b78b0, file "/...ade_Ambiental/controllers/plotdados.py", line 25>\', \'layer\': \'/home/www-data/web2py/applications/Qualidade_Ambiental/controllers/plotdados.py\', \'output\': "<type \'exceptions.ValueError\'> numpy.ufunc size ...Expected 216 from C header, got 192 from PyObject", \'snapshot\': {\'date\': \'Tue Dec  3 09:02:42 2019\', \'etype\': "<type \'exceptions.ValueError\'>", \'evalue\': \'numpy.ufunc size changed, may indicate binary in...Expected 216 from C header, got 192 from PyObject\', \'exception\': {\'__class__\': "<type \'exceptions.ValueError\'>", \'__delattr__\': "<method-wrapper \'__delattr__\' of exceptions.ValueError object>", \'__dict__\': \'{}\', \'__doc__\': "\'Inappropriate argument value (of correct type).\'", \'__format__\': \'<built-in method __format__ of exceptions.ValueError object>\', \'__getattribute__\': "<method-wrapper \'__getattribute__\' of exceptions.ValueError object>", \'__getitem__\': "<method-wrapper \'__getitem__\' of exceptions.ValueError object>", \'__getslice__\': "<method-wrapper \'__getslice__\' of exceptions.ValueError object>", \'__hash__\': "<method-wrapper \'__hash__\' of exceptions.ValueError object>", \'__init__\': "<method-wrapper \'__init__\' of exceptions.ValueError object>", ...}, \'frames\': [{\'call\': \'(ccode=<code object <module> at 0x7fd4be1b78b0, ...de_Ambiental/controllers/plotdados.py", line 25>)\', \'dump\': {...}, \'file\': \'/home/www-data/web2py/gluon/restricted.py\', \'func\': \'restricted\', \'lines\': {...}, \'lnum\': 219}, {\'call\': \'()\', \'dump\': {...}, \'file\': \'/home/www-data/web2py/applications/Qualidade_Ambiental/controllers/plotdados.py\', \'func\': \'<module>\', \'lines\': {...}, \'lnum\': 25}, {\'call\': "(name=\'pandas\', globals={\'A\': <class \'gluon.html...gluon.html.BUTTON\'>, ...}, fromlist=[], level=-1)", \'dump\': {...}, \'file\': \'/home/www-data/web2py/gluon/custom_import.py\', \'func\': \'custom_importer\', \'lines\': {...}, \'lnum\': 77}, {\'call\': \'()\', \'dump\': {...}, \'file\': \'/usr/local/lib/python2.7/dist-packages/pandas-0.24.1-py2.7-linux-x86_64.egg/pandas/__init__.py\', \'func\': \'<module>\', \'lines\': {...}, \'lnum\': 26}, {\'call\': "(name=\'pandas._libs\', globals={\'__builtins__\': {...fromlist=(\'hashtable\', \'lib\', \'tslib\'), level=-1)", \'dump\': {...}, \'file\': \'/home/www-data/web2py/gluon/custom_import.py\', \'func\': \'custom_importer\', \'lines\': {...}, \'lnum\': 77}, {\'call\': \'()\', \'dump\': {...}, \'file\': \'/usr/local/lib/python2.7/dist-packages/pandas-0.24.1-py2.7-linux-x86_64.egg/pandas/_libs/__init__.py\', \'func\': \'<module>\', \'lines\': {...}, \'lnum\': 4}, {\'call\': "(name=\'tslibs\', globals={\'__builtins__\': {\'Arith...elta\', \'OutOfBoundsDatetime\', \'Period\'), level=1)", \'dump\': {...}, \'file\': \'/home/www-data/web2py/gluon/custom_import.py\', \'func\': \'custom_importer\', \'lines\': {...}, \'lnum\': 111}, {\'call\': \'()\', \'dump\': {...}, \'file\': \'/usr/local/lib/python2.7/dist-packages/pandas-0....-linux-x86_64.egg/pandas/_libs/tslibs/__init__.py\', \'func\': \'<module>\', \'lines\': {...}, \'lnum\': 4}, {\'call\': "(name=\'conversion\', globals={\'__builtins__\': {\'A...alize_pydatetime\', \'tz_convert_single\'), level=1)", \'dump\': {...}, \'file\': \'/home/www-data/web2py/gluon/custom_import.py\', \'func\': \'custom_importer\', \'lines\': {...}, \'lnum\': 111}, {\'call\': \'()\', \'dump\': {}, \'file\': \'/home/www-data/web2py/__init__.pxd\', \'func\': \'init pandas._libs.tslibs.conversion\', \'lines\': {}, \'lnum\': 918}], \'locals\': {\'_TSObject\': "<type \'pandas._libs.tslibs.conversion._TSObject\'>", \'__builtins__\': "<module \'__builtin__\' (built-in)>", \'__doc__\': \'None\', \'__name__\': "\'pandas._libs.tslibs.conversion\'", \'__package__\': \'None\', \'__pyx_capi__\': \'{\\\'convert_datetime_to_tsobject\\\': <capsule object... (__pyx_t_5numpy_int64_t, PyDateTime_TZInfo *)">}\', \'localize_pydatetime\': \'<built-in function localize_pydatetime>\', \'pydt_to_i8\': \'<built-in function pydt_to_i8>\', \'tz_convert_single\': \'<built-in function tz_convert_single>\'}, \'pyver\': \'Python 2.7.15+: /home/smmau/.local/bin/uwsgi (prefix: /usr)\', \'request\': <div><table><tr><td style="font-weight:bold;vert... 0x7fd4be151c50&gt;</div></td></tr></table></div>, \'response\': <div><table><tr><td style="font-weight:bold;vert...otdados/entulho.png</div></td></tr></table></div>, \'session\': <div><table></table></div>}, \'traceback\': \'Traceback (most recent call last):\\n  File "/home...xpected 216 from C header, got 192 from PyObject\\n\'}, \'ticket\': \'10.34.7.42.2019-12-03.09-02-42.92e3df11-2652-44a4-9949-65d14d0a1fcc\'}, \'25791dbc79fe83e90672e18f95680c8c\': {\'causer\': \'db.py\', \'count\': 1, \'hash\': \'25791dbc79fe83e90672e18f95680c8c\', \'last_line\': \'error: unbalanced parenthesis\', \'pickel\': {\'code\': \'<code object <module> at 0x7feb486dd6b0, file "/...ations/Qualidade_Ambiental/models/db.py", line 7>\', \'layer\': \'/home/www-data/web2py/applications/Qualidade_Ambiental/models/db.py\', \'output\': "<class \'sre_constants.error\'> unbalanced parenthesis", \'snapshot\': {\'date\': \'Fri Dec  6 16:45:06 2019\', \'etype\': "<class \'sre_constants.error\'>", \'evalue\': \'unbalanced parenthesis\', \'exception\': {\'__class__\': "<class \'sre_constants.error\'>", \'__delattr__\': "<method-wrapper \'__delattr__\' of error object>", \'__dict__\': \'{}\', \'__doc__\': \'None\', \'__format__\': \'<built-in method __format__ of error object>\', \'__getattribute__\': "<method-wrapper \'__getattribute__\' of error object>", \'__getitem__\': "<method-wrapper \'__getitem__\' of error object>", \'__getslice__\': "<method-wrapper \'__getslice__\' of error object>", \'__hash__\': "<method-wrapper \'__hash__\' of error object>", \'__init__\': "<method-wrapper \'__init__\' of error object>", ...}, \'frames\': [{\'call\': \'(ccode=<code object <module> at 0x7feb486dd6b0, ...tions/Qualidade_Ambiental/models/db.py", line 7>)\', \'dump\': {...}, \'file\': \'/home/www-data/web2py/gluon/restricted.py\', \'func\': \'restricted\', \'lines\': {...}, \'lnum\': 219}, {\'call\': \'()\', \'dump\': {...}, \'file\': \'/home/www-data/web2py/applications/Qualidade_Ambiental/models/db.py\', \'func\': \'<module>\', \'lines\': {...}, \'lnum\': 183}, {\'call\': \'(self=<gluon.validators.IS_MATCH object>, expres...e, search=False, extract=False, is_unicode=False)\', \'dump\': {...}, \'file\': \'/home/www-data/web2py/gluon/validators.py\', \'func\': \'__init__\', \'lines\': {...}, \'lnum\': 193}, {\'call\': r"(pattern=r\'^[a:z]{3}\\d{4})\', flags=0)", \'dump\': {...}, \'file\': \'/usr/lib/python2.7/re.py\', \'func\': \'compile\', \'lines\': {...}, \'lnum\': 194}, {\'call\': r"(*key=(r\'^[a:z]{3}\\d{4})\', 0))", \'dump\': {...}, \'file\': \'/usr/lib/python2.7/re.py\', \'func\': \'_compile\', \'lines\': {...}, \'lnum\': 251}], \'locals\': {\'bypass_cache\': \'0\', \'cachekey\': r"(<type \'str\'>, r\'^[a:z]{3}\\d{4})\', 0)", \'flags\': \'0\', \'key\': r"(r\'^[a:z]{3}\\d{4})\', 0)", \'pattern\': r"r\'^[a:z]{3}\\d{4})\'", \'v\': "error(\'unbalanced parenthesis\',)"}, \'pyver\': \'Python 2.7.15+: /usr/local/bin/uwsgi (prefix: /usr)\', \'request\': <div><table><tr><td style="font-weight:bold;vert... 0x7feb532145d0&gt;</div></td></tr></table></div>, \'response\': <div><table><tr><td style="font-weight:bold;vert...rmEntradaPonto.html</div></td></tr></table></div>, \'session\': <div><table><tr><td style="font-weight:bold;vert...dadeDestino.id&gt;0</div></td></tr></table></div>}, \'traceback\': \'Traceback (most recent call last):\\n  File "/home...invalid expression\\nerror: unbalanced parenthesis\\n\'}, \'ticket\': \'10.34.7.44.2019-12-06.16-45-06.448388be-5f43-480c-a62c-742b9b344ae6\'}, \'4b5219a811debe489f4ca01bcf321864\': {\'causer\': \'db.py\', \'count\': 12, \'hash\': \'4b5219a811debe489f4ca01bcf321864\', \'last_line\': "TypeError: \'IS_IN_DB\' object has no attribute \'__getitem__\'", \'pickel\': {\'code\': \'<code object <module> at 0x7f925c662430, file "/...ations/Qualidade_Ambiental/models/db.py", line 7>\', \'layer\': \'/home/www-data/web2py/applications/Qualidade_Ambiental/models/db.py\', \'output\': "<type \'exceptions.TypeError\'> \'IS_IN_DB\' object has no attribute \'__getitem__\'", \'snapshot\': {\'date\': \'Fri Dec  6 15:00:31 2019\', \'etype\': "<type \'exceptions.TypeError\'>", \'evalue\': "\'IS_IN_DB\' object has no attribute \'__getitem__\'", \'exception\': {\'__class__\': "<type \'exceptions.TypeError\'>", \'__delattr__\': "<method-wrapper \'__delattr__\' of exceptions.TypeError object>", \'__dict__\': \'{}\', \'__doc__\': "\'Inappropriate argument type.\'", \'__format__\': \'<built-in method __format__ of exceptions.TypeError object>\', \'__getattribute__\': "<method-wrapper \'__getattribute__\' of exceptions.TypeError object>", \'__getitem__\': "<method-wrapper \'__getitem__\' of exceptions.TypeError object>", \'__getslice__\': "<method-wrapper \'__getslice__\' of exceptions.TypeError object>", \'__hash__\': "<method-wrapper \'__hash__\' of exceptions.TypeError object>", \'__init__\': "<method-wrapper \'__init__\' of exceptions.TypeError object>", ...}, \'frames\': [{\'call\': \'(ccode=<code object <module> at 0x7f925c662430, ...tions/Qualidade_Ambiental/models/db.py", line 7>)\', \'dump\': {...}, \'file\': \'/home/www-data/web2py/gluon/restricted.py\', \'func\': \'restricted\', \'lines\': {...}, \'lnum\': 219}, {\'call\': \'()\', \'dump\': {...}, \'file\': \'/home/www-data/web2py/applications/Qualidade_Ambiental/models/db.py\', \'func\': \'<module>\', \'lines\': {...}, \'lnum\': 196}], \'locals\': {\'A\': "<class \'gluon.html.A\'>", \'ANY_OF\': "<class \'gluon.validators.ANY_OF\'>", \'ASSIGNJS\': \'<function ASSIGNJS>\', \'AppConfig\': \'<function AppConfig>\', \'Auth\': "<class \'gluon.tools.Auth\'>", \'B\': "<class \'gluon.html.B\'>", \'BEAUTIFY\': "<class \'gluon.html.BEAUTIFY\'>", \'BODY\': "<class \'gluon.html.BODY\'>", \'BR\': "<class \'gluon.html.BR\'>", \'BUTTON\': "<class \'gluon.html.BUTTON\'>", ...}, \'pyver\': \'Python 2.7.15+: /usr/local/bin/uwsgi (prefix: /usr)\', \'request\': <div><table><tr><td style="font-weight:bold;vert... 0x7f925c7c2990&gt;</div></td></tr></table></div>, \'response\': <div><table><tr><td style="font-weight:bold;vert...rmEntradaPonto.html</div></td></tr></table></div>, \'session\': <div><table><tr><td style="font-weight:bold;vert...dadeDestino.id&gt;0</div></td></tr></table></div>}, \'traceback\': \'Traceback (most recent call last):\\n  File "/home...\\\'IS_IN_DB\\\' object has no attribute \\\'__getitem__\\\'\\n\'}, \'ticket\': \'10.34.7.44.2019-12-06.15-00-31.5c4ef062-92db-4059-ac0d-f01d877ab775\'}, \'4ea53585c4f625a588460698f0ec71c5\': {\'causer\': \'db.py\', \'count\': 2, \'hash\': \'4ea53585c4f625a588460698f0ec71c5\', \'last_line\': \'NotImplementedError\', \'pickel\': {\'code\': \'<code object <module> at 0x7f925c8696b0, file "/...ations/Qualidade_Ambiental/models/db.py", line 7>\', \'layer\': \'/home/www-data/web2py/applications/Qualidade_Ambiental/models/db.py\', \'output\': "<type \'exceptions.NotImplementedError\'> ", \'snapshot\': {\'date\': \'Fri Dec  6 14:43:32 2019\', \'etype\': "<type \'exceptions.NotImplementedError\'>", \'evalue\': \'\', \'exception\': {\'__class__\': "<type \'exceptions.NotImplementedError\'>", \'__delattr__\': "<method-wrapper \'__delattr__\' of exceptions.NotImplementedError object>", \'__dict__\': \'{}\', \'__doc__\': \'"Method or function hasn\\\'t been implemented yet."\', \'__format__\': \'<built-in method __format__ of exceptions.NotImplementedError object>\', \'__getattribute__\': "<method-wrapper \'__getattribute__\' of exceptions.NotImplementedError object>", \'__getitem__\': "<method-wrapper \'__getitem__\' of exceptions.NotImplementedError object>", \'__getslice__\': "<method-wrapper \'__getslice__\' of exceptions.NotImplementedError object>", \'__hash__\': "<method-wrapper \'__hash__\' of exceptions.NotImplementedError object>", \'__init__\': "<method-wrapper \'__init__\' of exceptions.NotImplementedError object>", ...}, \'frames\': [{\'call\': \'(ccode=<code object <module> at 0x7f925c8696b0, ...tions/Qualidade_Ambiental/models/db.py", line 7>)\', \'dump\': {...}, \'file\': \'/home/www-data/web2py/gluon/restricted.py\', \'func\': \'restricted\', \'lines\': {...}, \'lnum\': 219}, {\'call\': \'()\', \'dump\': {...}, \'file\': \'/home/www-data/web2py/applications/Qualidade_Ambiental/models/db.py\', \'func\': \'<module>\', \'lines\': {...}, \'lnum\': 196}, {\'call\': \'(self=<gluon.validators.IS_IN_DB object>, dbset=...=None, left=None, delimiter=None, auto_add=False)\', \'dump\': {...}, \'file\': \'/home/www-data/web2py/gluon/validators.py\', \'func\': \'__init__\', \'lines\': {...}, \'lnum\': 547}], \'locals\': {\'Table\': "<class \'pydal.objects.Table\'>", \'_and\': \'None\', \'auto_add\': \'False\', \'cache\': \'None\', \'dbset\': \'<DAL uri="mysql:******@10.7.0.28/Tconect">\', \'delimiter\': \'None\', \'distinct\': \'None\', \'error_message\': "\'Value not in database\'", \'field\': "\'UnidadeDestino.Id\'", \'groupby\': \'None\', ...}, \'pyver\': \'Python 2.7.15+: /usr/local/bin/uwsgi (prefix: /usr)\', \'request\': <div><table><tr><td style="font-weight:bold;vert... 0x7f92673bbb10&gt;</div></td></tr></table></div>, \'response\': <div><table><tr><td style="font-weight:bold;vert...appadmin/hooks.html</div></td></tr></table></div>, \'session\': <div><table><tr><td style="font-weight:bold;vert...dadeDestino.id&gt;0</div></td></tr></table></div>}, \'traceback\': \'Traceback (most recent call last):\\n  File "/home...   raise NotImplementedError\\nNotImplementedError\\n\'}, \'ticket\': \'10.34.7.44.2019-12-06.14-43-32.c5b1bdb2-388d-4255-a2d9-a944957c0a66\'}, \'4feb4341be5fc38d539f7b156e686500\': {\'causer\': \'PontosApoio.py\', \'count\': 1, \'hash\': \'4feb4341be5fc38d539f7b156e686500\', \'last_line\': \'SyntaxError: widget cannot determine options of EntradaPonto.Poda\', \'pickel\': {\'code\': \'<code object <module> at 0x7f925c7407b0, file "/...de_Ambiental/controllers/PontosApoio.py", line 9>\', \'layer\': \'/home/www-data/web2py/applications/Qualidade_Ambiental/controllers/PontosApoio.py\', \'output\': "<type \'exceptions.SyntaxError\'> widget cannot determine options of EntradaPonto.Poda", \'snapshot\': {\'date\': \'Fri Dec  6 15:17:28 2019\', \'etype\': "<type \'exceptions.SyntaxError\'>", \'evalue\': \'widget cannot determine options of EntradaPonto.Poda\', \'exception\': {\'__class__\': "<type \'exceptions.SyntaxError\'>", \'__delattr__\': "<method-wrapper \'__delattr__\' of exceptions.SyntaxError object>", \'__dict__\': \'{}\', \'__doc__\': "\'Invalid syntax.\'", \'__format__\': \'<built-in method __format__ of exceptions.SyntaxError object>\', \'__getattribute__\': "<method-wrapper \'__getattribute__\' of exceptions.SyntaxError object>", \'__getitem__\': "<method-wrapper \'__getitem__\' of exceptions.SyntaxError object>", \'__getslice__\': "<method-wrapper \'__getslice__\' of exceptions.SyntaxError object>", \'__hash__\': "<method-wrapper \'__hash__\' of exceptions.SyntaxError object>", \'__init__\': "<method-wrapper \'__init__\' of exceptions.SyntaxError object>", ...}, \'frames\': [{\'call\': \'(ccode=<code object <module> at 0x7f925c7407b0, ...e_Ambiental/controllers/PontosApoio.py", line 9>)\', \'dump\': {...}, \'file\': \'/home/www-data/web2py/gluon/restricted.py\', \'func\': \'restricted\', \'lines\': {...}, \'lnum\': 219}, {\'call\': \'()\', \'dump\': {}, \'file\': \'/home/www-data/web2py/applications/Qualidade_Ambiental/controllers/PontosApoio.py\', \'func\': \'<module>\', \'lines\': {...}, \'lnum\': 106}, {\'call\': \'(f=<function FormEntradaPonto>)\', \'dump\': {...}, \'file\': \'/home/www-data/web2py/gluon/globals.py\', \'func\': \'<lambda>\', \'lines\': {...}, \'lnum\': 421}, {\'call\': \'()\', \'dump\': {...}, \'file\': \'/home/www-data/web2py/applications/Qualidade_Ambiental/controllers/PontosApoio.py\', \'func\': \'FormEntradaPonto\', \'lines\': {...}, \'lnum\': 99}, {\'call\': \'(self=<gluon.sqlhtml.SQLFORM object>, table=<Tab...separator=None, extra_fields=[], **attributes={})\', \'dump\': {...}, \'file\': \'/home/www-data/web2py/gluon/sqlhtml.py\', \'func\': \'__init__\', \'lines\': {...}, \'lnum\': 1514}, {\'call\': "(cls=<class \'gluon.sqlhtml.CheckboxesWidget\'>, f...jects.Field object>, value=None, **attributes={})", \'dump\': {...}, \'file\': \'/home/www-data/web2py/gluon/sqlhtml.py\', \'func\': \'widget\', \'lines\': {...}, \'lnum\': 468}], \'locals\': {\'attr\': "{\'_class\': \'generic-widget web2py_checkboxeswidg...quires\': [<gluon.validators.IS_EMPTY_OR object>]}", \'attributes\': \'{}\', \'cls\': "<class \'gluon.sqlhtml.CheckboxesWidget\'>", \'field\': \'<pydal.objects.Field object>\', \'label\': \'True\', \'requires\': \'[<gluon.validators.IS_EMPTY_OR object>]\', \'value\': \'None\', \'values\': "[\'None\']"}, \'pyver\': \'Python 2.7.15+: /usr/local/bin/uwsgi (prefix: /usr)\', \'request\': <div><table><tr><td style="font-weight:bold;vert... 0x7f92673a15d0&gt;</div></td></tr></table></div>, \'response\': <div><table><tr><td style="font-weight:bold;vert...rmEntradaPonto.html</div></td></tr></table></div>, \'session\': <div><table><tr><td style="font-weight:bold;vert...dadeDestino.id&gt;0</div></td></tr></table></div>}, \'traceback\': \'Traceback (most recent call last):\\n  File "/home...et cannot determine options of EntradaPonto.Poda\\n\'}, \'ticket\': \'10.34.7.44.2019-12-06.15-17-28.4cea4e42-acd3-4cf6-8ad0-f33415a1cbae\'}, \'51601b8dadf236215e49fb204ac008ad\': {\'causer\': \'Framework\', \'count\': 1, \'hash\': \'51601b8dadf236215e49fb204ac008ad\', \'last_line\': \'SyntaxError: invalid syntax\', \'pickel\': {\'code\': \'\', \'layer\': \'Framework\', \'output\': \'\', \'snapshot\': {\'date\': \'Fri Dec  6 14:29:30 2019\', \'etype\': "<type \'exceptions.SyntaxError\'>", \'evalue\': \'invalid syntax (db.py, line 197)\', \'exception\': {\'__class__\': "<type \'exceptions.SyntaxError\'>", \'__delattr__\': "<method-wrapper \'__delattr__\' of exceptions.SyntaxError object>", \'__dict__\': \'{}\', \'__doc__\': "\'Invalid syntax.\'", \'__format__\': \'<built-in method __format__ of exceptions.SyntaxError object>\', \'__getattribute__\': "<method-wrapper \'__getattribute__\' of exceptions.SyntaxError object>", \'__getitem__\': "<method-wrapper \'__getitem__\' of exceptions.SyntaxError object>", \'__getslice__\': "<method-wrapper \'__getslice__\' of exceptions.SyntaxError object>", \'__hash__\': "<method-wrapper \'__hash__\' of exceptions.SyntaxError object>", \'__init__\': "<method-wrapper \'__init__\' of exceptions.SyntaxError object>", ...}, \'frames\': [{\'call\': "(environ={\'CONTENT_LENGTH\': \'\', \'CONTENT_TYPE\': ..., ...}, responder=<built-in function uwsgi_spit>)", \'dump\': {...}, \'file\': \'/home/www-data/web2py/gluon/main.py\', \'func\': \'wsgibase\', \'lines\': {...}, \'lnum\': 445}, {\'call\': "(request=<Storage {\'function\': \'hooks\', \'cookies...083dbfb84\'], \'Fim\': datetime.date(2019, 9, 22)}>)", \'dump\': {...}, \'file\': \'/home/www-data/web2py/gluon/main.py\', \'func\': \'serve_controller\', \'lines\': {...}, \'lnum\': 178}, {\'call\': "(environment={\'A\': <class \'gluon.html.A\'>, \'ANY_...T\'>, \'CENTER\': <class \'gluon.html.CENTER\'>, ...})", \'dump\': {...}, \'file\': \'/home/www-data/web2py/gluon/compileapp.py\', \'func\': \'run_models_in\', \'lines\': {...}, \'lnum\': 595}, {\'call\': "(key=\'/home/www-data/web2py/applications/Qualida...iental/models/db.py\', filter=<function <lambda>>)", \'dump\': {...}, \'file\': \'/home/www-data/web2py/gluon/cfs.py\', \'func\': \'getcfs\', \'lines\': {...}, \'lnum\': 50}, {\'call\': \'()\', \'dump\': {...}, \'file\': \'/home/www-data/web2py/gluon/compileapp.py\', \'func\': \'<lambda>\', \'lines\': {...}, \'lnum\': 594}, {\'call\': \'(code="# -*- coding: utf-8 -*-\\\\n\\\\n# ------------...y/applications/Qualidade_Ambiental/models/db.py\\\')\', \'dump\': {...}, \'file\': \'/home/www-data/web2py/gluon/restricted.py\', \'func\': \'compile2\', \'lines\': {...}, \'lnum\': 205}], \'locals\': {\'code\': \'"# -*- coding: utf-8 -*-\\\\n\\\\n# ------------------...po=\\\'Ponto de Apoio\\\' )),\\\\n    migrate = False )\\\\n"\', \'layer\': "\'/home/www-data/web2py/applications/Qualidade_Ambiental/models/db.py\'"}, \'pyver\': \'Python 2.7.15+: /usr/local/bin/uwsgi (prefix: /usr)\', \'request\': <div><table><tr><td style="font-weight:bold;vert... 0x7f92673bbb10&gt;</div></td></tr></table></div>, \'response\': <div><table><tr><td style="font-weight:bold;vert...appadmin/hooks.html</div></td></tr></table></div>, \'session\': <div><table><tr><td style="font-weight:bold;vert...dadeDestino.id&gt;0</div></td></tr></table></div>}, \'traceback\': \'Traceback (most recent call last):\\n  File "/home...                   ^\\nSyntaxError: invalid syntax\\n\'}, \'ticket\': \'10.34.7.44.2019-12-06.14-29-30.606e5f70-5943-4ece-aae4-e3f50d66ce4b\'}, \'6ad68649d3a74180747c8064b8314163\': {\'causer\': \'PontosApoio.py\', \'count\': 1, \'hash\': \'6ad68649d3a74180747c8064b8314163\', \'last_line\': "AttributeError: \'NoneType\' object has no attribute \'tablename\'", \'pickel\': {\'code\': \'<code object <module> at 0x7f925c4a4eb0, file "/...de_Ambiental/controllers/PontosApoio.py", line 9>\', \'layer\': \'/home/www-data/web2py/applications/Qualidade_Ambiental/controllers/PontosApoio.py\', \'output\': "<type \'exceptions.AttributeError\'> \'NoneType\' object has no attribute \'tablename\'", \'snapshot\': {\'date\': \'Fri Dec  6 15:18:34 2019\', \'etype\': "<type \'exceptions.AttributeError\'>", \'evalue\': "\'NoneType\' object has no attribute \'tablename\'", \'exception\': {\'__class__\': "<type \'exceptions.AttributeError\'>", \'__delattr__\': "<method-wrapper \'__delattr__\' of exceptions.AttributeError object>", \'__dict__\': \'{}\', \'__doc__\': "\'Attribute not found.\'", \'__format__\': \'<built-in method __format__ of exceptions.AttributeError object>\', \'__getattribute__\': "<method-wrapper \'__getattribute__\' of exceptions.AttributeError object>", \'__getitem__\': "<method-wrapper \'__getitem__\' of exceptions.AttributeError object>", \'__getslice__\': "<method-wrapper \'__getslice__\' of exceptions.AttributeError object>", \'__hash__\': "<method-wrapper \'__hash__\' of exceptions.AttributeError object>", \'__init__\': "<method-wrapper \'__init__\' of exceptions.AttributeError object>", ...}, \'frames\': [{\'call\': \'(ccode=<code object <module> at 0x7f925c4a4eb0, ...e_Ambiental/controllers/PontosApoio.py", line 9>)\', \'dump\': {...}, \'file\': \'/home/www-data/web2py/gluon/restricted.py\', \'func\': \'restricted\', \'lines\': {...}, \'lnum\': 219}, {\'call\': \'()\', \'dump\': {}, \'file\': \'/home/www-data/web2py/applications/Qualidade_Ambiental/controllers/PontosApoio.py\', \'func\': \'<module>\', \'lines\': {...}, \'lnum\': 106}, {\'call\': \'(f=<function FormEntradaPonto>)\', \'dump\': {...}, \'file\': \'/home/www-data/web2py/gluon/globals.py\', \'func\': \'<lambda>\', \'lines\': {...}, \'lnum\': 421}, {\'call\': \'()\', \'dump\': {...}, \'file\': \'/home/www-data/web2py/applications/Qualidade_Ambiental/controllers/PontosApoio.py\', \'func\': \'FormEntradaPonto\', \'lines\': {...}, \'lnum\': 99}, {\'call\': \'(self=<gluon.sqlhtml.SQLFORM object>, table=<Tab...separator=None, extra_fields=[], **attributes={})\', \'dump\': {...}, \'file\': \'/home/www-data/web2py/gluon/sqlhtml.py\', \'func\': \'__init__\', \'lines\': {...}, \'lnum\': 1514}, {\'call\': "(self=<gluon.sqlhtml.AutocompleteWidget object>,...t_var=\'ac\', user_signature=True, hash_vars=False)", \'dump\': {...}, \'file\': \'/home/www-data/web2py/gluon/sqlhtml.py\', \'func\': \'__init__\', \'lines\': {...}, \'lnum\': 671}], \'locals\': {\'at_beginning\': \'True\', \'db\': \'None\', \'default_var\': "\'ac\'", \'distinct\': \'False\', \'field\': \'None\', \'hash_vars\': \'False\', \'help_fields\': \'None\', \'help_string\': \'None\', \'id_field\': \'None\', \'keyword\': "\'_autocomplete_%(tablename)s_%(fieldname)s\'", ...}, \'pyver\': \'Python 2.7.15+: /usr/local/bin/uwsgi (prefix: /usr)\', \'request\': <div><table><tr><td style="font-weight:bold;vert... 0x7f925c4a9c50&gt;</div></td></tr></table></div>, \'response\': <div><table><tr><td style="font-weight:bold;vert...rmEntradaPonto.html</div></td></tr></table></div>, \'session\': <div><table><tr><td style="font-weight:bold;vert...dadeDestino.id&gt;0</div></td></tr></table></div>}, \'traceback\': \'Traceback (most recent call last):\\n  File "/home...: \\\'NoneType\\\' object has no attribute \\\'tablename\\\'\\n\'}, \'ticket\': \'10.34.7.44.2019-12-06.15-18-34.d2b09825-9a88-4c82-b948-6911b31c8ee0\'}, \'6d705bdf92a30783ed1e7ba23573d029\': {\'causer\': \'Framework\', \'count\': 1, \'hash\': \'6d705bdf92a30783ed1e7ba23573d029\', \'last_line\': "SyntaxError: keyword can\'t be an expression", \'pickel\': {\'code\': \'\', \'layer\': \'Framework\', \'output\': \'\', \'snapshot\': {\'date\': \'Fri Dec  6 14:31:30 2019\', \'etype\': "<type \'exceptions.SyntaxError\'>", \'evalue\': "keyword can\'t be an expression (db.py, line 196)", \'exception\': {\'__class__\': "<type \'exceptions.SyntaxError\'>", \'__delattr__\': "<method-wrapper \'__delattr__\' of exceptions.SyntaxError object>", \'__dict__\': \'{}\', \'__doc__\': "\'Invalid syntax.\'", \'__format__\': \'<built-in method __format__ of exceptions.SyntaxError object>\', \'__getattribute__\': "<method-wrapper \'__getattribute__\' of exceptions.SyntaxError object>", \'__getitem__\': "<method-wrapper \'__getitem__\' of exceptions.SyntaxError object>", \'__getslice__\': "<method-wrapper \'__getslice__\' of exceptions.SyntaxError object>", \'__hash__\': "<method-wrapper \'__hash__\' of exceptions.SyntaxError object>", \'__init__\': "<method-wrapper \'__init__\' of exceptions.SyntaxError object>", ...}, \'frames\': [{\'call\': "(environ={\'CONTENT_LENGTH\': \'\', \'CONTENT_TYPE\': ..., ...}, responder=<built-in function uwsgi_spit>)", \'dump\': {...}, \'file\': \'/home/www-data/web2py/gluon/main.py\', \'func\': \'wsgibase\', \'lines\': {...}, \'lnum\': 445}, {\'call\': "(request=<Storage {\'function\': \'hooks\', \'cookies...083dbfb84\'], \'Fim\': datetime.date(2019, 9, 22)}>)", \'dump\': {...}, \'file\': \'/home/www-data/web2py/gluon/main.py\', \'func\': \'serve_controller\', \'lines\': {...}, \'lnum\': 178}, {\'call\': "(environment={\'A\': <class \'gluon.html.A\'>, \'ANY_...T\'>, \'CENTER\': <class \'gluon.html.CENTER\'>, ...})", \'dump\': {...}, \'file\': \'/home/www-data/web2py/gluon/compileapp.py\', \'func\': \'run_models_in\', \'lines\': {...}, \'lnum\': 595}, {\'call\': "(key=\'/home/www-data/web2py/applications/Qualida...iental/models/db.py\', filter=<function <lambda>>)", \'dump\': {...}, \'file\': \'/home/www-data/web2py/gluon/cfs.py\', \'func\': \'getcfs\', \'lines\': {...}, \'lnum\': 50}, {\'call\': \'()\', \'dump\': {...}, \'file\': \'/home/www-data/web2py/gluon/compileapp.py\', \'func\': \'<lambda>\', \'lines\': {...}, \'lnum\': 594}, {\'call\': \'(code="# -*- coding: utf-8 -*-\\\\n\\\\n# ------------...y/applications/Qualidade_Ambiental/models/db.py\\\')\', \'dump\': {...}, \'file\': \'/home/www-data/web2py/gluon/restricted.py\', \'func\': \'compile2\', \'lines\': {...}, \'lnum\': 205}], \'locals\': {\'code\': \'"# -*- coding: utf-8 -*-\\\\n\\\\n# ------------------...o=\\\'Ponto de Apoio\\\' ))),\\\\n    migrate = False )\\\\n"\', \'layer\': "\'/home/www-data/web2py/applications/Qualidade_Ambiental/models/db.py\'"}, \'pyver\': \'Python 2.7.15+: /usr/local/bin/uwsgi (prefix: /usr)\', \'request\': <div><table><tr><td style="font-weight:bold;vert... 0x7f92673bbb10&gt;</div></td></tr></table></div>, \'response\': <div><table><tr><td style="font-weight:bold;vert...appadmin/hooks.html</div></td></tr></table></div>, \'session\': <div><table><tr><td style="font-weight:bold;vert...dadeDestino.id&gt;0</div></td></tr></table></div>}, \'traceback\': \'Traceback (most recent call last):\\n  File "/home...))),\\nSyntaxError: keyword can\\\'t be an expression\\n\'}, \'ticket\': \'10.34.7.44.2019-12-06.14-31-30.fdb4fbfd-e4fd-44ef-8602-5ec6da6b1c44\'}, \'6da9027414b60dd995b67edde9698be3\': {\'causer\': \'PontosApoio.py\', \'count\': 2, \'hash\': \'6da9027414b60dd995b67edde9698be3\', \'last_line\': \'KeyError: "<Row {\\\'Atividade\\\': \\\'UNIDADE DE BENEFI...icula\\\': \\\'504042\\\', \\\'IdEndereco\\\': 166L, \\\'id\\\': 1L}>"\', \'pickel\': {\'code\': \'<code object <module> at 0x7f925c740930, file "/...de_Ambiental/controllers/PontosApoio.py", line 9>\', \'layer\': \'/home/www-data/web2py/applications/Qualidade_Ambiental/controllers/PontosApoio.py\', \'output\': \'<type \\\'exceptions.KeyError\\\'> "<Row {\\\'Atividade\\\':...icula\\\': \\\'504042\\\', \\\'IdEndereco\\\': 166L, \\\'id\\\': 1L}>"\', \'snapshot\': {\'date\': \'Fri Dec  6 14:51:21 2019\', \'etype\': "<type \'exceptions.KeyError\'>", \'evalue\': \'"<Row {\\\'Atividade\\\': \\\'UNIDADE DE BENEFICIAMENTO D...icula\\\': \\\'504042\\\', \\\'IdEndereco\\\': 166L, \\\'id\\\': 1L}>"\', \'exception\': {\'__class__\': "<type \'exceptions.KeyError\'>", \'__delattr__\': "<method-wrapper \'__delattr__\' of exceptions.KeyError object>", \'__dict__\': \'{}\', \'__doc__\': "\'Mapping key not found.\'", \'__format__\': \'<built-in method __format__ of exceptions.KeyError object>\', \'__getattribute__\': "<method-wrapper \'__getattribute__\' of exceptions.KeyError object>", \'__getitem__\': "<method-wrapper \'__getitem__\' of exceptions.KeyError object>", \'__getslice__\': "<method-wrapper \'__getslice__\' of exceptions.KeyError object>", \'__hash__\': "<method-wrapper \'__hash__\' of exceptions.KeyError object>", \'__init__\': "<method-wrapper \'__init__\' of exceptions.KeyError object>", ...}, \'frames\': [{\'call\': \'(ccode=<code object <module> at 0x7f925c740930, ...e_Ambiental/controllers/PontosApoio.py", line 9>)\', \'dump\': {...}, \'file\': \'/home/www-data/web2py/gluon/restricted.py\', \'func\': \'restricted\', \'lines\': {...}, \'lnum\': 219}, {\'call\': \'()\', \'dump\': {}, \'file\': \'/home/www-data/web2py/applications/Qualidade_Ambiental/controllers/PontosApoio.py\', \'func\': \'<module>\', \'lines\': {...}, \'lnum\': 103}, {\'call\': \'(f=<function FormEntradaPonto>)\', \'dump\': {...}, \'file\': \'/home/www-data/web2py/gluon/globals.py\', \'func\': \'<lambda>\', \'lines\': {...}, \'lnum\': 421}, {\'call\': \'()\', \'dump\': {...}, \'file\': \'/home/www-data/web2py/applications/Qualidade_Ambiental/controllers/PontosApoio.py\', \'func\': \'FormEntradaPonto\', \'lines\': {...}, \'lnum\': 99}, {\'call\': \'(self=<gluon.sqlhtml.SQLFORM object>, table=<Tab...separator=None, extra_fields=[], **attributes={})\', \'dump\': {...}, \'file\': \'/home/www-data/web2py/gluon/sqlhtml.py\', \'func\': \'__init__\', \'lines\': {...}, \'lnum\': 1523}, {\'call\': "(cls=<class \'gluon.sqlhtml.OptionsWidget\'>, fiel...jects.Field object>, value=None, **attributes={})", \'dump\': {...}, \'file\': \'/home/www-data/web2py/gluon/sqlhtml.py\', \'func\': \'widget\', \'lines\': {...}, \'lnum\': 325}, {\'call\': \'(self=<gluon.validators.IS_IN_DB object>, zero=True)\', \'dump\': {...}, \'file\': \'/home/www-data/web2py/gluon/validators.py\', \'func\': \'options\', \'lines\': {...}, \'lnum\': 601}, {\'call\': \'(self=<gluon.validators.IS_IN_DB object>)\', \'dump\': {...}, \'file\': \'/home/www-data/web2py/gluon/validators.py\', \'func\': \'build_set\', \'lines\': {...}, \'lnum\': 598}, {\'call\': "(self=<Row {\'Atividade\': \'Ponto de Apoio - Jd. A...icula\': \'504042\', \'IdEndereco\': 166L, \'id\': 1L}>)", \'dump\': {...}, \'file\': \'/home/www-data/web2py/gluon/packages/dal/pydal/objects.py\', \'func\': \'__getitem__\', \'lines\': {...}, \'lnum\': 94}], \'locals\': {\'_extra\': \'None\', \'e\': \'None\', \'k\': "<Row {\'Atividade\': \'UNIDADE DE BENEFICIAMENTO DE...ricula\': \'504042\', \'IdEndereco\': 166L, \'id\': 1L}>", \'key\': \'"<Row {\\\'Atividade\\\': \\\'UNIDADE DE BENEFICIAMENTO D...icula\\\': \\\'504042\\\', \\\'IdEndereco\\\': 166L, \\\'id\\\': 1L}>"\', \'m\': \'None\', \'self\': r"<Row {\'Atividade\': \'Ponto de Apoio - Jd. Atl\\xc3...Matricula\': \'0\', \'IdEndereco\': 1388L, \'id\': 24L}>"}, \'pyver\': \'Python 2.7.15+: /usr/local/bin/uwsgi (prefix: /usr)\', \'request\': <div><table><tr><td style="font-weight:bold;vert... 0x7f92673a15d0&gt;</div></td></tr></table></div>, \'response\': <div><table><tr><td style="font-weight:bold;vert...rmEntradaPonto.html</div></td></tr></table></div>, \'session\': <div><table><tr><td style="font-weight:bold;vert...dadeDestino.id&gt;0</div></td></tr></table></div>}, \'traceback\': \'Traceback (most recent call last):\\n  File "/home...cula\\\': \\\'504042\\\', \\\'IdEndereco\\\': 166L, \\\'id\\\': 1L}>"\\n\'}, \'ticket\': \'10.34.7.44.2019-12-06.14-51-21.98bea532-b990-4bc2-89ee-1a446aa7ca68\'}, \'83bdde95065075e5b1f58e44915da10a\': {\'causer\': \'plotdados.py\', \'count\': 2, \'hash\': \'83bdde95065075e5b1f58e44915da10a\', \'last_line\': "TypeError: unsupported operand type(s) for +: \'int\' and \'NoneType\'", \'pickel\': {\'code\': \'<code object <module> at 0x7f310bc4a630, file "/...ade_Ambiental/controllers/plotdados.py", line 26>\', \'layer\': \'/home/www-data/web2py/applications/Qualidade_Ambiental/controllers/plotdados.py\', \'output\': "<type \'exceptions.TypeError\'> unsupported operand type(s) for +: \'int\' and \'NoneType\'", \'snapshot\': {\'date\': \'Fri Dec 13 13:06:02 2019\', \'etype\': "<type \'exceptions.TypeError\'>", \'evalue\': "unsupported operand type(s) for +: \'int\' and \'NoneType\'", \'exception\': {\'__class__\': "<type \'exceptions.TypeError\'>", \'__delattr__\': "<method-wrapper \'__delattr__\' of exceptions.TypeError object>", \'__dict__\': \'{}\', \'__doc__\': "\'Inappropriate argument type.\'", \'__format__\': \'<built-in method __format__ of exceptions.TypeError object>\', \'__getattribute__\': "<method-wrapper \'__getattribute__\' of exceptions.TypeError object>", \'__getitem__\': "<method-wrapper \'__getitem__\' of exceptions.TypeError object>", \'__getslice__\': "<method-wrapper \'__getslice__\' of exceptions.TypeError object>", \'__hash__\': "<method-wrapper \'__hash__\' of exceptions.TypeError object>", \'__init__\': "<method-wrapper \'__init__\' of exceptions.TypeError object>", ...}, \'frames\': [{\'call\': \'(ccode=<code object <module> at 0x7f310bc4a630, ...de_Ambiental/controllers/plotdados.py", line 26>)\', \'dump\': {...}, \'file\': \'/home/www-data/web2py/gluon/restricted.py\', \'func\': \'restricted\', \'lines\': {...}, \'lnum\': 219}, {\'call\': \'()\', \'dump\': {}, \'file\': \'/home/www-data/web2py/applications/Qualidade_Ambiental/controllers/plotdados.py\', \'func\': \'<module>\', \'lines\': {...}, \'lnum\': 122}, {\'call\': \'(f=<function pontores>)\', \'dump\': {...}, \'file\': \'/home/www-data/web2py/gluon/globals.py\', \'func\': \'<lambda>\', \'lines\': {...}, \'lnum\': 421}, {\'call\': \'()\', \'dump\': {...}, \'file\': \'/home/www-data/web2py/applications/Qualidade_Ambiental/controllers/plotdados.py\', \'func\': \'pontores\', \'lines\': {...}, \'lnum\': 85}, {\'call\': r"(title=u\'Volume total por res\\xedduos no None\', ...eis\', None), (\'Entulho\', None)]}, legendgrau=315)", \'dump\': {...}, \'file\': \'/home/www-data/web2py/applications/Qualidade_Ambiental/modules/plotador.py\', \'func\': \'plot\', \'lines\': {...}, \'lnum\': 47}, {\'call\': \'(ax=<matplotlib.axes._subplots.AxesSubplot objec...one, None, None, None, None, None]), **kwargs={})\', \'dump\': {...}, \'file\': \'/usr/lib/python2.7/dist-packages/matplotlib/__init__.py\', \'func\': \'inner\', \'lines\': {...}, \'lnum\': 1718}, {\'call\': \'(self=<matplotlib.axes._subplots.AxesSubplot object>, *args=<itertools.izip object>, **kwargs={})\', \'dump\': {...}, \'file\': \'/usr/lib/python2.7/dist-packages/matplotlib/axes/_axes.py\', \'func\': \'bar\', \'lines\': {...}, \'lnum\': 2095}, {\'call\': \'(self=<matplotlib.axes._subplots.AxesSubplot object>, p=<matplotlib.patches.Rectangle object>)\', \'dump\': {...}, \'file\': \'/usr/lib/python2.7/dist-packages/matplotlib/axes/_base.py\', \'func\': \'add_patch\', \'lines\': {...}, \'lnum\': 1854}, {\'call\': \'(self=<matplotlib.axes._subplots.AxesSubplot object>, patch=<matplotlib.patches.Rectangle object>)\', \'dump\': {...}, \'file\': \'/usr/lib/python2.7/dist-packages/matplotlib/axes/_base.py\', \'func\': \'_update_patch_limits\', \'lines\': {...}, \'lnum\': 1874}, {\'call\': \'(self=<matplotlib.patches.Rectangle object>)\', \'dump\': {...}, \'file\': \'/usr/lib/python2.7/dist-packages/matplotlib/patches.py\', \'func\': \'get_patch_transform\', \'lines\': {...}, \'lnum\': 692}, {\'call\': \'(self=<matplotlib.patches.Rectangle object>)\', \'dump\': {...}, \'file\': \'/usr/lib/python2.7/dist-packages/matplotlib/patches.py\', \'func\': \'_update_patch_transform\', \'lines\': {...}, \'lnum\': 685}, {\'call\': \'(x0=-0.40000000000000002, y0=0, width=0.80000000000000004, height=None)\', \'dump\': {...}, \'file\': \'/usr/lib/python2.7/dist-packages/matplotlib/transforms.py\', \'func\': \'from_bounds\', \'lines\': {...}, \'lnum\': 804}], \'locals\': {\'height\': \'None\', \'width\': \'0.80000000000000004\', \'x0\': \'-0.40000000000000002\', \'y0\': \'0\'}, \'pyver\': \'Python 2.7.15+: /usr/local/bin/uwsgi (prefix: /usr)\', \'request\': <div><table><tr><td style="font-weight:bold;vert... 0x7f31169235d0&gt;</div></td></tr></table></div>, \'response\': <div><table><tr><td style="font-weight:bold;vert...tdados/pontores.png</div></td></tr></table></div>, \'session\': <div><table><tr><td style="font-weight:bold;vert...daPonto.IdPonto==41</div></td></tr></table></div>}, \'traceback\': \'Traceback (most recent call last):\\n  File "/home...rted operand type(s) for +: \\\'int\\\' and \\\'NoneType\\\'\\n\'}, \'ticket\': \'10.34.7.44.2019-12-13.13-05-57.90fe252a-a73f-42a9-bb93-71d717382aa2\'}, ...}'
p161
sS'db_ready'
p162
S"{'errlink': 'http://web2py.com/books/default/chapter/29/13#Collecting-tickets', 'errmessage': <lazyT 'No ticket_storage.txt found under /private folder'>, 'status': False}"
p163
sS'hash'
p164
S"'83bdde95065075e5b1f58e44915da10a'"
p165
sS'delete_hashes'
p166
S'[]'
p167
sS'errors_path'
p168
S"'/home/www-data/web2py/applications/Qualidade_Ambiental/errors'"
p169
sS'error_lines'
p170
S'[\'Traceback (most recent call last):\', \'  File "/home/www-data/web2py/gluon/restricted.py", line 219, in restricted\', \'    exec(ccode, environment)\', \'  File "/home/www-data/web2py/applications/Quali.../controllers/plotdados.py", line 122, in <module>\', \'  File "/home/www-data/web2py/gluon/globals.py", line 421, in <lambda>\', \'    self._caller = lambda f: f()\', \'  File "/home/www-data/web2py/applications/Quali...l/controllers/plotdados.py", line 85, in pontores\', "    return plot( title=title, xlab=xlab, ylab=yl...olume por res\\xc3\\xadduo\': lxy}, legendgrau=legendgrau)", \'  File "applications/Qualidade_Ambiental/modules/plotador.py", line 47, in plot\', \'    ell = ax.bar(range(len(y)), y)\', \'  File "/usr/lib/python2.7/dist-packages/matplotlib/__init__.py", line 1718, in inner\', \'    return func(ax, *args, **kwargs)\', \'  File "/usr/lib/python2.7/dist-packages/matplotlib/axes/_axes.py", line 2095, in bar\', \'    self.add_patch(r)\', \'  File "/usr/lib/python2.7/dist-packages/matplotlib/axes/_base.py", line 1854, in add_patch\', \'    self._update_patch_limits(p)\', \'  File "/usr/lib/python2.7/dist-packages/matplot...xes/_base.py", line 1874, in _update_patch_limits\', \'    xys = patch.get_patch_transform().transform(vertices)\', \'  File "/usr/lib/python2.7/dist-packages/matplotlib/patches.py", line 692, in get_patch_transform\', \'    self._update_patch_transform()\', ...]'
p171
sS'app'
p172
S"'Qualidade_Ambiental'"
p173
sS'last_line'
p174
S'"TypeError: unsupported operand type(s) for +: \'int\' and \'NoneType\'"'
p175
sS'hashlib'
p176
S"<module 'hashlib' from '/usr/lib/python2.7/hashlib.pyc'>"
p177
sS'method'
p178
S"'new'"
p179
sS'error_causer'
p180
S"'plotdados.py'"
p181
sS'error'
p182
S'{\'code\': \'<code object <module> at 0x7f310bcc8630, file "/...ade_Ambiental/controllers/plotdados.py", line 26>\', \'layer\': \'/home/www-data/web2py/applications/Qualidade_Ambiental/controllers/plotdados.py\', \'output\': "<type \'exceptions.TypeError\'> unsupported operand type(s) for +: \'int\' and \'NoneType\'", \'snapshot\': {\'date\': \'Fri Dec 13 10:17:44 2019\', \'etype\': "<type \'exceptions.TypeError\'>", \'evalue\': "unsupported operand type(s) for +: \'int\' and \'NoneType\'", \'exception\': {\'__class__\': "<type \'exceptions.TypeError\'>", \'__delattr__\': "<method-wrapper \'__delattr__\' of exceptions.TypeError object>", \'__dict__\': \'{}\', \'__doc__\': "\'Inappropriate argument type.\'", \'__format__\': \'<built-in method __format__ of exceptions.TypeError object>\', \'__getattribute__\': "<method-wrapper \'__getattribute__\' of exceptions.TypeError object>", \'__getitem__\': "<method-wrapper \'__getitem__\' of exceptions.TypeError object>", \'__getslice__\': "<method-wrapper \'__getslice__\' of exceptions.TypeError object>", \'__hash__\': "<method-wrapper \'__hash__\' of exceptions.TypeError object>", \'__init__\': "<method-wrapper \'__init__\' of exceptions.TypeError object>", ...}, \'frames\': [{\'call\': \'(ccode=<code object <module> at 0x7f310bcc8630, ...de_Ambiental/controllers/plotdados.py", line 26>)\', \'dump\': {\'ccode\': \'<code object <module> at 0x7f310bcc8630, file "/...ade_Ambiental/controllers/plotdados.py", line 26>\', \'environment\': "{\'A\': <class \'gluon.html.A\'>, \'ANY_OF\': <class \'...re.AxesStack\'>, \'B\': <class \'gluon.html.B\'>, ...}"}, \'file\': \'/home/www-data/web2py/gluon/restricted.py\', \'func\': \'restricted\', \'lines\': {214: \'    if environment is None:\', 215: \'        environment = {}\', 216: "    environment[\'__file__\'] = layer", 217: "    environment[\'__name__\'] = \'__restricted__\'", 218: \'    try:\', 219: \'        exec(ccode, environment)\', 220: \'    except HTTP:\', 221: \'        raise\', 222: \'    except RestrictedError:\', 223: \'        # do not encapsulate (obfuscate) the original RestrictedError\'}, \'lnum\': 219}, {\'call\': \'()\', \'dump\': {}, \'file\': \'/home/www-data/web2py/applications/Qualidade_Ambiental/controllers/plotdados.py\', \'func\': \'<module>\', \'lines\': {112: \'\\tfor i in query:\', 113: "\\t\\tx.append(i[\'Atividade\'].replace(\'Ponto de Apoio - \',\'\')) #.encode(\'utf-8\'))", 114: \'\\t\\tfor k,v in i.items():\', 115: "\\t\\t\\tif k != \'Atividade\':", 116: \'\\t\\t\\t\\tif v != None:\', 117: \'\\t\\t\\t\\t\\ty.append(v)\', 118: \'\\tfor i in zip(x,y):\', 119: \'\\t\\tlxy.append(i)\', 120: \'\\tlegendgrau = 340\', 121: "\\treturn plot( title=title, xlab=xlab, ylab=ylab,...{u\'Volume por P.A.\': lxy}, legendgrau=legendgrau)"}, \'lnum\': 122}, {\'call\': \'(f=<function pontores>)\', \'dump\': {\'f\': \'<function pontores>\', \'self\': \'undefined\'}, \'file\': \'/home/www-data/web2py/gluon/globals.py\', \'func\': \'<lambda>\', \'lines\': {416: "        self.flash = \'\'            # used by the default view layout", 417: \'        self.meta = Storage()      # used by web2py_ajax.html\', 418: \'        self.menu = []             # used by the default view layout\', 419: \'        self.files = []            # used by web2py_ajax.html\', 420: \'        self._vars = None\', 421: \'        self._caller = lambda f: f()\', 422: \'        self._view_environment = None\', 423: \'        self._custom_commit = None\', 424: \'        self._custom_rollback = None\', 425: "        self.generic_patterns = [\'*\']"}, \'lnum\': 421}, {\'call\': \'()\', \'dump\': {\'data\': \'undefined\', \'global plot\': \'<function plot>\', \'legendgrau\': \'315\', \'lxy\': "[(\'Plast.Papel\', None), (\'Poda\', None), (\'Ferro\'...on.\', None), (\'Moveis\', None), (\'Entulho\', None)]", \'mode\': \'undefined\', \'title\': r"u\'Volume total por res\\xedduos no None\'", \'xlab\': r"u\'res\\xedduos\'", \'ylab\': r"u\'Vol. em metros c\\xfabicos (m3)\'"}, \'file\': \'/home/www-data/web2py/applications/Qualidade_Ambiental/controllers/plotdados.py\', \'func\': \'pontores\', \'lines\': {80: \'\\t\\ty.append(v)\', 81: \'\\tlxy = []\', 82: \'\\tfor i in zip(x,y):\', 83: \'\\t\\tlxy.append(i)\', 84: \'\\tlegendgrau = 315\', 85: "\\treturn plot( title=title, xlab=xlab, ylab=ylab,...olume por res\\xc3\\xadduo\': lxy}, legendgrau=legendgrau)", 86: \'\', 87: \'\', 88: \'def respontos(): # Grafico do volume por ponto do res\\xc3\\xadduo selecionado\', 89: \'\'}, \'lnum\': 85}, {\'call\': r"(title=u\'Volume total por res\\xedduos no None\', ...eis\', None), (\'Entulho\', None)]}, legendgrau=315)", \'dump\': {\'ax\': \'<matplotlib.axes._subplots.AxesSubplot object>\', \'ax.bar\': \'<bound method AxesSubplot.bar of <matplotlib.axes._subplots.AxesSubplot object>>\', \'builtinlen\': \'<built-in function len>\', \'builtinrange\': \'<built-in function range>\', \'ell\': \'undefined\', \'y\': \'[None, None, None, None, None, None]\'}, \'file\': \'/home/www-data/web2py/applications/Qualidade_Ambiental/modules/plotador.py\', \'func\': \'plot\', \'lines\': {42: \'        (x,y)=([],[])\', 43: \'        for point in stream:\', 44: \'            x.append(point[0])\', 45: \'            y.append(point[1])\', 46: "        if mode==\'bar\':", 47: \'            ell = ax.bar(range(len(y)), y)\', 48: \'            ell.set_label(x)\', 49: \'            ax.set_xticks(range(len(y)))\', 50: \'            ax.set_xticklabels(x)\', 51: \'            legend.append((ell,key))\'}, \'lnum\': 47}, {\'call\': \'(ax=<matplotlib.axes._subplots.AxesSubplot objec...one, None, None, None, None, None]), **kwargs={})\', \'dump\': {\'args\': \'([0, 1, 2, 3, 4, 5], [None, None, None, None, None, None])\', \'ax\': \'<matplotlib.axes._subplots.AxesSubplot object>\', \'func\': \'<function bar>\', \'kwargs\': \'{}\'}, \'file\': \'/usr/lib/python2.7/dist-packages/matplotlib/__init__.py\', \'func\': \'inner\', \'lines\': {1713: \'                           "func \\\'%s\\\' but couldn\\\'t find such an argument. \\\\n"\', 1714: \'                           "(This is a programming error, please report to "\', 1715: \'                           "the matplotlib list!)")\', 1716: \'                    warnings.warn(msg % (label_namer, func.__name__),\', 1717: \'                                  RuntimeWarning, stacklevel=2)\', 1718: \'            return func(ax, *args, **kwargs)\', 1719: \'        pre_doc = inner.__doc__\', 1720: \'        if pre_doc is None:\', 1721: "            pre_doc = \'\'", 1722: \'        else:\'}, \'lnum\': 1718}, {\'call\': \'(self=<matplotlib.axes._subplots.AxesSubplot object>, *args=<itertools.izip object>, **kwargs={})\', \'dump\': {\'r\': \'<matplotlib.patches.Rectangle object>\', \'self\': \'<matplotlib.axes._subplots.AxesSubplot object>\', \'self.add_patch\': \'<bound method AxesSubplot.add_patch of <matplotlib.axes._subplots.AxesSubplot object>>\'}, \'file\': \'/usr/lib/python2.7/dist-packages/matplotlib/axes/_axes.py\', \'func\': \'bar\', \'lines\': {2090: \'            r.get_path()._interpolation_steps = 100\', 2091: "            if orientation == \'vertical\':", 2092: \'                r.sticky_edges.y.append(b)\', 2093: "            elif orientation == \'horizontal\':", 2094: \'                r.sticky_edges.x.append(l)\', 2095: \'            self.add_patch(r)\', 2096: \'            patches.append(r)\', 2097: \'\', 2098: \'        holdstate = self._hold\', 2099: \'        self._hold = True  # ensure hold is on before plotting errorbars\'}, \'lnum\': 2095}, {\'call\': \'(self=<matplotlib.axes._subplots.AxesSubplot object>, p=<matplotlib.patches.Rectangle object>)\', \'dump\': {\'p\': \'<matplotlib.patches.Rectangle object>\', \'self\': \'<matplotlib.axes._subplots.AxesSubplot object>\', \'self._update_patch_limits\': \'<bound method AxesSubplot._update_patch_limits of <matplotlib.axes._subplots.AxesSubplot object>>\'}, \'file\': \'/usr/lib/python2.7/dist-packages/matplotlib/axes/_base.py\', \'func\': \'add_patch\', \'lines\': {1849: \'        """\', 1850: \'\', 1851: \'        self._set_artist_props(p)\', 1852: \'        if p.get_clip_path() is None:\', 1853: \'            p.set_clip_path(self.patch)\', 1854: \'        self._update_patch_limits(p)\', 1855: \'        self.patches.append(p)\', 1856: \'        p._remove_method = lambda h: self.patches.remove(h)\', 1857: \'        return p\', 1858: \'\'}, \'lnum\': 1854}, {\'call\': \'(self=<matplotlib.axes._subplots.AxesSubplot object>, patch=<matplotlib.patches.Rectangle object>)\', \'dump\': {\').transform\': \'undefined\', \'patch\': \'<matplotlib.patches.Rectangle object>\', \'patch.get_patch_transform\': \'<bound method Rectangle.get_patch_transform of <matplotlib.patches.Rectangle object>>\', \'vertices\': \'array([[ 0.,  0.],\\n       [ 1.,  0.],\\n       [ 1.,  1.],\\n       [ 0.,  1.],\\n       [ 0.,  0.]])\', \'xys\': \'undefined\'}, \'file\': \'/usr/lib/python2.7/dist-packages/matplotlib/axes/_base.py\', \'func\': \'_update_patch_limits\', \'lines\': {1869: \'        if (isinstance(patch, mpatches.Rectangle) and\', 1870: \'                ((not patch.get_width()) and (not patch.get_height()))):\', 1871: \'            return\', 1872: \'        vertices = patch.get_path().vertices\', 1873: \'        if vertices.size > 0:\', 1874: \'            xys = patch.get_patch_transform().transform(vertices)\', 1875: \'            if patch.get_data_transform() != self.transData:\', 1876: \'                patch_to_data = (patch.get_data_transform() -\', 1877: \'                                 self.transData)\', 1878: \'                xys = patch_to_data.transform(xys)\'}, \'lnum\': 1874}, {\'call\': \'(self=<matplotlib.patches.Rectangle object>)\', \'dump\': {\'self\': \'<matplotlib.patches.Rectangle object>\', \'self._update_patch_transform\': \'<bound method Rectangle._update_patch_transform of <matplotlib.patches.Rectangle object>>\'}, \'file\': \'/usr/lib/python2.7/dist-packages/matplotlib/patches.py\', \'func\': \'get_patch_transform\', \'lines\': {687: \'        rot_trans.rotate_deg_around(x, y, self.angle)\', 688: \'        self._rect_transform = transforms.BboxTransformTo(bbox)\', 689: \'        self._rect_transform += rot_trans\', 690: \'\', 691: \'    def get_patch_transform(self):\', 692: \'        self._update_patch_transform()\', 693: \'        return self._rect_transform\', 694: \'\', 695: \'    def get_x(self):\', 696: \'        "Return the left coord of the rectangle"\'}, \'lnum\': 692}, {\'call\': \'(self=<matplotlib.patches.Rectangle object>)\', \'dump\': {\'bbox\': \'undefined\', \'global transforms\': "<module \'matplotlib.transforms\' from \'/usr/lib/python2.7/dist-packages/matplotlib/transforms.pyc\'>", \'height\': \'None\', \'transforms.Bbox\': "<class \'matplotlib.transforms.Bbox\'>", \'transforms.Bbox.from_bounds\': \'<function from_bounds>\', \'width\': \'0.80000000000000004\', \'x\': \'-0.40000000000000002\', \'y\': \'0\'}, \'file\': \'/usr/lib/python2.7/dist-packages/matplotlib/patches.py\', \'func\': \'_update_patch_transform\', \'lines\': {680: \'        """\', 681: \'        x = self.convert_xunits(self._x)\', 682: \'        y = self.convert_yunits(self._y)\', 683: \'        width = self.convert_xunits(self._width)\', 684: \'        height = self.convert_yunits(self._height)\', 685: \'        bbox = transforms.Bbox.from_bounds(x, y, width, height)\', 686: \'        rot_trans = transforms.Affine2D()\', 687: \'        rot_trans.rotate_deg_around(x, y, self.angle)\', 688: \'        self._rect_transform = transforms.BboxTransformTo(bbox)\', 689: \'        self._rect_transform += rot_trans\'}, \'lnum\': 685}, {\'call\': \'(x0=-0.40000000000000002, y0=0, width=0.80000000000000004, height=None)\', \'dump\': {\'Bbox.from_extents\': \'<function from_extents>\', \'global Bbox\': "<class \'matplotlib.transforms.Bbox\'>", \'height\': \'None\', \'width\': \'0.80000000000000004\', \'x0\': \'-0.40000000000000002\', \'y0\': \'0\'}, \'file\': \'/usr/lib/python2.7/dist-packages/matplotlib/transforms.py\', \'func\': \'from_bounds\', \'lines\': {799: \'        (staticmethod) Create a new :class:`Bbox` from *x0*, *y0*,\', 800: \'        *width* and *height*.\', 801: \'\', 802: \'        *width* and *height* may be negative.\', 803: \'        """\', 804: \'        return Bbox.from_extents(x0, y0, x0 + width, y0 + height)\', 805: \'\', 806: \'    @staticmethod\', 807: \'    def from_extents(*args):\', 808: \'        """\'}, \'lnum\': 804}], \'locals\': {\'height\': \'None\', \'width\': \'0.80000000000000004\', \'x0\': \'-0.40000000000000002\', \'y0\': \'0\'}, \'pyver\': \'Python 2.7.15+: /usr/local/bin/uwsgi (prefix: /usr)\', \'request\': <div><table><tr><td style="font-weight:bold;vert... 0x7f31169235d0&gt;</div></td></tr></table></div>, \'response\': <div><table><tr><td style="font-weight:bold;vert...tdados/pontores.png</div></td></tr></table></div>, \'session\': <div><table></table></div>}, \'traceback\': \'Traceback (most recent call last):\\n  File "/home...rted operand type(s) for +: \\\'int\\\' and \\\'NoneType\\\'\\n\'}'
p183
sS'operator'
p184
S"<module 'operator' (built-in)>"
p185
sS'fullpath'
p186
S"'/home/www-data/web2py/applications/Qualidade_Amb...-02.17-04-44.1ffa2558-1c52-4db4-9eea-16780f38250f'"
p187
sS'os'
p188
S"<module 'os' from '/usr/lib/python2.7/os.pyc'>"
p189
sS'fullpath_file'
p190
S"<closed file '/home/www-data/web2py/applications...1ffa2558-1c52-4db4-9eea-16780f38250f', mode 'rb'>"
p191
sS'fn'
p192
S"'10.34.7.49.2019-12-02.17-04-44.1ffa2558-1c52-4db4-9eea-16780f38250f'"
p193
sssS'traceback'
p194
S'Traceback (most recent call last):\n  File "/home/www-data/web2py/gluon/restricted.py", line 219, in restricted\n    exec(ccode, environment)\n  File "/home/www-data/web2py/applications/admin/controllers/default.py", line 2012, in <module>\n  File "/home/www-data/web2py/gluon/globals.py", line 421, in <lambda>\n    self._caller = lambda f: f()\n  File "/home/www-data/web2py/applications/admin/controllers/default.py", line 1618, in errors\n    error = pickle.load(fullpath_file)\nValueError: unsupported pickle protocol: 3\n'
p195
s.